
========================================================================

** ELF Header Information

    File Name: stm32g431rbt6_advanced\stm32g431rbt6_advanced.axf

    Machine class: ELFCLASS32 (32-bit)
    Data encoding: ELFDATA2LSB (Little endian)
    Header version: EV_CURRENT (Current version)
    Operating System ABI: none
    ABI Version: 0
    File Type: ET_EXEC (Executable) (2)
    Machine: EM_ARM (ARM)

    Image Entry point: 0x080001d9
    Flags: EF_ARM_HASENTRY + EF_ARM_ABI_FLOAT_HARD (0x05000402)

    ARM ELF revision: 5 (ABI version 2)

    Conforms to Hard float procedure-call standard

    Built with
    Component: ARM Compiler 5.06 update 7 (build 960) Tool: armasm [4d35fa]
    Component: ARM Compiler 5.06 update 7 (build 960) Tool: armlink [4d3601]

    Header size: 52 bytes (0x34)
    Program header entry size: 32 bytes (0x20)
    Section header entry size: 40 bytes (0x28)

    Program header entries: 1
    Section header entries: 16

    Program header offset: 2050964 (0x001f4b94)
    Section header offset: 2050996 (0x001f4bb4)

    Section header string table index: 15

========================================================================

** Program header #0 (PT_LOAD) [PF_X + PF_W + PF_R + PF_ARM_ENTRY]
    Size : 45132 bytes (36736 bytes in file)
    Virtual address: 0x08000000 (Alignment 8)


========================================================================

** Section #1 'ER_IROM1' (SHT_PROGBITS) [SHF_ALLOC + SHF_EXECINSTR]
    Size   : 36476 bytes (alignment 4)
    Address: 0x08000000

    $d.realdata
    RESET
    __Vectors
        0x08000000:    200021d0    .!.     DCD    536879568
        0x08000004:    080002b9    ....    DCD    134218425
        0x08000008:    080040ef    .@..    DCD    134234351
        0x0800000c:    08002291    ."..    DCD    134226577
        0x08000010:    080040ed    .@..    DCD    134234349
        0x08000014:    080005e1    ....    DCD    134219233
        0x08000018:    08006e4b    Kn..    DCD    134245963
        0x0800001c:    00000000    ....    DCD    0
        0x08000020:    00000000    ....    DCD    0
        0x08000024:    00000000    ....    DCD    0
        0x08000028:    00000000    ....    DCD    0
        0x0800002c:    08004c6d    mL..    DCD    134237293
        0x08000030:    08000665    e...    DCD    134219365
        0x08000034:    00000000    ....    DCD    0
        0x08000038:    08004a8b    .J..    DCD    134236811
        0x0800003c:    08005121    !Q..    DCD    134238497
        0x08000040:    080002d3    ....    DCD    134218451
        0x08000044:    080002d3    ....    DCD    134218451
        0x08000048:    080002d3    ....    DCD    134218451
        0x0800004c:    080002d3    ....    DCD    134218451
        0x08000050:    080002d3    ....    DCD    134218451
        0x08000054:    080002d3    ....    DCD    134218451
        0x08000058:    080002d3    ....    DCD    134218451
        0x0800005c:    080002d3    ....    DCD    134218451
        0x08000060:    08000689    ....    DCD    134219401
        0x08000064:    080002d3    ....    DCD    134218451
        0x08000068:    080002d3    ....    DCD    134218451
        0x0800006c:    0800065d    ]...    DCD    134219357
        0x08000070:    0800065f    _...    DCD    134219359
        0x08000074:    080002d3    ....    DCD    134218451
        0x08000078:    080002d3    ....    DCD    134218451
        0x0800007c:    080002d3    ....    DCD    134218451
        0x08000080:    080002d3    ....    DCD    134218451
        0x08000084:    00000000    ....    DCD    0
        0x08000088:    080004af    ....    DCD    134218927
        0x0800008c:    080002d3    ....    DCD    134218451
        0x08000090:    08006dd9    .m..    DCD    134245849
        0x08000094:    080002d3    ....    DCD    134218451
        0x08000098:    080002d3    ....    DCD    134218451
        0x0800009c:    080002d3    ....    DCD    134218451
        0x080000a0:    080002d3    ....    DCD    134218451
        0x080000a4:    080002d3    ....    DCD    134218451
        0x080000a8:    080002d3    ....    DCD    134218451
        0x080000ac:    080002d3    ....    DCD    134218451
        0x080000b0:    080002d3    ....    DCD    134218451
        0x080000b4:    080002d3    ....    DCD    134218451
        0x080000b8:    080002d3    ....    DCD    134218451
        0x080000bc:    080002d3    ....    DCD    134218451
        0x080000c0:    080002d3    ....    DCD    134218451
        0x080000c4:    080002d3    ....    DCD    134218451
        0x080000c8:    080002d3    ....    DCD    134218451
        0x080000cc:    080002d3    ....    DCD    134218451
        0x080000d0:    080002d3    ....    DCD    134218451
        0x080000d4:    080002d3    ....    DCD    134218451
        0x080000d8:    080002d3    ....    DCD    134218451
        0x080000dc:    080002d3    ....    DCD    134218451
        0x080000e0:    080002d3    ....    DCD    134218451
        0x080000e4:    080002d3    ....    DCD    134218451
        0x080000e8:    080002d3    ....    DCD    134218451
        0x080000ec:    080002d3    ....    DCD    134218451
        0x080000f0:    080002d3    ....    DCD    134218451
        0x080000f4:    080002d3    ....    DCD    134218451
        0x080000f8:    080002d3    ....    DCD    134218451
        0x080000fc:    00000000    ....    DCD    0
        0x08000100:    00000000    ....    DCD    0
        0x08000104:    080002d3    ....    DCD    134218451
        0x08000108:    00000000    ....    DCD    0
        0x0800010c:    080002d3    ....    DCD    134218451
        0x08000110:    080002d3    ....    DCD    134218451
        0x08000114:    00000000    ....    DCD    0
        0x08000118:    080002d3    ....    DCD    134218451
        0x0800011c:    080002d3    ....    DCD    134218451
        0x08000120:    08000661    a...    DCD    134219361
        0x08000124:    08000663    c...    DCD    134219363
        0x08000128:    080002d3    ....    DCD    134218451
        0x0800012c:    080002d3    ....    DCD    134218451
        0x08000130:    080002d3    ....    DCD    134218451
        0x08000134:    00000000    ....    DCD    0
        0x08000138:    00000000    ....    DCD    0
        0x0800013c:    080002d3    ....    DCD    134218451
        0x08000140:    080002d3    ....    DCD    134218451
        0x08000144:    080002d3    ....    DCD    134218451
        0x08000148:    00000000    ....    DCD    0
        0x0800014c:    00000000    ....    DCD    0
        0x08000150:    00000000    ....    DCD    0
        0x08000154:    00000000    ....    DCD    0
        0x08000158:    00000000    ....    DCD    0
        0x0800015c:    00000000    ....    DCD    0
        0x08000160:    00000000    ....    DCD    0
        0x08000164:    00000000    ....    DCD    0
        0x08000168:    00000000    ....    DCD    0
        0x0800016c:    080002d3    ....    DCD    134218451
        0x08000170:    080002d3    ....    DCD    134218451
        0x08000174:    00000000    ....    DCD    0
        0x08000178:    00000000    ....    DCD    0
        0x0800017c:    00000000    ....    DCD    0
        0x08000180:    00000000    ....    DCD    0
        0x08000184:    080002d3    ....    DCD    134218451
        0x08000188:    00000000    ....    DCD    0
        0x0800018c:    00000000    ....    DCD    0
        0x08000190:    00000000    ....    DCD    0
        0x08000194:    00000000    ....    DCD    0
        0x08000198:    00000000    ....    DCD    0
        0x0800019c:    00000000    ....    DCD    0
        0x080001a0:    00000000    ....    DCD    0
        0x080001a4:    00000000    ....    DCD    0
        0x080001a8:    080002d3    ....    DCD    134218451
        0x080001ac:    080002d3    ....    DCD    134218451
        0x080001b0:    080002d3    ....    DCD    134218451
        0x080001b4:    080002d3    ....    DCD    134218451
        0x080001b8:    080002d3    ....    DCD    134218451
        0x080001bc:    00000000    ....    DCD    0
        0x080001c0:    00000000    ....    DCD    0
        0x080001c4:    080002d3    ....    DCD    134218451
        0x080001c8:    00000000    ....    DCD    0
        0x080001cc:    00000000    ....    DCD    0
        0x080001d0:    080002d3    ....    DCD    134218451
        0x080001d4:    080002d3    ....    DCD    134218451
    $t
    !!!main
    __Vectors_End
    __main
        0x080001d8:    f000f802    ....    BL       __scatterload ; 0x80001e0
        0x080001dc:    f000f85c    ..\.    BL       __rt_entry ; 0x8000298
    !!!scatter
    __scatterload
    __scatterload_rt2
    __scatterload_rt2_thumb_only
        0x080001e0:    a00a        ..      ADR      r0,{pc}+0x2c ; 0x800020c
        0x080001e2:    e8900c00    ....    LDM      r0,{r10,r11}
        0x080001e6:    4482        .D      ADD      r10,r10,r0
        0x080001e8:    4483        .D      ADD      r11,r11,r0
        0x080001ea:    f1aa0701    ....    SUB      r7,r10,#1
    __scatterload_null
        0x080001ee:    45da        .E      CMP      r10,r11
        0x080001f0:    d101        ..      BNE      0x80001f6 ; __scatterload_null + 8
        0x080001f2:    f000f851    ..Q.    BL       __rt_entry ; 0x8000298
        0x080001f6:    f2af0e09    ....    ADR      lr,{pc}-7 ; 0x80001ef
        0x080001fa:    e8ba000f    ....    LDM      r10!,{r0-r3}
        0x080001fe:    f0130f01    ....    TST      r3,#1
        0x08000202:    bf18        ..      IT       NE
        0x08000204:    1afb        ..      SUBNE    r3,r7,r3
        0x08000206:    f0430301    C...    ORR      r3,r3,#1
        0x0800020a:    4718        .G      BX       r3
    $d
        0x0800020c:    00008c50    P...    DCD    35920
        0x08000210:    00008c70    p...    DCD    35952
    $t
    !!dczerorl2
    __decompress
    __decompress1
        0x08000214:    440a        .D      ADD      r2,r2,r1
        0x08000216:    f04f0c00    O...    MOV      r12,#0
        0x0800021a:    f8103b01    ...;    LDRB     r3,[r0],#1
        0x0800021e:    f0130407    ....    ANDS     r4,r3,#7
        0x08000222:    bf08        ..      IT       EQ
        0x08000224:    f8104b01    ...K    LDRBEQ   r4,[r0],#1
        0x08000228:    111d        ..      ASRS     r5,r3,#4
        0x0800022a:    bf08        ..      IT       EQ
        0x0800022c:    f8105b01    ...[    LDRBEQ   r5,[r0],#1
        0x08000230:    1e64        d.      SUBS     r4,r4,#1
        0x08000232:    d005        ..      BEQ      0x8000240 ; __decompress + 44
        0x08000234:    f8106b01    ...k    LDRB     r6,[r0],#1
        0x08000238:    1e64        d.      SUBS     r4,r4,#1
        0x0800023a:    f8016b01    ...k    STRB     r6,[r1],#1
        0x0800023e:    d1f9        ..      BNE      0x8000234 ; __decompress + 32
        0x08000240:    f0130f08    ....    TST      r3,#8
        0x08000244:    bf1e        ..      ITTT     NE
        0x08000246:    f8104b01    ...K    LDRBNE   r4,[r0],#1
        0x0800024a:    1cad        ..      ADDNE    r5,r5,#2
        0x0800024c:    1b0c        ..      SUBNE    r4,r1,r4
        0x0800024e:    d109        ..      BNE      0x8000264 ; __decompress + 80
        0x08000250:    1e6d        m.      SUBS     r5,r5,#1
        0x08000252:    bf58        X.      IT       PL
        0x08000254:    f801cb01    ....    STRBPL   r12,[r1],#1
        0x08000258:    d5fa        ..      BPL      0x8000250 ; __decompress + 60
        0x0800025a:    e005        ..      B        0x8000268 ; __decompress + 84
        0x0800025c:    f8146b01    ...k    LDRB     r6,[r4],#1
        0x08000260:    f8016b01    ...k    STRB     r6,[r1],#1
        0x08000264:    1e6d        m.      SUBS     r5,r5,#1
        0x08000266:    d5f9        ..      BPL      0x800025c ; __decompress + 72
        0x08000268:    4291        .B      CMP      r1,r2
        0x0800026a:    d3d6        ..      BCC      0x800021a ; __decompress + 6
        0x0800026c:    4770        pG      BX       lr
        0x0800026e:    0000        ..      MOVS     r0,r0
    !!handler_zi
    __scatterload_zeroinit
        0x08000270:    2300        .#      MOVS     r3,#0
        0x08000272:    2400        .$      MOVS     r4,#0
        0x08000274:    2500        .%      MOVS     r5,#0
        0x08000276:    2600        .&      MOVS     r6,#0
        0x08000278:    3a10        .:      SUBS     r2,r2,#0x10
        0x0800027a:    bf28        (.      IT       CS
        0x0800027c:    c178        x.      STMCS    r1!,{r3-r6}
        0x0800027e:    d8fb        ..      BHI      0x8000278 ; __scatterload_zeroinit + 8
        0x08000280:    0752        R.      LSLS     r2,r2,#29
        0x08000282:    bf28        (.      IT       CS
        0x08000284:    c130        0.      STMCS    r1!,{r4,r5}
        0x08000286:    bf48        H.      IT       MI
        0x08000288:    600b        .`      STRMI    r3,[r1,#0]
        0x0800028a:    4770        pG      BX       lr
    .ARM.Collect$$libinit$$00000000
    __rt_lib_init
        0x0800028c:    b51f        ..      PUSH     {r0-r4,lr}
    .ARM.Collect$$libinit$$00000001
    __rt_lib_init_fp_1
        0x0800028e:    f008fb9d    ....    BL       _fp_init ; 0x80089cc
    .ARM.Collect$$libinit$$00000004
    .ARM.Collect$$libinit$$0000000A
    .ARM.Collect$$libinit$$0000000C
    .ARM.Collect$$libinit$$0000000E
    .ARM.Collect$$libinit$$00000011
    .ARM.Collect$$libinit$$00000013
    .ARM.Collect$$libinit$$00000015
    .ARM.Collect$$libinit$$00000017
    .ARM.Collect$$libinit$$00000019
    .ARM.Collect$$libinit$$0000001B
    .ARM.Collect$$libinit$$0000001D
    .ARM.Collect$$libinit$$0000001F
    .ARM.Collect$$libinit$$00000021
    .ARM.Collect$$libinit$$00000023
    .ARM.Collect$$libinit$$00000025
    .ARM.Collect$$libinit$$0000002C
    .ARM.Collect$$libinit$$0000002E
    .ARM.Collect$$libinit$$00000030
    .ARM.Collect$$libinit$$00000032
    .ARM.Collect$$libinit$$00000033
    __rt_lib_init_alloca_1
    __rt_lib_init_argv_1
    __rt_lib_init_atexit_1
    __rt_lib_init_clock_1
    __rt_lib_init_cpp_1
    __rt_lib_init_exceptions_1
    __rt_lib_init_fp_trap_1
    __rt_lib_init_getenv_1
    __rt_lib_init_heap_1
    __rt_lib_init_lc_collate_1
    __rt_lib_init_lc_ctype_1
    __rt_lib_init_lc_monetary_1
    __rt_lib_init_lc_numeric_1
    __rt_lib_init_lc_time_1
    __rt_lib_init_preinit_1
    __rt_lib_init_rand_1
    __rt_lib_init_return
    __rt_lib_init_signal_1
    __rt_lib_init_stdio_1
    __rt_lib_init_user_alloc_1
        0x08000292:    bd1f        ..      POP      {r0-r4,pc}
    .ARM.Collect$$libshutdown$$00000000
    __rt_lib_shutdown
        0x08000294:    b510        ..      PUSH     {r4,lr}
    .ARM.Collect$$libshutdown$$00000002
    .ARM.Collect$$libshutdown$$00000004
    .ARM.Collect$$libshutdown$$00000006
    .ARM.Collect$$libshutdown$$00000009
    .ARM.Collect$$libshutdown$$0000000C
    .ARM.Collect$$libshutdown$$0000000E
    .ARM.Collect$$libshutdown$$00000011
    .ARM.Collect$$libshutdown$$00000012
    __rt_lib_shutdown_cpp_1
    __rt_lib_shutdown_fini_1
    __rt_lib_shutdown_fp_trap_1
    __rt_lib_shutdown_heap_1
    __rt_lib_shutdown_return
    __rt_lib_shutdown_signal_1
    __rt_lib_shutdown_stdio_1
    __rt_lib_shutdown_user_alloc_1
        0x08000296:    bd10        ..      POP      {r4,pc}
    .ARM.Collect$$rtentry$$00000000
    .ARM.Collect$$rtentry$$00000002
    .ARM.Collect$$rtentry$$00000004
    __rt_entry
    __rt_entry_presh_1
    __rt_entry_sh
        0x08000298:    f000f8cf    ....    BL       __user_setup_stackheap ; 0x800043a
        0x0800029c:    4611        .F      MOV      r1,r2
    .ARM.Collect$$rtentry$$00000009
    .ARM.Collect$$rtentry$$0000000A
    __rt_entry_li
    __rt_entry_postsh_1
        0x0800029e:    f7fffff5    ....    BL       __rt_lib_init ; 0x800028c
    .ARM.Collect$$rtentry$$0000000C
    .ARM.Collect$$rtentry$$0000000D
    __rt_entry_main
    __rt_entry_postli_1
        0x080002a2:    f006fe95    ....    BL       main ; 0x8006fd0
        0x080002a6:    f000f8ed    ....    BL       exit ; 0x8000484
    .ARM.Collect$$rtexit$$00000000
    __rt_exit
        0x080002aa:    b403        ..      PUSH     {r0,r1}
    .ARM.Collect$$rtexit$$00000002
    .ARM.Collect$$rtexit$$00000003
    __rt_exit_ls
    __rt_exit_prels_1
        0x080002ac:    f7fffff2    ....    BL       __rt_lib_shutdown ; 0x8000294
    .ARM.Collect$$rtexit$$00000004
    __rt_exit_exit
        0x080002b0:    bc03        ..      POP      {r0,r1}
        0x080002b2:    f000f8f5    ....    BL       _sys_exit ; 0x80004a0
        0x080002b6:    0000        ..      MOVS     r0,r0
    .text
    $v0
    Reset_Handler
        0x080002b8:    4809        .H      LDR      r0,[pc,#36] ; [0x80002e0] = 0x8005231
        0x080002ba:    4780        .G      BLX      r0
        0x080002bc:    4809        .H      LDR      r0,[pc,#36] ; [0x80002e4] = 0x80001d9
        0x080002be:    4700        .G      BX       r0
        0x080002c0:    e7fe        ..      B        0x80002c0 ; Reset_Handler + 8
        0x080002c2:    e7fe        ..      B        0x80002c2 ; Reset_Handler + 10
        0x080002c4:    e7fe        ..      B        0x80002c4 ; Reset_Handler + 12
        0x080002c6:    e7fe        ..      B        0x80002c6 ; Reset_Handler + 14
        0x080002c8:    e7fe        ..      B        0x80002c8 ; Reset_Handler + 16
        0x080002ca:    e7fe        ..      B        0x80002ca ; Reset_Handler + 18
        0x080002cc:    e7fe        ..      B        0x80002cc ; Reset_Handler + 20
        0x080002ce:    e7fe        ..      B        0x80002ce ; Reset_Handler + 22
        0x080002d0:    e7fe        ..      B        0x80002d0 ; Reset_Handler + 24
    COMP1_2_3_IRQHandler
    COMP4_IRQHandler
    CORDIC_IRQHandler
    CRS_IRQHandler
    DMA1_Channel3_IRQHandler
    DMA1_Channel4_IRQHandler
    DMA1_Channel5_IRQHandler
    DMA1_Channel6_IRQHandler
    DMA2_Channel3_IRQHandler
    DMA2_Channel4_IRQHandler
    DMA2_Channel5_IRQHandler
    DMA2_Channel6_IRQHandler
    DMAMUX_OVR_IRQHandler
    EXTI0_IRQHandler
    EXTI15_10_IRQHandler
    EXTI1_IRQHandler
    EXTI3_IRQHandler
    EXTI4_IRQHandler
    EXTI9_5_IRQHandler
    FDCAN1_IT0_IRQHandler
    FDCAN1_IT1_IRQHandler
    FLASH_IRQHandler
    FMAC_IRQHandler
    FPU_IRQHandler
    I2C1_ER_IRQHandler
    I2C1_EV_IRQHandler
    I2C2_ER_IRQHandler
    I2C2_EV_IRQHandler
    I2C3_ER_IRQHandler
    I2C3_EV_IRQHandler
    LPTIM1_IRQHandler
    LPUART1_IRQHandler
    PVD_PVM_IRQHandler
    RCC_IRQHandler
    RNG_IRQHandler
    RTC_Alarm_IRQHandler
    RTC_TAMP_LSECSS_IRQHandler
    RTC_WKUP_IRQHandler
    SAI1_IRQHandler
    SPI1_IRQHandler
    SPI2_IRQHandler
    SPI3_IRQHandler
    TIM1_BRK_TIM15_IRQHandler
    TIM1_CC_IRQHandler
    TIM1_TRG_COM_TIM17_IRQHandler
    TIM1_UP_TIM16_IRQHandler
    TIM2_IRQHandler
    TIM3_IRQHandler
    TIM4_IRQHandler
    TIM6_DAC_IRQHandler
    TIM7_IRQHandler
    TIM8_BRK_IRQHandler
    TIM8_CC_IRQHandler
    TIM8_TRG_COM_IRQHandler
    TIM8_UP_IRQHandler
    UART4_IRQHandler
    UCPD1_IRQHandler
    USART1_IRQHandler
    USART2_IRQHandler
    USART3_IRQHandler
    USBWakeUp_IRQHandler
    USB_HP_IRQHandler
    WWDG_IRQHandler
        0x080002d2:    e7fe        ..      B        COMP1_2_3_IRQHandler ; 0x80002d2
    __user_initial_stackheap
        0x080002d4:    4804        .H      LDR      r0,[pc,#16] ; [0x80002e8] = 0x20001bd0
        0x080002d6:    4905        .I      LDR      r1,[pc,#20] ; [0x80002ec] = 0x200021d0
        0x080002d8:    4a05        .J      LDR      r2,[pc,#20] ; [0x80002f0] = 0x20001dd0
        0x080002da:    4b06        .K      LDR      r3,[pc,#24] ; [0x80002f4] = 0x20001dd0
        0x080002dc:    4770        pG      BX       lr
    $d
        0x080002de:    0000        ..      DCW    0
        0x080002e0:    08005231    1R..    DCD    134238769
        0x080002e4:    080001d9    ....    DCD    134218201
        0x080002e8:    20001bd0    ...     DCD    536878032
        0x080002ec:    200021d0    .!.     DCD    536879568
        0x080002f0:    20001dd0    ...     DCD    536878544
        0x080002f4:    20001dd0    ...     DCD    536878544
    $t
    .text
    __aeabi_uldivmod
    _ll_udiv
        0x080002f8:    ea530c02    S...    ORRS     r12,r3,r2
        0x080002fc:    f0008069    ..i.    BEQ.W    0x80003d2 ; __aeabi_uldivmod + 218
        0x08000300:    e92d4bf0    -..K    PUSH     {r4-r9,r11,lr}
        0x08000304:    f04f0600    O...    MOV      r6,#0
        0x08000308:    2b00        .+      CMP      r3,#0
        0x0800030a:    bf1f        ..      ITTTT    NE
        0x0800030c:    fab3f583    ....    CLZNE    r5,r3
        0x08000310:    fa03f405    ....    LSLNE    r4,r3,r5
        0x08000314:    fa24f605    $...    LSRNE    r6,r4,r5
        0x08000318:    405e        ^@      EORNE    r6,r6,r3
        0x0800031a:    bf12        ..      ITEE     NE
        0x0800031c:    4316        .C      ORRNE    r6,r6,r2
        0x0800031e:    fab2f582    ....    CLZEQ    r5,r2
        0x08000322:    fa02f405    ....    LSLEQ    r4,r2,r5
        0x08000326:    f1c50520    .. .    RSB      r5,r5,#0x20
        0x0800032a:    bf1e        ..      ITTT     NE
        0x0800032c:    fa22fc05    "...    LSRNE    r12,r2,r5
        0x08000330:    ea44040c    D...    ORRNE    r4,r4,r12
        0x08000334:    3520         5      ADDNE    r5,r5,#0x20
        0x08000336:    ea564c04    V..L    ORRS     r12,r6,r4,LSL #16
        0x0800033a:    ea4f4414    O..D    LSR      r4,r4,#16
        0x0800033e:    bf18        ..      IT       NE
        0x08000340:    1c64        d.      ADDNE    r4,r4,#1
        0x08000342:    f04f0800    O...    MOV      r8,#0
        0x08000346:    f04f0900    O...    MOV      r9,#0
        0x0800034a:    4290        .B      CMP      r0,r2
        0x0800034c:    eb710c03    q...    SBCS     r12,r1,r3
        0x08000350:    d339        9.      BCC      0x80003c6 ; __aeabi_uldivmod + 206
        0x08000352:    2900        .)      CMP      r1,#0
        0x08000354:    bf19        ..      ITTEE    NE
        0x08000356:    fab1f781    ....    CLZNE    r7,r1
        0x0800035a:    fa01f607    ....    LSLNE    r6,r1,r7
        0x0800035e:    fab0f780    ....    CLZEQ    r7,r0
        0x08000362:    fa00f607    ....    LSLEQ    r6,r0,r7
        0x08000366:    f1c70720    .. .    RSB      r7,r7,#0x20
        0x0800036a:    bf1e        ..      ITTT     NE
        0x0800036c:    fa20fc07     ...    LSRNE    r12,r0,r7
        0x08000370:    ea46060c    F...    ORRNE    r6,r6,r12
        0x08000374:    3720         7      ADDNE    r7,r7,#0x20
        0x08000376:    fbb6fcf4    ....    UDIV     r12,r6,r4
        0x0800037a:    eba70705    ....    SUB      r7,r7,r5
        0x0800037e:    3f10        .?      SUBS     r7,r7,#0x10
        0x08000380:    f0070b1f    ....    AND      r11,r7,#0x1f
        0x08000384:    f1cb0620    .. .    RSB      r6,r11,#0x20
        0x08000388:    fa0cfb0b    ....    LSL      r11,r12,r11
        0x0800038c:    fa2cf606    ,...    LSR      r6,r12,r6
        0x08000390:    bf44        D.      ITT      MI
        0x08000392:    46b3        .F      MOVMI    r11,r6
        0x08000394:    2600        .&      MOVMI    r6,#0
        0x08000396:    2f20         /      CMP      r7,#0x20
        0x08000398:    bfa4        ..      ITT      GE
        0x0800039a:    465e        ^F      MOVGE    r6,r11
        0x0800039c:    f04f0b00    O...    MOVGE    r11,#0
        0x080003a0:    ea5b0c06    [...    ORRS     r12,r11,r6
        0x080003a4:    bf08        ..      IT       EQ
        0x080003a6:    f04f0b01    O...    MOVEQ    r11,#1
        0x080003aa:    eb19090b    ....    ADDS     r9,r9,r11
        0x080003ae:    fbab7c02    ...|    UMULL    r7,r12,r11,r2
        0x080003b2:    eb480806    H...    ADC      r8,r8,r6
        0x080003b6:    1bc0        ..      SUBS     r0,r0,r7
        0x080003b8:    fb06cc02    ....    MLA      r12,r6,r2,r12
        0x080003bc:    fb0bcc03    ....    MLA      r12,r11,r3,r12
        0x080003c0:    eb71010c    q...    SBCS     r1,r1,r12
        0x080003c4:    e7c1        ..      B        0x800034a ; __aeabi_uldivmod + 82
        0x080003c6:    460b        .F      MOV      r3,r1
        0x080003c8:    4602        .F      MOV      r2,r0
        0x080003ca:    4641        AF      MOV      r1,r8
        0x080003cc:    4648        HF      MOV      r0,r9
        0x080003ce:    e8bd8bf0    ....    POP      {r4-r9,r11,pc}
        0x080003d2:    b513        ..      PUSH     {r0,r1,r4,lr}
        0x080003d4:    f04f0000    O...    MOV      r0,#0
        0x080003d8:    f04f0100    O...    MOV      r1,#0
        0x080003dc:    f3af8000    ....    NOP.W    
        0x080003e0:    e8bd401c    ...@    POP      {r2-r4,lr}
        0x080003e4:    4770        pG      BX       lr
    .text
    __aeabi_memclr4
    __aeabi_memclr8
    __rt_memclr_w
        0x080003e6:    f04f0200    O...    MOV      r2,#0
    _memset_w
        0x080003ea:    b500        ..      PUSH     {lr}
        0x080003ec:    4613        .F      MOV      r3,r2
        0x080003ee:    4694        .F      MOV      r12,r2
        0x080003f0:    4696        .F      MOV      lr,r2
        0x080003f2:    3920         9      SUBS     r1,r1,#0x20
        0x080003f4:    bf22        ".      ITTT     CS
        0x080003f6:    e8a0500c    ...P    STMCS    r0!,{r2,r3,r12,lr}
        0x080003fa:    e8a0500c    ...P    STMCS    r0!,{r2,r3,r12,lr}
        0x080003fe:    f1b10120    .. .    SUBSCS   r1,r1,#0x20
        0x08000402:    f4bfaff7    ....    BCS.W    0x80003f4 ; _memset_w + 10
        0x08000406:    0709        ..      LSLS     r1,r1,#28
        0x08000408:    bf28        (.      IT       CS
        0x0800040a:    e8a0500c    ...P    STMCS    r0!,{r2,r3,r12,lr}
        0x0800040e:    bf48        H.      IT       MI
        0x08000410:    c00c        ..      STMMI    r0!,{r2,r3}
        0x08000412:    f85deb04    ]...    POP      {lr}
        0x08000416:    0089        ..      LSLS     r1,r1,#2
        0x08000418:    bf28        (.      IT       CS
        0x0800041a:    f8402b04    @..+    STRCS    r2,[r0],#4
        0x0800041e:    bf08        ..      IT       EQ
        0x08000420:    4770        pG      BXEQ     lr
        0x08000422:    bf48        H.      IT       MI
        0x08000424:    f8202b02     ..+    STRHMI   r2,[r0],#2
        0x08000428:    f0114f80    ...O    TST      r1,#0x40000000
        0x0800042c:    bf18        ..      IT       NE
        0x0800042e:    f8002b01    ...+    STRBNE   r2,[r0],#1
        0x08000432:    4770        pG      BX       lr
    .text
    __use_two_region_memory
        0x08000434:    4770        pG      BX       lr
    __rt_heap_escrow$2region
        0x08000436:    4770        pG      BX       lr
    __rt_heap_expand$2region
        0x08000438:    4770        pG      BX       lr
    .text
    __user_setup_stackheap
        0x0800043a:    4675        uF      MOV      r5,lr
        0x0800043c:    f000f82c    ..,.    BL       __user_libspace ; 0x8000498
        0x08000440:    46ae        .F      MOV      lr,r5
        0x08000442:    0005        ..      MOVS     r5,r0
        0x08000444:    4669        iF      MOV      r1,sp
        0x08000446:    4653        SF      MOV      r3,r10
        0x08000448:    f0200007     ...    BIC      r0,r0,#7
        0x0800044c:    4685        .F      MOV      sp,r0
        0x0800044e:    b018        ..      ADD      sp,sp,#0x60
        0x08000450:    b520         .      PUSH     {r5,lr}
        0x08000452:    f7ffff3f    ..?.    BL       __user_initial_stackheap ; 0x80002d4
        0x08000456:    e8bd4020    .. @    POP      {r5,lr}
        0x0800045a:    f04f0600    O...    MOV      r6,#0
        0x0800045e:    f04f0700    O...    MOV      r7,#0
        0x08000462:    f04f0800    O...    MOV      r8,#0
        0x08000466:    f04f0b00    O...    MOV      r11,#0
        0x0800046a:    f0210107    !...    BIC      r1,r1,#7
        0x0800046e:    46ac        .F      MOV      r12,r5
        0x08000470:    e8ac09c0    ....    STM      r12!,{r6-r8,r11}
        0x08000474:    e8ac09c0    ....    STM      r12!,{r6-r8,r11}
        0x08000478:    e8ac09c0    ....    STM      r12!,{r6-r8,r11}
        0x0800047c:    e8ac09c0    ....    STM      r12!,{r6-r8,r11}
        0x08000480:    468d        .F      MOV      sp,r1
        0x08000482:    4770        pG      BX       lr
    .text
    exit
        0x08000484:    b510        ..      PUSH     {r4,lr}
        0x08000486:    4604        .F      MOV      r4,r0
        0x08000488:    f3af8000    ....    NOP.W    
        0x0800048c:    4620         F      MOV      r0,r4
        0x0800048e:    e8bd4010    ...@    POP      {r4,lr}
        0x08000492:    f7ffbf0a    ....    B.W      __rt_exit ; 0x80002aa
        0x08000496:    0000        ..      MOVS     r0,r0
    .text
    __user_libspace
    __user_perproc_libspace
    __user_perthread_libspace
        0x08000498:    4800        .H      LDR      r0,[pc,#0] ; [0x800049c] = 0x20001b6c
        0x0800049a:    4770        pG      BX       lr
    $d
        0x0800049c:    20001b6c    l..     DCD    536877932
    $t
    .text
    _sys_exit
        0x080004a0:    4901        .I      LDR      r1,[pc,#4] ; [0x80004a8] = 0x20026
        0x080004a2:    2018        .       MOVS     r0,#0x18
        0x080004a4:    beab        ..      BKPT     #0xab
        0x080004a6:    e7fe        ..      B        0x80004a6 ; _sys_exit + 6
    $d
        0x080004a8:    00020026    &...    DCD    131110
    $t
    .text
    __I$use$semihosting
    __use_no_semihosting_swi
        0x080004ac:    4770        pG      BX       lr
    i.ADC1_2_IRQHandler
    .text
    ADC1_2_IRQHandler
    __semihosting_library_function
        0x080004ae:    f04f40a0    O..@    MOV      r0,#0x50000000
        0x080004b2:    6801        .h      LDR      r1,[r0,#0]
        0x080004b4:    f0110f40    ..@.    TST      r1,#0x40
        0x080004b8:    bf1a        ..      ITTE     NE
        0x080004ba:    f8d01100    ....    LDRNE    r1,[r0,#0x100]
        0x080004be:    f0110f40    ..@.    TSTNE    r1,#0x40
        0x080004c2:    4770        pG      BXEQ     lr
        0x080004c4:    2140        @!      MOVS     r1,#0x40
        0x080004c6:    6001        .`      STR      r1,[r0,#0]
        0x080004c8:    f8c01100    ....    STR      r1,[r0,#0x100]
        0x080004cc:    f004bade    ....    B.W      PerformanceCriticalTask ; 0x8004a8c
    i.Abc_AlphaBeta_Trans
    Abc_AlphaBeta_Trans
        0x080004d0:    ed900a00    ....    VLDR     s0,[r0,#0]
        0x080004d4:    ed901a01    ....    VLDR     s2,[r0,#4]
        0x080004d8:    eef01a00    ....    VMOV.F32 s3,#2.00000000
        0x080004dc:    eef00a40    ..@.    VMOV.F32 s1,s0
        0x080004e0:    ee410a21    A.!.    VMLA.F32 s1,s2,s3
        0x080004e4:    ed9f1a02    ....    VLDR     s2,[pc,#8] ; [0x80004f0] = 0x3f13cd3a
        0x080004e8:    ee600a81    `...    VMUL.F32 s1,s1,s2
        0x080004ec:    4770        pG      BX       lr
    $d
        0x080004ee:    0000        ..      DCW    0
        0x080004f0:    3f13cd3a    :..?    DCD    1058262330
    $t
    i.AbsEncoderCalculateRealEleAngle
    AbsEncoderCalculateRealEleAngle
        0x080004f4:    b510        ..      PUSH     {r4,lr}
        0x080004f6:    4604        .F      MOV      r4,r0
        0x080004f8:    f001fef6    ....    BL       Hardware_GetAbsCounter ; 0x80022e8
        0x080004fc:    ee000a10    ....    VMOV     s0,r0
        0x08000500:    eddf0a12    ....    VLDR     s1,[pc,#72] ; [0x800054c] = 0x434d0000
        0x08000504:    4913        .I      LDR      r1,[pc,#76] ; [0x8000554] = 0x40490fdb
        0x08000506:    eeb80a40    ..@.    VCVT.F32.U32 s0,s0
        0x0800050a:    ee300a60    0.`.    VSUB.F32 s0,s0,s1
        0x0800050e:    ee801a20    .. .    VDIV.F32 s2,s0,s1
        0x08000512:    ed9f0a0f    ....    VLDR     s0,[pc,#60] ; [0x8000550] = 0x40490fdb
        0x08000516:    edd40a01    ....    VLDR     s1,[r4,#4]
        0x0800051a:    ee210a00    !...    VMUL.F32 s0,s2,s0
        0x0800051e:    ee300a80    0...    VADD.F32 s0,s1,s0
        0x08000522:    ee100a10    ....    VMOV     r0,s0
        0x08000526:    4288        .B      CMP      r0,r1
        0x08000528:    bfc8        ..      IT       GT
        0x0800052a:    eddf0a0b    ....    VLDRGT   s1,[pc,#44] ; [0x8000558] = 0xc0c90fdb
        0x0800052e:    dc07        ..      BGT      0x8000540 ; AbsEncoderCalculateRealEleAngle + 76
        0x08000530:    ee100a10    ....    VMOV     r0,s0
        0x08000534:    4909        .I      LDR      r1,[pc,#36] ; [0x800055c] = 0xc0490fdb
        0x08000536:    4288        .B      CMP      r0,r1
        0x08000538:    bf88        ..      IT       HI
        0x0800053a:    eddf0a09    ....    VLDRHI   s1,[pc,#36] ; [0x8000560] = 0x40c90fdb
        0x0800053e:    d901        ..      BLS      0x8000544 ; AbsEncoderCalculateRealEleAngle + 80
        0x08000540:    ee300a20    0. .    VADD.F32 s0,s0,s1
        0x08000544:    eeb10a40    ..@.    VNEG.F32 s0,s0
        0x08000548:    bd10        ..      POP      {r4,pc}
    $d
        0x0800054a:    0000        ..      DCW    0
        0x0800054c:    434d0000    ..MC    DCD    1129119744
        0x08000550:    40490fdb    ..I@    DCD    1078530011
        0x08000554:    40490fdb    ..I@    DCD    1078530011
        0x08000558:    c0c90fdb    ....    DCD    3234402267
        0x0800055c:    c0490fdb    ..I.    DCD    3226013659
        0x08000560:    40c90fdb    ...@    DCD    1086918619
    $t
    i.AlphaBeta_Dq_Trans
    AlphaBeta_Dq_Trans
        0x08000564:    edd10a01    ....    VLDR     s1,[r1,#4]
        0x08000568:    ed901a00    ....    VLDR     s2,[r0,#0]
        0x0800056c:    ed902a01    ...*    VLDR     s4,[r0,#4]
        0x08000570:    edd11a00    ....    VLDR     s3,[r1,#0]
        0x08000574:    ee200a81     ...    VMUL.F32 s0,s1,s2
        0x08000578:    ee600a82    `...    VMUL.F32 s1,s1,s4
        0x0800057c:    ee010a82    ....    VMLA.F32 s0,s3,s4
        0x08000580:    ee410ac1    A...    VMLS.F32 s1,s3,s2
        0x08000584:    4770        pG      BX       lr
    i.BPF_2stOrder_1in_1out_Calculate
    BPF_2stOrder_1in_1out_Calculate
        0x08000586:    eef00a40    ..@.    VMOV.F32 s1,s0
        0x0800058a:    ed900a00    ....    VLDR     s0,[r0,#0]
        0x0800058e:    ed901a04    ....    VLDR     s2,[r0,#0x10]
        0x08000592:    edd01a01    ....    VLDR     s3,[r0,#4]
        0x08000596:    ed902a05    ...*    VLDR     s4,[r0,#0x14]
        0x0800059a:    ee200a01     ...    VMUL.F32 s0,s0,s2
        0x0800059e:    ee010a82    ....    VMLA.F32 s0,s3,s4
        0x080005a2:    edd01a02    ....    VLDR     s3,[r0,#8]
        0x080005a6:    ed902a06    ...*    VLDR     s4,[r0,#0x18]
        0x080005aa:    ee010aa0    ....    VMLA.F32 s0,s3,s1
        0x080005ae:    edd01a03    ....    VLDR     s3,[r0,#0xc]
        0x080005b2:    ed801a05    ....    VSTR     s2,[r0,#0x14]
        0x080005b6:    ee010a82    ....    VMLA.F32 s0,s3,s4
        0x080005ba:    ed800a04    ....    VSTR     s0,[r0,#0x10]
        0x080005be:    edc00a06    ....    VSTR     s1,[r0,#0x18]
        0x080005c2:    4770        pG      BX       lr
    i.BPF_2stOrder_1in_1out_SetPar
    BPF_2stOrder_1in_1out_SetPar
        0x080005c4:    ec800a04    ....    VSTM     r0,{s0-s3}
        0x080005c8:    ed9f0a04    ....    VLDR     s0,[pc,#16] ; [0x80005dc] = 0
        0x080005cc:    ed800a06    ....    VSTR     s0,[r0,#0x18]
        0x080005d0:    ed800a05    ....    VSTR     s0,[r0,#0x14]
        0x080005d4:    ed800a04    ....    VSTR     s0,[r0,#0x10]
        0x080005d8:    4770        pG      BX       lr
    $d
        0x080005da:    0000        ..      DCW    0
        0x080005dc:    00000000    ....    DCD    0
    $t
    i.BusFault_Handler
    BusFault_Handler
        0x080005e0:    e7fe        ..      B        BusFault_Handler ; 0x80005e0
    i.CDC_Control_FS
    CDC_Control_FS
        0x080005e2:    2000        .       MOVS     r0,#0
        0x080005e4:    4770        pG      BX       lr
    i.CDC_DeInit_FS
    CDC_DeInit_FS
        0x080005e6:    2000        .       MOVS     r0,#0
        0x080005e8:    4770        pG      BX       lr
        0x080005ea:    0000        ..      MOVS     r0,r0
    i.CDC_Init_FS
    CDC_Init_FS
        0x080005ec:    b510        ..      PUSH     {r4,lr}
        0x080005ee:    2200        ."      MOVS     r2,#0
        0x080005f0:    4904        .I      LDR      r1,[pc,#16] ; [0x8000604] = 0x20001784
        0x080005f2:    4805        .H      LDR      r0,[pc,#20] ; [0x8000608] = 0x200012a8
        0x080005f4:    f004ffe5    ....    BL       USBD_CDC_SetTxBuffer ; 0x80055c2
        0x080005f8:    4904        .I      LDR      r1,[pc,#16] ; [0x800060c] = 0x20001778
        0x080005fa:    4803        .H      LDR      r0,[pc,#12] ; [0x8000608] = 0x200012a8
        0x080005fc:    f004ffd8    ....    BL       USBD_CDC_SetRxBuffer ; 0x80055b0
        0x08000600:    2000        .       MOVS     r0,#0
        0x08000602:    bd10        ..      POP      {r4,pc}
    $d
        0x08000604:    20001784    ...     DCD    536876932
        0x08000608:    200012a8    ...     DCD    536875688
        0x0800060c:    20001778    x..     DCD    536876920
    $t
    i.CDC_Receive_FS
    CDC_Receive_FS
        0x08000610:    b510        ..      PUSH     {r4,lr}
        0x08000612:    4601        .F      MOV      r1,r0
        0x08000614:    4803        .H      LDR      r0,[pc,#12] ; [0x8000624] = 0x200012a8
        0x08000616:    f004ffcb    ....    BL       USBD_CDC_SetRxBuffer ; 0x80055b0
        0x0800061a:    4802        .H      LDR      r0,[pc,#8] ; [0x8000624] = 0x200012a8
        0x0800061c:    f004ff66    ..f.    BL       USBD_CDC_ReceivePacket ; 0x80054ec
        0x08000620:    2000        .       MOVS     r0,#0
        0x08000622:    bd10        ..      POP      {r4,pc}
    $d
        0x08000624:    200012a8    ...     DCD    536875688
    $t
    i.CDC_TransmitCplt_FS
    CDC_TransmitCplt_FS
        0x08000628:    2000        .       MOVS     r0,#0
        0x0800062a:    4770        pG      BX       lr
    i.CDC_Transmit_FS
    CDC_Transmit_FS
        0x0800062c:    460a        .F      MOV      r2,r1
        0x0800062e:    4909        .I      LDR      r1,[pc,#36] ; [0x8000654] = 0x200012a8
        0x08000630:    b510        ..      PUSH     {r4,lr}
        0x08000632:    f8d112bc    ....    LDR      r1,[r1,#0x2bc]
        0x08000636:    f8d11214    ....    LDR      r1,[r1,#0x214]
        0x0800063a:    2900        .)      CMP      r1,#0
        0x0800063c:    bf1c        ..      ITT      NE
        0x0800063e:    2001        .       MOVNE    r0,#1
        0x08000640:    bd10        ..      POPNE    {r4,pc}
        0x08000642:    4601        .F      MOV      r1,r0
        0x08000644:    4803        .H      LDR      r0,[pc,#12] ; [0x8000654] = 0x200012a8
        0x08000646:    f004ffbc    ....    BL       USBD_CDC_SetTxBuffer ; 0x80055c2
        0x0800064a:    e8bd4010    ...@    POP      {r4,lr}
        0x0800064e:    4801        .H      LDR      r0,[pc,#4] ; [0x8000654] = 0x200012a8
        0x08000650:    f005b82a    ..*.    B.W      USBD_CDC_TransmitPacket ; 0x80056a8
    $d
        0x08000654:    200012a8    ...     DCD    536875688
    $t
    i.CalculateSinCosValue
    CalculateSinCosValue
        0x08000658:    f001beda    ....    B.W      Hardware_GetSinCosVal ; 0x8002410
    i.DMA1_Channel1_IRQHandler
    DMA1_Channel1_IRQHandler
        0x0800065c:    4770        pG      BX       lr
    i.DMA1_Channel2_IRQHandler
    DMA1_Channel2_IRQHandler
        0x0800065e:    4770        pG      BX       lr
    i.DMA2_Channel1_IRQHandler
    DMA2_Channel1_IRQHandler
        0x08000660:    4770        pG      BX       lr
    i.DMA2_Channel2_IRQHandler
    DMA2_Channel2_IRQHandler
        0x08000662:    4770        pG      BX       lr
    i.DebugMon_Handler
    DebugMon_Handler
        0x08000664:    4770        pG      BX       lr
    i.Dq_AlphaBeta_Trans
    Dq_AlphaBeta_Trans
        0x08000666:    edd11a01    ....    VLDR     s3,[r1,#4]
        0x0800066a:    edd00a00    ....    VLDR     s1,[r0,#0]
        0x0800066e:    ed912a00    ...*    VLDR     s4,[r1,#0]
        0x08000672:    ed901a01    ....    VLDR     s2,[r0,#4]
        0x08000676:    ee210aa0    !...    VMUL.F32 s0,s3,s1
        0x0800067a:    ee620a20    b. .    VMUL.F32 s1,s4,s1
        0x0800067e:    ee020a41    ..A.    VMLS.F32 s0,s4,s2
        0x08000682:    ee410a81    A...    VMLA.F32 s1,s3,s2
        0x08000686:    4770        pG      BX       lr
    i.EXTI2_IRQHandler
    EXTI2_IRQHandler
        0x08000688:    480e        .H      LDR      r0,[pc,#56] ; [0x80006c4] = 0x40010414
        0x0800068a:    6801        .h      LDR      r1,[r0,#0]
        0x0800068c:    f0110f04    ....    TST      r1,#4
        0x08000690:    bf08        ..      IT       EQ
        0x08000692:    4770        pG      BXEQ     lr
        0x08000694:    b510        ..      PUSH     {r4,lr}
        0x08000696:    2104        .!      MOVS     r1,#4
        0x08000698:    6001        .`      STR      r1,[r0,#0]
        0x0800069a:    4c0b        .L      LDR      r4,[pc,#44] ; [0x80006c8] = 0x20000094
        0x0800069c:    6820         h      LDR      r0,[r4,#0]
        0x0800069e:    7801        .x      LDRB     r1,[r0,#0]
        0x080006a0:    2900        .)      CMP      r1,#0
        0x080006a2:    bf08        ..      IT       EQ
        0x080006a4:    bd10        ..      POPEQ    {r4,pc}
        0x080006a6:    7841        Ax      LDRB     r1,[r0,#1]
        0x080006a8:    b121        !.      CBZ      r1,0x80006b4 ; EXTI2_IRQHandler + 44
        0x080006aa:    6940        @i      LDR      r0,[r0,#0x14]
        0x080006ac:    e8bd4010    ...@    POP      {r4,lr}
        0x080006b0:    f001bfce    ....    B.W      Hardware_SetABZCounter ; 0x8002650
        0x080006b4:    2101        .!      MOVS     r1,#1
        0x080006b6:    7041        Ap      STRB     r1,[r0,#1]
        0x080006b8:    f001fe10    ....    BL       Hardware_GetABZCounter ; 0x80022dc
        0x080006bc:    6821        !h      LDR      r1,[r4,#0]
        0x080006be:    6148        Ha      STR      r0,[r1,#0x14]
        0x080006c0:    bd10        ..      POP      {r4,pc}
    $d
        0x080006c2:    0000        ..      DCW    0
        0x080006c4:    40010414    ...@    DCD    1073808404
        0x080006c8:    20000094    ...     DCD    536871060
    $t
    i.Error_Handler
    Error_Handler
        0x080006cc:    b672        r.      CPSID    i
        0x080006ce:    e7fe        ..      B        0x80006ce ; Error_Handler + 2
    i.FOC_Method_HFPI_WithoutNS
    FOC_Method_HFPI_WithoutNS
        0x080006d0:    e92d4ff0    -..O    PUSH     {r4-r11,lr}
        0x080006d4:    4d77        wM      LDR      r5,[pc,#476] ; [0x80008b4] = 0x20000060
        0x080006d6:    f8df81e0    ....    LDR      r8,[pc,#480] ; [0x80008b8] = 0x200000a4
        0x080006da:    4c78        xL      LDR      r4,[pc,#480] ; [0x80008bc] = 0x20000098
        0x080006dc:    4e78        xN      LDR      r6,[pc,#480] ; [0x80008c0] = 0x2000008c
        0x080006de:    f8dfb1e4    ....    LDR      r11,[pc,#484] ; [0x80008c4] = 0x200000ac
        0x080006e2:    4f79        yO      LDR      r7,[pc,#484] ; [0x80008c8] = 0x200000a8
        0x080006e4:    f04f0a00    O...    MOV      r10,#0
        0x080006e8:    ed2d8b02    -...    VPUSH    {d8}
        0x080006ec:    b083        ..      SUB      sp,sp,#0xc
        0x080006ee:    6828        (h      LDR      r0,[r5,#0]
        0x080006f0:    7c41        A|      LDRB     r1,[r0,#0x11]
        0x080006f2:    2900        .)      CMP      r1,#0
        0x080006f4:    d057        W.      BEQ      0x80007a6 ; FOC_Method_HFPI_WithoutNS + 214
        0x080006f6:    2901        .)      CMP      r1,#1
        0x080006f8:    d07d        }.      BEQ      0x80007f6 ; FOC_Method_HFPI_WithoutNS + 294
        0x080006fa:    2902        .)      CMP      r1,#2
        0x080006fc:    bf1e        ..      ITTT     NE
        0x080006fe:    b003        ..      ADDNE    sp,sp,#0xc
        0x08000700:    ecbd8b02    ....    VPOPNE   {d8}
        0x08000704:    e8bd8ff0    ....    POPNE    {r4-r11,pc}
        0x08000708:    f8df91c0    ....    LDR      r9,[pc,#448] ; [0x80008cc] = 0x20000064
        0x0800070c:    f8d90000    ....    LDR      r0,[r9,#0]
        0x08000710:    f7fffef0    ....    BL       AbsEncoderCalculateRealEleAngle ; 0x80004f4
        0x08000714:    f8d90000    ....    LDR      r0,[r9,#0]
        0x08000718:    f8df91b4    ....    LDR      r9,[pc,#436] ; [0x80008d0] = 0x2000009c
        0x0800071c:    ed800a02    ....    VSTR     s0,[r0,#8]
        0x08000720:    f8d90000    ....    LDR      r0,[r9,#0]
        0x08000724:    ed900a0c    ....    VLDR     s0,[r0,#0x30]
        0x08000728:    f001fe72    ..r.    BL       Hardware_GetSinCosVal ; 0x8002410
        0x0800072c:    6820         h      LDR      r0,[r4,#0]
        0x0800072e:    ed800a09    ....    VSTR     s0,[r0,#0x24]
        0x08000732:    edc00a0a    ....    VSTR     s1,[r0,#0x28]
        0x08000736:    f8d91000    ....    LDR      r1,[r9,#0]
        0x0800073a:    f001fbdb    ....    BL       HFPISensorlessObserver ; 0x8001ef4
        0x0800073e:    6820         h      LDR      r0,[r4,#0]
        0x08000740:    eef00a40    ..@.    VMOV.F32 s1,s0
        0x08000744:    ed900a11    ....    VLDR     s0,[r0,#0x44]
        0x08000748:    eef01a60    ..`.    VMOV.F32 s3,s1
        0x0800074c:    f8d80000    ....    LDR      r0,[r8,#0]
        0x08000750:    f002f816    ....    BL       IdCurrentPIController ; 0x8002780
        0x08000754:    6820         h      LDR      r0,[r4,#0]
        0x08000756:    eeb01a40    ..@.    VMOV.F32 s2,s0
        0x0800075a:    ed900a12    ....    VLDR     s0,[r0,#0x48]
        0x0800075e:    eeb02a41    ..A*    VMOV.F32 s4,s2
        0x08000762:    6838        8h      LDR      r0,[r7,#0]
        0x08000764:    f002f914    ....    BL       IqCurrentPIController ; 0x8002990
        0x08000768:    ee720a21    r.!.    VADD.F32 s1,s4,s3
        0x0800076c:    6830        0h      LDR      r0,[r6,#0]
        0x0800076e:    edc00a02    ....    VSTR     s1,[r0,#8]
        0x08000772:    ed800a03    ....    VSTR     s0,[r0,#0xc]
        0x08000776:    6828        (h      LDR      r0,[r5,#0]
        0x08000778:    6841        Ah      LDR      r1,[r0,#4]
        0x0800077a:    1c49        I.      ADDS     r1,r1,#1
        0x0800077c:    6041        A`      STR      r1,[r0,#4]
        0x0800077e:    290a        .)      CMP      r1,#0xa
        0x08000780:    d10c        ..      BNE      0x800079c ; FOC_Method_HFPI_WithoutNS + 204
        0x08000782:    f8c0a004    ....    STR      r10,[r0,#4]
        0x08000786:    f8d90000    ....    LDR      r0,[r9,#0]
        0x0800078a:    ed900a0d    ....    VLDR     s0,[r0,#0x34]
        0x0800078e:    f8db0000    ....    LDR      r0,[r11,#0]
        0x08000792:    f004fc73    ..s.    BL       SpeedPIController ; 0x800507c
        0x08000796:    6838        8h      LDR      r0,[r7,#0]
        0x08000798:    ed800a00    ....    VSTR     s0,[r0,#0]
        0x0800079c:    b003        ..      ADD      sp,sp,#0xc
        0x0800079e:    ecbd8b02    ....    VPOP     {d8}
        0x080007a2:    e8bd8ff0    ....    POP      {r4-r11,pc}
        0x080007a6:    6841        Ah      LDR      r1,[r0,#4]
        0x080007a8:    1c4a        J.      ADDS     r2,r1,#1
        0x080007aa:    ed9f8a4a    ..J.    VLDR     s16,[pc,#296] ; [0x80008d4] = 0
        0x080007ae:    6042        B`      STR      r2,[r0,#4]
        0x080007b0:    f5b16ffa    ...o    CMP      r1,#0x7d0
        0x080007b4:    d23b        ;.      BCS      0x800082e ; FOC_Method_HFPI_WithoutNS + 350
        0x080007b6:    4848        HH      LDR      r0,[pc,#288] ; [0x80008d8] = 0x200000b8
        0x080007b8:    6800        .h      LDR      r0,[r0,#0]
        0x080007ba:    ed900a03    ....    VLDR     s0,[r0,#0xc]
        0x080007be:    f8d80000    ....    LDR      r0,[r8,#0]
        0x080007c2:    ed800a00    ....    VSTR     s0,[r0,#0]
        0x080007c6:    6838        8h      LDR      r0,[r7,#0]
        0x080007c8:    eeb00a48    ..H.    VMOV.F32 s0,s16
        0x080007cc:    ed800a00    ....    VSTR     s0,[r0,#0]
        0x080007d0:    f001fe1e    ....    BL       Hardware_GetSinCosVal ; 0x8002410
        0x080007d4:    6820         h      LDR      r0,[r4,#0]
        0x080007d6:    ed800a09    ....    VSTR     s0,[r0,#0x24]
        0x080007da:    edc00a0a    ....    VSTR     s1,[r0,#0x28]
        0x080007de:    303c        <0      ADDS     r0,r0,#0x3c
        0x080007e0:    f7fffe76    ..v.    BL       Abc_AlphaBeta_Trans ; 0x80004d0
        0x080007e4:    ed8d0a00    ....    VSTR     s0,[sp,#0]
        0x080007e8:    edcd0a01    ....    VSTR     s1,[sp,#4]
        0x080007ec:    6820         h      LDR      r0,[r4,#0]
        0x080007ee:    f1000124    ..$.    ADD      r1,r0,#0x24
        0x080007f2:    4668        hF      MOV      r0,sp
        0x080007f4:    e000        ..      B        0x80007f8 ; FOC_Method_HFPI_WithoutNS + 296
        0x080007f6:    e051        Q.      B        0x800089c ; FOC_Method_HFPI_WithoutNS + 460
        0x080007f8:    f7fffeb4    ....    BL       AlphaBeta_Dq_Trans ; 0x8000564
        0x080007fc:    6820         h      LDR      r0,[r4,#0]
        0x080007fe:    ed800a11    ....    VSTR     s0,[r0,#0x44]
        0x08000802:    edc00a12    ....    VSTR     s1,[r0,#0x48]
        0x08000806:    f8d80000    ....    LDR      r0,[r8,#0]
        0x0800080a:    f001ffb9    ....    BL       IdCurrentPIController ; 0x8002780
        0x0800080e:    6820         h      LDR      r0,[r4,#0]
        0x08000810:    eef00a40    ..@.    VMOV.F32 s1,s0
        0x08000814:    ed900a12    ....    VLDR     s0,[r0,#0x48]
        0x08000818:    eef01a60    ..`.    VMOV.F32 s3,s1
        0x0800081c:    6838        8h      LDR      r0,[r7,#0]
        0x0800081e:    f002f8b7    ....    BL       IqCurrentPIController ; 0x8002990
        0x08000822:    6830        0h      LDR      r0,[r6,#0]
        0x08000824:    edc01a02    ....    VSTR     s3,[r0,#8]
        0x08000828:    ed800a03    ....    VSTR     s0,[r0,#0xc]
        0x0800082c:    e7b6        ..      B        0x800079c ; FOC_Method_HFPI_WithoutNS + 204
        0x0800082e:    eddf1a2b    ..+.    VLDR     s3,[pc,#172] ; [0x80008dc] = 0x3be5b424
        0x08000832:    ed9f1a2b    ..+.    VLDR     s2,[pc,#172] ; [0x80008e0] = 0x3bf3ba77
        0x08000836:    eddf0a2b    ..+.    VLDR     s1,[pc,#172] ; [0x80008e4] = 0xbf5652bd
        0x0800083a:    ed9f0a2b    ..+.    VLDR     s0,[pc,#172] ; [0x80008e8] = 0x3fe95810
        0x0800083e:    f001fc41    ..A.    BL       HFPI_LPF_2stOrder_1in_1out_SetPar ; 0x80020c4
        0x08000842:    eddf1a2a    ..*.    VLDR     s3,[pc,#168] ; [0x80008ec] = 0xbcfaacda
        0x08000846:    ed9f1a2a    ..*.    VLDR     s2,[pc,#168] ; [0x80008f0] = 0x3cfaacda
        0x0800084a:    eddf0a2a    ..*.    VLDR     s1,[pc,#168] ; [0x80008f4] = 0xbf7816f0
        0x0800084e:    ed9f0a2a    ..*.    VLDR     s0,[pc,#168] ; [0x80008f8] = 0x3ff41893
        0x08000852:    f001fc0f    ....    BL       HFPI_BPF0_2stOrder_1in_1out_SetPar ; 0x8002074
        0x08000856:    eddf1a29    ..).    VLDR     s3,[pc,#164] ; [0x80008fc] = 0xbe5a1cac
        0x0800085a:    ed9f1a29    ..).    VLDR     s2,[pc,#164] ; [0x8000900] = 0x3e5a1cac
        0x0800085e:    eddf0a29    ..).    VLDR     s1,[pc,#164] ; [0x8000904] = 0xbf471de7
        0x08000862:    ed9f0a29    ..).    VLDR     s0,[pc,#164] ; [0x8000908] = 0x3fc78d50
        0x08000866:    f001fc27    ..'.    BL       HFPI_BPF1_2stOrder_1in_1out_SetPar ; 0x80020b8
        0x0800086a:    f8d80000    ....    LDR      r0,[r8,#0]
        0x0800086e:    eeb00a00    ....    VMOV.F32 s0,#2.00000000
        0x08000872:    ed800a00    ....    VSTR     s0,[r0,#0]
        0x08000876:    6830        0h      LDR      r0,[r6,#0]
        0x08000878:    ed9f0a24    ..$.    VLDR     s0,[pc,#144] ; [0x800090c] = 0x41fb53d2
        0x0800087c:    ed808a03    ....    VSTR     s16,[r0,#0xc]
        0x08000880:    ed808a02    ....    VSTR     s16,[r0,#8]
        0x08000884:    f8db0000    ....    LDR      r0,[r11,#0]
        0x08000888:    ed800a00    ....    VSTR     s0,[r0,#0]
        0x0800088c:    f008f848    ..H.    BL       reset_CurrentPICHandler ; 0x8008920
        0x08000890:    6828        (h      LDR      r0,[r5,#0]
        0x08000892:    2101        .!      MOVS     r1,#1
        0x08000894:    f8c0a004    ....    STR      r10,[r0,#4]
        0x08000898:    7441        At      STRB     r1,[r0,#0x11]
        0x0800089a:    e77f        ..      B        0x800079c ; FOC_Method_HFPI_WithoutNS + 204
        0x0800089c:    6841        Ah      LDR      r1,[r0,#4]
        0x0800089e:    1c4a        J.      ADDS     r2,r1,#1
        0x080008a0:    6042        B`      STR      r2,[r0,#4]
        0x080008a2:    f5b17f7a    ..z.    CMP      r1,#0x3e8
        0x080008a6:    bf84        ..      ITT      HI
        0x080008a8:    f8c0a004    ....    STRHI    r10,[r0,#4]
        0x080008ac:    2102        .!      MOVHI    r1,#2
        0x080008ae:    d8f3        ..      BHI      0x8000898 ; FOC_Method_HFPI_WithoutNS + 456
        0x080008b0:    e774        t.      B        0x800079c ; FOC_Method_HFPI_WithoutNS + 204
    $d
        0x080008b2:    0000        ..      DCW    0
        0x080008b4:    20000060    `..     DCD    536871008
        0x080008b8:    200000a4    ...     DCD    536871076
        0x080008bc:    20000098    ...     DCD    536871064
        0x080008c0:    2000008c    ...     DCD    536871052
        0x080008c4:    200000ac    ...     DCD    536871084
        0x080008c8:    200000a8    ...     DCD    536871080
        0x080008cc:    20000064    d..     DCD    536871012
        0x080008d0:    2000009c    ...     DCD    536871068
        0x080008d4:    00000000    ....    DCD    0
        0x080008d8:    200000b8    ...     DCD    536871096
        0x080008dc:    3be5b424    $..;    DCD    1004909604
        0x080008e0:    3bf3ba77    w..;    DCD    1005828727
        0x080008e4:    bf5652bd    .RV.    DCD    3210105533
        0x080008e8:    3fe95810    .X.?    DCD    1072257040
        0x080008ec:    bcfaacda    ....    DCD    3170544858
        0x080008f0:    3cfaacda    ...<    DCD    1023061210
        0x080008f4:    bf7816f0    ..x.    DCD    3212318448
        0x080008f8:    3ff41893    ...?    DCD    1072961683
        0x080008fc:    be5a1cac    ..Z.    DCD    3193576620
        0x08000900:    3e5a1cac    ..Z>    DCD    1046092972
        0x08000904:    bf471de7    ..G.    DCD    3209108967
        0x08000908:    3fc78d50    P..?    DCD    1070042448
        0x0800090c:    41fb53d2    .S.A    DCD    1106990034
    $t
    i.FOC_Method_HFSI_WithoutNS
    FOC_Method_HFSI_WithoutNS
        0x08000910:    e92d4ff0    -..O    PUSH     {r4-r11,lr}
        0x08000914:    4c65        eL      LDR      r4,[pc,#404] ; [0x8000aac] = 0x20000060
        0x08000916:    f8df9198    ....    LDR      r9,[pc,#408] ; [0x8000ab0] = 0x200000a4
        0x0800091a:    f04f0a00    O...    MOV      r10,#0
        0x0800091e:    ed2d8b02    -...    VPUSH    {d8}
        0x08000922:    b083        ..      SUB      sp,sp,#0xc
        0x08000924:    6820         h      LDR      r0,[r4,#0]
        0x08000926:    7c41        A|      LDRB     r1,[r0,#0x11]
        0x08000928:    ed9f8a62    ..b.    VLDR     s16,[pc,#392] ; [0x8000ab4] = 0
        0x0800092c:    4f62        bO      LDR      r7,[pc,#392] ; [0x8000ab8] = 0x20000098
        0x0800092e:    4d63        cM      LDR      r5,[pc,#396] ; [0x8000abc] = 0x2000008c
        0x08000930:    4e63        cN      LDR      r6,[pc,#396] ; [0x8000ac0] = 0x200000a8
        0x08000932:    b189        ..      CBZ      r1,0x8000958 ; FOC_Method_HFSI_WithoutNS + 72
        0x08000934:    2901        .)      CMP      r1,#1
        0x08000936:    d06a        j.      BEQ      0x8000a0e ; FOC_Method_HFSI_WithoutNS + 254
        0x08000938:    2902        .)      CMP      r1,#2
        0x0800093a:    bf1e        ..      ITTT     NE
        0x0800093c:    b003        ..      ADDNE    sp,sp,#0xc
        0x0800093e:    ecbd8b02    ....    VPOPNE   {d8}
        0x08000942:    e8bd8ff0    ....    POPNE    {r4-r11,pc}
        0x08000946:    f8df817c    ..|.    LDR      r8,[pc,#380] ; [0x8000ac4] = 0x20000050
        0x0800094a:    f8dfb17c    ..|.    LDR      r11,[pc,#380] ; [0x8000ac8] = 0x200000a0
        0x0800094e:    f8b80000    ....    LDRH     r0,[r8,#0]
        0x08000952:    2800        .(      CMP      r0,#0
        0x08000954:    d17e        ~.      BNE      0x8000a54 ; FOC_Method_HFSI_WithoutNS + 324
        0x08000956:    e065        e.      B        0x8000a24 ; FOC_Method_HFSI_WithoutNS + 276
        0x08000958:    6841        Ah      LDR      r1,[r0,#4]
        0x0800095a:    1c4a        J.      ADDS     r2,r1,#1
        0x0800095c:    6042        B`      STR      r2,[r0,#4]
        0x0800095e:    4854        TH      LDR      r0,[pc,#336] ; [0x8000ab0] = 0x200000a4
        0x08000960:    f5b16ffa    ...o    CMP      r1,#0x7d0
        0x08000964:    6800        .h      LDR      r0,[r0,#0]
        0x08000966:    d23b        ;.      BCS      0x80009e0 ; FOC_Method_HFSI_WithoutNS + 208
        0x08000968:    4958        XI      LDR      r1,[pc,#352] ; [0x8000acc] = 0x200000b8
        0x0800096a:    6809        .h      LDR      r1,[r1,#0]
        0x0800096c:    ed910a03    ....    VLDR     s0,[r1,#0xc]
        0x08000970:    ed800a00    ....    VSTR     s0,[r0,#0]
        0x08000974:    6830        0h      LDR      r0,[r6,#0]
        0x08000976:    eeb00a48    ..H.    VMOV.F32 s0,s16
        0x0800097a:    ed800a00    ....    VSTR     s0,[r0,#0]
        0x0800097e:    f001fd47    ..G.    BL       Hardware_GetSinCosVal ; 0x8002410
        0x08000982:    6838        8h      LDR      r0,[r7,#0]
        0x08000984:    ed800a09    ....    VSTR     s0,[r0,#0x24]
        0x08000988:    edc00a0a    ....    VSTR     s1,[r0,#0x28]
        0x0800098c:    303c        <0      ADDS     r0,r0,#0x3c
        0x0800098e:    f7fffd9f    ....    BL       Abc_AlphaBeta_Trans ; 0x80004d0
        0x08000992:    ed8d0a00    ....    VSTR     s0,[sp,#0]
        0x08000996:    edcd0a01    ....    VSTR     s1,[sp,#4]
        0x0800099a:    6838        8h      LDR      r0,[r7,#0]
        0x0800099c:    f1000124    ..$.    ADD      r1,r0,#0x24
        0x080009a0:    4668        hF      MOV      r0,sp
        0x080009a2:    f7fffddf    ....    BL       AlphaBeta_Dq_Trans ; 0x8000564
        0x080009a6:    6838        8h      LDR      r0,[r7,#0]
        0x080009a8:    ed800a11    ....    VSTR     s0,[r0,#0x44]
        0x080009ac:    edc00a12    ....    VSTR     s1,[r0,#0x48]
        0x080009b0:    f8d90000    ....    LDR      r0,[r9,#0]
        0x080009b4:    f001fee4    ....    BL       IdCurrentPIController ; 0x8002780
        0x080009b8:    6838        8h      LDR      r0,[r7,#0]
        0x080009ba:    eef00a40    ..@.    VMOV.F32 s1,s0
        0x080009be:    ed900a12    ....    VLDR     s0,[r0,#0x48]
        0x080009c2:    eef01a60    ..`.    VMOV.F32 s3,s1
        0x080009c6:    6830        0h      LDR      r0,[r6,#0]
        0x080009c8:    f001ffe2    ....    BL       IqCurrentPIController ; 0x8002990
        0x080009cc:    6828        (h      LDR      r0,[r5,#0]
        0x080009ce:    edc01a02    ....    VSTR     s3,[r0,#8]
        0x080009d2:    ed800a03    ....    VSTR     s0,[r0,#0xc]
        0x080009d6:    b003        ..      ADD      sp,sp,#0xc
        0x080009d8:    ecbd8b02    ....    VPOP     {d8}
        0x080009dc:    e8bd8ff0    ....    POP      {r4-r11,pc}
        0x080009e0:    eeb00a00    ....    VMOV.F32 s0,#2.00000000
        0x080009e4:    ed800a00    ....    VSTR     s0,[r0,#0]
        0x080009e8:    6828        (h      LDR      r0,[r5,#0]
        0x080009ea:    ed9f0a39    ..9.    VLDR     s0,[pc,#228] ; [0x8000ad0] = 0x41fb53d2
        0x080009ee:    ed808a03    ....    VSTR     s16,[r0,#0xc]
        0x080009f2:    ed808a02    ....    VSTR     s16,[r0,#8]
        0x080009f6:    4837        7H      LDR      r0,[pc,#220] ; [0x8000ad4] = 0x200000ac
        0x080009f8:    6800        .h      LDR      r0,[r0,#0]
        0x080009fa:    ed800a00    ....    VSTR     s0,[r0,#0]
        0x080009fe:    f007ff8f    ....    BL       reset_CurrentPICHandler ; 0x8008920
        0x08000a02:    6820         h      LDR      r0,[r4,#0]
        0x08000a04:    2101        .!      MOVS     r1,#1
        0x08000a06:    f8c0a004    ....    STR      r10,[r0,#4]
        0x08000a0a:    7441        At      STRB     r1,[r0,#0x11]
        0x08000a0c:    e7e3        ..      B        0x80009d6 ; FOC_Method_HFSI_WithoutNS + 198
        0x08000a0e:    6841        Ah      LDR      r1,[r0,#4]
        0x08000a10:    1c4a        J.      ADDS     r2,r1,#1
        0x08000a12:    6042        B`      STR      r2,[r0,#4]
        0x08000a14:    f5b17f7a    ..z.    CMP      r1,#0x3e8
        0x08000a18:    bf84        ..      ITT      HI
        0x08000a1a:    f8c0a004    ....    STRHI    r10,[r0,#4]
        0x08000a1e:    2102        .!      MOVHI    r1,#2
        0x08000a20:    d9d9        ..      BLS      0x80009d6 ; FOC_Method_HFSI_WithoutNS + 198
        0x08000a22:    e7f2        ..      B        0x8000a0a ; FOC_Method_HFSI_WithoutNS + 250
        0x08000a24:    eeb00a48    ..H.    VMOV.F32 s0,s16
        0x08000a28:    f001fcf2    ....    BL       Hardware_GetSinCosVal ; 0x8002410
        0x08000a2c:    6838        8h      LDR      r0,[r7,#0]
        0x08000a2e:    ed800a09    ....    VSTR     s0,[r0,#0x24]
        0x08000a32:    edc00a0a    ....    VSTR     s1,[r0,#0x28]
        0x08000a36:    f8db1000    ....    LDR      r1,[r11,#0]
        0x08000a3a:    f001fb65    ..e.    BL       HFSISensorlessObserver ; 0x8002108
        0x08000a3e:    6838        8h      LDR      r0,[r7,#0]
        0x08000a40:    eef01a40    ..@.    VMOV.F32 s3,s0
        0x08000a44:    ed900a11    ....    VLDR     s0,[r0,#0x44]
        0x08000a48:    f8d90000    ....    LDR      r0,[r9,#0]
        0x08000a4c:    f001fe98    ....    BL       IdCurrentPIController ; 0x8002780
        0x08000a50:    6838        8h      LDR      r0,[r7,#0]
        0x08000a52:    e000        ..      B        0x8000a56 ; FOC_Method_HFSI_WithoutNS + 326
        0x08000a54:    e009        ..      B        0x8000a6a ; FOC_Method_HFSI_WithoutNS + 346
        0x08000a56:    ed900a12    ....    VLDR     s0,[r0,#0x48]
        0x08000a5a:    6830        0h      LDR      r0,[r6,#0]
        0x08000a5c:    f001ff98    ....    BL       IqCurrentPIController ; 0x8002990
        0x08000a60:    6828        (h      LDR      r0,[r5,#0]
        0x08000a62:    edc01a02    ....    VSTR     s3,[r0,#8]
        0x08000a66:    ed808a03    ....    VSTR     s16,[r0,#0xc]
        0x08000a6a:    f8b80000    ....    LDRH     r0,[r8,#0]
        0x08000a6e:    491a        .I      LDR      r1,[pc,#104] ; [0x8000ad8] = 0xaaaaaaab
        0x08000a70:    1c40        @.      ADDS     r0,r0,#1
        0x08000a72:    fba12100    ...!    UMULL    r2,r1,r1,r0
        0x08000a76:    08c9        ..      LSRS     r1,r1,#3
        0x08000a78:    eba10181    ....    SUB      r1,r1,r1,LSL #2
        0x08000a7c:    eb000081    ....    ADD      r0,r0,r1,LSL #2
        0x08000a80:    f8a80000    ....    STRH     r0,[r8,#0]
        0x08000a84:    6820         h      LDR      r0,[r4,#0]
        0x08000a86:    6841        Ah      LDR      r1,[r0,#4]
        0x08000a88:    1c49        I.      ADDS     r1,r1,#1
        0x08000a8a:    6041        A`      STR      r1,[r0,#4]
        0x08000a8c:    290a        .)      CMP      r1,#0xa
        0x08000a8e:    d1a2        ..      BNE      0x80009d6 ; FOC_Method_HFSI_WithoutNS + 198
        0x08000a90:    f8c0a004    ....    STR      r10,[r0,#4]
        0x08000a94:    f8db0000    ....    LDR      r0,[r11,#0]
        0x08000a98:    ed900a14    ....    VLDR     s0,[r0,#0x50]
        0x08000a9c:    480d        .H      LDR      r0,[pc,#52] ; [0x8000ad4] = 0x200000ac
        0x08000a9e:    6800        .h      LDR      r0,[r0,#0]
        0x08000aa0:    f004faec    ....    BL       SpeedPIController ; 0x800507c
        0x08000aa4:    6830        0h      LDR      r0,[r6,#0]
        0x08000aa6:    ed800a00    ....    VSTR     s0,[r0,#0]
        0x08000aaa:    e794        ..      B        0x80009d6 ; FOC_Method_HFSI_WithoutNS + 198
    $d
        0x08000aac:    20000060    `..     DCD    536871008
        0x08000ab0:    200000a4    ...     DCD    536871076
        0x08000ab4:    00000000    ....    DCD    0
        0x08000ab8:    20000098    ...     DCD    536871064
        0x08000abc:    2000008c    ...     DCD    536871052
        0x08000ac0:    200000a8    ...     DCD    536871080
        0x08000ac4:    20000050    P..     DCD    536870992
        0x08000ac8:    200000a0    ...     DCD    536871072
        0x08000acc:    200000b8    ...     DCD    536871096
        0x08000ad0:    41fb53d2    .S.A    DCD    1106990034
        0x08000ad4:    200000ac    ...     DCD    536871084
        0x08000ad8:    aaaaaaab    ....    DCD    2863311531
    $t
    i.FOC_Method_IF_Luenberger
    FOC_Method_IF_Luenberger
        0x08000adc:    e92d4ff0    -..O    PUSH     {r4-r11,lr}
        0x08000ae0:    4d98        .M      LDR      r5,[pc,#608] ; [0x8000d44] = 0x20000060
        0x08000ae2:    4f9d        .O      LDR      r7,[pc,#628] ; [0x8000d58] = 0x200000b8
        0x08000ae4:    f8df9260    ..`.    LDR      r9,[pc,#608] ; [0x8000d48] = 0x200000a4
        0x08000ae8:    f8df8260    ..`.    LDR      r8,[pc,#608] ; [0x8000d4c] = 0x200000a8
        0x08000aec:    4c98        .L      LDR      r4,[pc,#608] ; [0x8000d50] = 0x20000098
        0x08000aee:    4e99        .N      LDR      r6,[pc,#612] ; [0x8000d54] = 0x2000008c
        0x08000af0:    f04f0a00    O...    MOV      r10,#0
        0x08000af4:    ed2d8b02    -...    VPUSH    {d8}
        0x08000af8:    b083        ..      SUB      sp,sp,#0xc
        0x08000afa:    6828        (h      LDR      r0,[r5,#0]
        0x08000afc:    6839        9h      LDR      r1,[r7,#0]
        0x08000afe:    7c42        B|      LDRB     r2,[r0,#0x11]
        0x08000b00:    b172        r.      CBZ      r2,0x8000b20 ; FOC_Method_IF_Luenberger + 68
        0x08000b02:    2a01        .*      CMP      r2,#1
        0x08000b04:    d05b        [.      BEQ      0x8000bbe ; FOC_Method_IF_Luenberger + 226
        0x08000b06:    f8dfb254    ..T.    LDR      r11,[pc,#596] ; [0x8000d5c] = 0x40490fdb
        0x08000b0a:    ed9f8a95    ....    VLDR     s16,[pc,#596] ; [0x8000d60] = 0x40c90fdb
        0x08000b0e:    2a02        .*      CMP      r2,#2
        0x08000b10:    d066        f.      BEQ      0x8000be0 ; FOC_Method_IF_Luenberger + 260
        0x08000b12:    2a03        .*      CMP      r2,#3
        0x08000b14:    d07e        ~.      BEQ      0x8000c14 ; FOC_Method_IF_Luenberger + 312
        0x08000b16:    b003        ..      ADD      sp,sp,#0xc
        0x08000b18:    ecbd8b02    ....    VPOP     {d8}
        0x08000b1c:    e8bd8ff0    ....    POP      {r4-r11,pc}
        0x08000b20:    6843        Ch      LDR      r3,[r0,#4]
        0x08000b22:    1c5a        Z.      ADDS     r2,r3,#1
        0x08000b24:    ed9f0a8f    ....    VLDR     s0,[pc,#572] ; [0x8000d64] = 0
        0x08000b28:    6042        B`      STR      r2,[r0,#4]
        0x08000b2a:    4a87        .J      LDR      r2,[pc,#540] ; [0x8000d48] = 0x200000a4
        0x08000b2c:    f5b36ffa    ...o    CMP      r3,#0x7d0
        0x08000b30:    6812        .h      LDR      r2,[r2,#0]
        0x08000b32:    d235        5.      BCS      0x8000ba0 ; FOC_Method_IF_Luenberger + 196
        0x08000b34:    edd10a03    ....    VLDR     s1,[r1,#0xc]
        0x08000b38:    edc20a00    ....    VSTR     s1,[r2,#0]
        0x08000b3c:    f8d80000    ....    LDR      r0,[r8,#0]
        0x08000b40:    ed800a00    ....    VSTR     s0,[r0,#0]
        0x08000b44:    f001fc64    ..d.    BL       Hardware_GetSinCosVal ; 0x8002410
        0x08000b48:    6820         h      LDR      r0,[r4,#0]
        0x08000b4a:    ed800a09    ....    VSTR     s0,[r0,#0x24]
        0x08000b4e:    edc00a0a    ....    VSTR     s1,[r0,#0x28]
        0x08000b52:    303c        <0      ADDS     r0,r0,#0x3c
        0x08000b54:    f7fffcbc    ....    BL       Abc_AlphaBeta_Trans ; 0x80004d0
        0x08000b58:    ed8d0a00    ....    VSTR     s0,[sp,#0]
        0x08000b5c:    edcd0a01    ....    VSTR     s1,[sp,#4]
        0x08000b60:    6820         h      LDR      r0,[r4,#0]
        0x08000b62:    f1000124    ..$.    ADD      r1,r0,#0x24
        0x08000b66:    4668        hF      MOV      r0,sp
        0x08000b68:    f7fffcfc    ....    BL       AlphaBeta_Dq_Trans ; 0x8000564
        0x08000b6c:    6820         h      LDR      r0,[r4,#0]
        0x08000b6e:    ed800a11    ....    VSTR     s0,[r0,#0x44]
        0x08000b72:    edc00a12    ....    VSTR     s1,[r0,#0x48]
        0x08000b76:    f8d90000    ....    LDR      r0,[r9,#0]
        0x08000b7a:    f001fe01    ....    BL       IdCurrentPIController ; 0x8002780
        0x08000b7e:    6820         h      LDR      r0,[r4,#0]
        0x08000b80:    eef00a40    ..@.    VMOV.F32 s1,s0
        0x08000b84:    ed900a12    ....    VLDR     s0,[r0,#0x48]
        0x08000b88:    eef01a60    ..`.    VMOV.F32 s3,s1
        0x08000b8c:    f8d80000    ....    LDR      r0,[r8,#0]
        0x08000b90:    f001fefe    ....    BL       IqCurrentPIController ; 0x8002990
        0x08000b94:    6830        0h      LDR      r0,[r6,#0]
        0x08000b96:    edc01a02    ....    VSTR     s3,[r0,#8]
        0x08000b9a:    ed800a03    ....    VSTR     s0,[r0,#0xc]
        0x08000b9e:    e7ba        ..      B        0x8000b16 ; FOC_Method_IF_Luenberger + 58
        0x08000ba0:    f8c0a004    ....    STR      r10,[r0,#4]
        0x08000ba4:    ed820a00    ....    VSTR     s0,[r2,#0]
        0x08000ba8:    6830        0h      LDR      r0,[r6,#0]
        0x08000baa:    ed800a03    ....    VSTR     s0,[r0,#0xc]
        0x08000bae:    ed800a02    ....    VSTR     s0,[r0,#8]
        0x08000bb2:    f007feb5    ....    BL       reset_CurrentPICHandler ; 0x8008920
        0x08000bb6:    6829        )h      LDR      r1,[r5,#0]
        0x08000bb8:    2001        .       MOVS     r0,#1
        0x08000bba:    7448        Ht      STRB     r0,[r1,#0x11]
        0x08000bbc:    e7ab        ..      B        0x8000b16 ; FOC_Method_IF_Luenberger + 58
        0x08000bbe:    6842        Bh      LDR      r2,[r0,#4]
        0x08000bc0:    1c53        S.      ADDS     r3,r2,#1
        0x08000bc2:    6043        C`      STR      r3,[r0,#4]
        0x08000bc4:    2a64        d*      CMP      r2,#0x64
        0x08000bc6:    d9a6        ..      BLS      0x8000b16 ; FOC_Method_IF_Luenberger + 58
        0x08000bc8:    f8d80000    ....    LDR      r0,[r8,#0]
        0x08000bcc:    ed910a03    ....    VLDR     s0,[r1,#0xc]
        0x08000bd0:    2102        .!      MOVS     r1,#2
        0x08000bd2:    ed800a00    ....    VSTR     s0,[r0,#0]
        0x08000bd6:    6828        (h      LDR      r0,[r5,#0]
        0x08000bd8:    f8c0a004    ....    STR      r10,[r0,#4]
        0x08000bdc:    7441        At      STRB     r1,[r0,#0x11]
        0x08000bde:    e79a        ..      B        0x8000b16 ; FOC_Method_IF_Luenberger + 58
        0x08000be0:    ed910a02    ....    VLDR     s0,[r1,#8]
        0x08000be4:    f001fc14    ....    BL       Hardware_GetSinCosVal ; 0x8002410
        0x08000be8:    6820         h      LDR      r0,[r4,#0]
        0x08000bea:    ed800a09    ....    VSTR     s0,[r0,#0x24]
        0x08000bee:    edc00a0a    ....    VSTR     s1,[r0,#0x28]
        0x08000bf2:    303c        <0      ADDS     r0,r0,#0x3c
        0x08000bf4:    f7fffc6c    ..l.    BL       Abc_AlphaBeta_Trans ; 0x80004d0
        0x08000bf8:    ed8d0a00    ....    VSTR     s0,[sp,#0]
        0x08000bfc:    edcd0a01    ....    VSTR     s1,[sp,#4]
        0x08000c00:    6820         h      LDR      r0,[r4,#0]
        0x08000c02:    f1000124    ..$.    ADD      r1,r0,#0x24
        0x08000c06:    4668        hF      MOV      r0,sp
        0x08000c08:    f7fffcac    ....    BL       AlphaBeta_Dq_Trans ; 0x8000564
        0x08000c0c:    6820         h      LDR      r0,[r4,#0]
        0x08000c0e:    ed800a11    ....    VSTR     s0,[r0,#0x44]
        0x08000c12:    e000        ..      B        0x8000c16 ; FOC_Method_IF_Luenberger + 314
        0x08000c14:    e047        G.      B        0x8000ca6 ; FOC_Method_IF_Luenberger + 458
        0x08000c16:    edc00a12    ....    VSTR     s1,[r0,#0x48]
        0x08000c1a:    f8d90000    ....    LDR      r0,[r9,#0]
        0x08000c1e:    f001fdaf    ....    BL       IdCurrentPIController ; 0x8002780
        0x08000c22:    6820         h      LDR      r0,[r4,#0]
        0x08000c24:    eef00a40    ..@.    VMOV.F32 s1,s0
        0x08000c28:    ed900a12    ....    VLDR     s0,[r0,#0x48]
        0x08000c2c:    eef01a60    ..`.    VMOV.F32 s3,s1
        0x08000c30:    f8d80000    ....    LDR      r0,[r8,#0]
        0x08000c34:    f001feac    ....    BL       IqCurrentPIController ; 0x8002990
        0x08000c38:    6830        0h      LDR      r0,[r6,#0]
        0x08000c3a:    edc01a02    ....    VSTR     s3,[r0,#8]
        0x08000c3e:    ed800a03    ....    VSTR     s0,[r0,#0xc]
        0x08000c42:    6829        )h      LDR      r1,[r5,#0]
        0x08000c44:    684a        Jh      LDR      r2,[r1,#4]
        0x08000c46:    1c50        P.      ADDS     r0,r2,#1
        0x08000c48:    6048        H`      STR      r0,[r1,#4]
        0x08000c4a:    6838        8h      LDR      r0,[r7,#0]
        0x08000c4c:    6903        .i      LDR      r3,[r0,#0x10]
        0x08000c4e:    429a        .B      CMP      r2,r3
        0x08000c50:    d20a        ..      BCS      0x8000c68 ; FOC_Method_IF_Luenberger + 396
        0x08000c52:    ed900a01    ....    VLDR     s0,[r0,#4]
        0x08000c56:    edd10a06    ....    VLDR     s1,[r1,#0x18]
        0x08000c5a:    ed901a00    ....    VLDR     s2,[r0,#0]
        0x08000c5e:    ee000a81    ....    VMLA.F32 s0,s1,s2
        0x08000c62:    ed800a01    ....    VSTR     s0,[r0,#4]
        0x08000c66:    e003        ..      B        0x8000c70 ; FOC_Method_IF_Luenberger + 404
        0x08000c68:    2203        ."      MOVS     r2,#3
        0x08000c6a:    f8c1a004    ....    STR      r10,[r1,#4]
        0x08000c6e:    744a        Jt      STRB     r2,[r1,#0x11]
        0x08000c70:    ed900a02    ....    VLDR     s0,[r0,#8]
        0x08000c74:    edd10a06    ....    VLDR     s1,[r1,#0x18]
        0x08000c78:    ed901a01    ....    VLDR     s2,[r0,#4]
        0x08000c7c:    ee000a81    ....    VMLA.F32 s0,s1,s2
        0x08000c80:    ee101a10    ....    VMOV     r1,s0
        0x08000c84:    ed800a02    ....    VSTR     s0,[r0,#8]
        0x08000c88:    4559        YE      CMP      r1,r11
        0x08000c8a:    bfc8        ..      IT       GT
        0x08000c8c:    ee300a48    0.H.    VSUBGT.F32 s0,s0,s16
        0x08000c90:    dc07        ..      BGT      0x8000ca2 ; FOC_Method_IF_Luenberger + 454
        0x08000c92:    ee101a10    ....    VMOV     r1,s0
        0x08000c96:    4a34        4J      LDR      r2,[pc,#208] ; [0x8000d68] = 0xc0490fdb
        0x08000c98:    4291        .B      CMP      r1,r2
        0x08000c9a:    bf88        ..      IT       HI
        0x08000c9c:    ee300a08    0...    VADDHI.F32 s0,s0,s16
        0x08000ca0:    d901        ..      BLS      0x8000ca6 ; FOC_Method_IF_Luenberger + 458
        0x08000ca2:    ed800a02    ....    VSTR     s0,[r0,#8]
        0x08000ca6:    6838        8h      LDR      r0,[r7,#0]
        0x08000ca8:    ed900a02    ....    VLDR     s0,[r0,#8]
        0x08000cac:    f001fbb0    ....    BL       Hardware_GetSinCosVal ; 0x8002410
        0x08000cb0:    6820         h      LDR      r0,[r4,#0]
        0x08000cb2:    ed800a09    ....    VSTR     s0,[r0,#0x24]
        0x08000cb6:    edc00a0a    ....    VSTR     s1,[r0,#0x28]
        0x08000cba:    303c        <0      ADDS     r0,r0,#0x3c
        0x08000cbc:    f7fffc08    ....    BL       Abc_AlphaBeta_Trans ; 0x80004d0
        0x08000cc0:    ed8d0a00    ....    VSTR     s0,[sp,#0]
        0x08000cc4:    edcd0a01    ....    VSTR     s1,[sp,#4]
        0x08000cc8:    6820         h      LDR      r0,[r4,#0]
        0x08000cca:    f1000124    ..$.    ADD      r1,r0,#0x24
        0x08000cce:    4668        hF      MOV      r0,sp
        0x08000cd0:    f7fffc48    ..H.    BL       AlphaBeta_Dq_Trans ; 0x8000564
        0x08000cd4:    6820         h      LDR      r0,[r4,#0]
        0x08000cd6:    ed800a11    ....    VSTR     s0,[r0,#0x44]
        0x08000cda:    edc00a12    ....    VSTR     s1,[r0,#0x48]
        0x08000cde:    f8d90000    ....    LDR      r0,[r9,#0]
        0x08000ce2:    f001fd4d    ..M.    BL       IdCurrentPIController ; 0x8002780
        0x08000ce6:    6820         h      LDR      r0,[r4,#0]
        0x08000ce8:    eef00a40    ..@.    VMOV.F32 s1,s0
        0x08000cec:    ed900a12    ....    VLDR     s0,[r0,#0x48]
        0x08000cf0:    eef01a60    ..`.    VMOV.F32 s3,s1
        0x08000cf4:    f8d80000    ....    LDR      r0,[r8,#0]
        0x08000cf8:    f001fe4a    ..J.    BL       IqCurrentPIController ; 0x8002990
        0x08000cfc:    6830        0h      LDR      r0,[r6,#0]
        0x08000cfe:    edc01a02    ....    VSTR     s3,[r0,#8]
        0x08000d02:    ed800a03    ....    VSTR     s0,[r0,#0xc]
        0x08000d06:    6838        8h      LDR      r0,[r7,#0]
        0x08000d08:    6829        )h      LDR      r1,[r5,#0]
        0x08000d0a:    ed900a02    ....    VLDR     s0,[r0,#8]
        0x08000d0e:    edd10a06    ....    VLDR     s1,[r1,#0x18]
        0x08000d12:    ed901a01    ....    VLDR     s2,[r0,#4]
        0x08000d16:    ee000a81    ....    VMLA.F32 s0,s1,s2
        0x08000d1a:    ee101a10    ....    VMOV     r1,s0
        0x08000d1e:    ed800a02    ....    VSTR     s0,[r0,#8]
        0x08000d22:    4559        YE      CMP      r1,r11
        0x08000d24:    bfc8        ..      IT       GT
        0x08000d26:    ee300a48    0.H.    VSUBGT.F32 s0,s0,s16
        0x08000d2a:    dc08        ..      BGT      0x8000d3e ; FOC_Method_IF_Luenberger + 610
        0x08000d2c:    ee101a10    ....    VMOV     r1,s0
        0x08000d30:    4a0d        .J      LDR      r2,[pc,#52] ; [0x8000d68] = 0xc0490fdb
        0x08000d32:    4291        .B      CMP      r1,r2
        0x08000d34:    bf88        ..      IT       HI
        0x08000d36:    ee300a08    0...    VADDHI.F32 s0,s0,s16
        0x08000d3a:    f67faeec    ....    BLS      0x8000b16 ; FOC_Method_IF_Luenberger + 58
        0x08000d3e:    ed800a02    ....    VSTR     s0,[r0,#8]
        0x08000d42:    e6e8        ..      B        0x8000b16 ; FOC_Method_IF_Luenberger + 58
    $d
        0x08000d44:    20000060    `..     DCD    536871008
        0x08000d48:    200000a4    ...     DCD    536871076
        0x08000d4c:    200000a8    ...     DCD    536871080
        0x08000d50:    20000098    ...     DCD    536871064
        0x08000d54:    2000008c    ...     DCD    536871052
        0x08000d58:    200000b8    ...     DCD    536871096
        0x08000d5c:    40490fdb    ..I@    DCD    1078530011
        0x08000d60:    40c90fdb    ...@    DCD    1086918619
        0x08000d64:    00000000    ....    DCD    0
        0x08000d68:    c0490fdb    ..I.    DCD    3226013659
    $t
    i.FOC_Method_IF_Luenberger_Debug
    FOC_Method_IF_Luenberger_Debug
        0x08000d6c:    e92d4ff0    -..O    PUSH     {r4-r11,lr}
        0x08000d70:    4da2        .M      LDR      r5,[pc,#648] ; [0x8000ffc] = 0x20000060
        0x08000d72:    4fa8        .O      LDR      r7,[pc,#672] ; [0x8001014] = 0x200000b8
        0x08000d74:    f8df9288    ....    LDR      r9,[pc,#648] ; [0x8001000] = 0x20000094
        0x08000d78:    f8dfa288    ....    LDR      r10,[pc,#648] ; [0x8001004] = 0x200000a4
        0x08000d7c:    f8df8288    ....    LDR      r8,[pc,#648] ; [0x8001008] = 0x200000a8
        0x08000d80:    4ca2        .L      LDR      r4,[pc,#648] ; [0x800100c] = 0x20000098
        0x08000d82:    4ea3        .N      LDR      r6,[pc,#652] ; [0x8001010] = 0x2000008c
        0x08000d84:    f04f0b00    O...    MOV      r11,#0
        0x08000d88:    ed2d8b02    -...    VPUSH    {d8}
        0x08000d8c:    b083        ..      SUB      sp,sp,#0xc
        0x08000d8e:    6828        (h      LDR      r0,[r5,#0]
        0x08000d90:    6839        9h      LDR      r1,[r7,#0]
        0x08000d92:    7c42        B|      LDRB     r2,[r0,#0x11]
        0x08000d94:    b162        b.      CBZ      r2,0x8000db0 ; FOC_Method_IF_Luenberger_Debug + 68
        0x08000d96:    2a01        .*      CMP      r2,#1
        0x08000d98:    d063        c.      BEQ      0x8000e62 ; FOC_Method_IF_Luenberger_Debug + 246
        0x08000d9a:    ed9f8a9f    ....    VLDR     s16,[pc,#636] ; [0x8001018] = 0x40c90fdb
        0x08000d9e:    2a02        .*      CMP      r2,#2
        0x08000da0:    d072        r.      BEQ      0x8000e88 ; FOC_Method_IF_Luenberger_Debug + 284
        0x08000da2:    2a03        .*      CMP      r2,#3
        0x08000da4:    d06f        o.      BEQ      0x8000e86 ; FOC_Method_IF_Luenberger_Debug + 282
        0x08000da6:    b003        ..      ADD      sp,sp,#0xc
        0x08000da8:    ecbd8b02    ....    VPOP     {d8}
        0x08000dac:    e8bd8ff0    ....    POP      {r4-r11,pc}
        0x08000db0:    6843        Ch      LDR      r3,[r0,#4]
        0x08000db2:    1c5a        Z.      ADDS     r2,r3,#1
        0x08000db4:    ed9f0a99    ....    VLDR     s0,[pc,#612] ; [0x800101c] = 0
        0x08000db8:    6042        B`      STR      r2,[r0,#4]
        0x08000dba:    4a92        .J      LDR      r2,[pc,#584] ; [0x8001004] = 0x200000a4
        0x08000dbc:    f5b36ffa    ...o    CMP      r3,#0x7d0
        0x08000dc0:    6812        .h      LDR      r2,[r2,#0]
        0x08000dc2:    d239        9.      BCS      0x8000e38 ; FOC_Method_IF_Luenberger_Debug + 204
        0x08000dc4:    edd10a03    ....    VLDR     s1,[r1,#0xc]
        0x08000dc8:    edc20a00    ....    VSTR     s1,[r2,#0]
        0x08000dcc:    f8d80000    ....    LDR      r0,[r8,#0]
        0x08000dd0:    ed800a00    ....    VSTR     s0,[r0,#0]
        0x08000dd4:    f001fb1c    ....    BL       Hardware_GetSinCosVal ; 0x8002410
        0x08000dd8:    6820         h      LDR      r0,[r4,#0]
        0x08000dda:    ed800a09    ....    VSTR     s0,[r0,#0x24]
        0x08000dde:    edc00a0a    ....    VSTR     s1,[r0,#0x28]
        0x08000de2:    303c        <0      ADDS     r0,r0,#0x3c
        0x08000de4:    f7fffb74    ..t.    BL       Abc_AlphaBeta_Trans ; 0x80004d0
        0x08000de8:    ed8d0a00    ....    VSTR     s0,[sp,#0]
        0x08000dec:    edcd0a01    ....    VSTR     s1,[sp,#4]
        0x08000df0:    6820         h      LDR      r0,[r4,#0]
        0x08000df2:    f1000124    ..$.    ADD      r1,r0,#0x24
        0x08000df6:    4668        hF      MOV      r0,sp
        0x08000df8:    f7fffbb4    ....    BL       AlphaBeta_Dq_Trans ; 0x8000564
        0x08000dfc:    6820         h      LDR      r0,[r4,#0]
        0x08000dfe:    ed800a11    ....    VSTR     s0,[r0,#0x44]
        0x08000e02:    edc00a12    ....    VSTR     s1,[r0,#0x48]
        0x08000e06:    f8da0000    ....    LDR      r0,[r10,#0]
        0x08000e0a:    f001fcb9    ....    BL       IdCurrentPIController ; 0x8002780
        0x08000e0e:    6820         h      LDR      r0,[r4,#0]
        0x08000e10:    eef01a40    ..@.    VMOV.F32 s3,s0
        0x08000e14:    ed900a12    ....    VLDR     s0,[r0,#0x48]
        0x08000e18:    f8d80000    ....    LDR      r0,[r8,#0]
        0x08000e1c:    f001fdb8    ....    BL       IqCurrentPIController ; 0x8002990
        0x08000e20:    6830        0h      LDR      r0,[r6,#0]
        0x08000e22:    eef00a40    ..@.    VMOV.F32 s1,s0
        0x08000e26:    edc01a02    ....    VSTR     s3,[r0,#8]
        0x08000e2a:    edc00a03    ....    VSTR     s1,[r0,#0xc]
        0x08000e2e:    f24040e2    @..@    MOV      r0,#0x4e2
        0x08000e32:    f001fc0d    ....    BL       Hardware_SetABZCounter ; 0x8002650
        0x08000e36:    e7b6        ..      B        0x8000da6 ; FOC_Method_IF_Luenberger_Debug + 58
        0x08000e38:    f8c0b004    ....    STR      r11,[r0,#4]
        0x08000e3c:    ed820a00    ....    VSTR     s0,[r2,#0]
        0x08000e40:    6830        0h      LDR      r0,[r6,#0]
        0x08000e42:    ed800a03    ....    VSTR     s0,[r0,#0xc]
        0x08000e46:    ed800a02    ....    VSTR     s0,[r0,#8]
        0x08000e4a:    f007fd69    ..i.    BL       reset_CurrentPICHandler ; 0x8008920
        0x08000e4e:    f8d91000    ....    LDR      r1,[r9,#0]
        0x08000e52:    2001        .       MOVS     r0,#1
        0x08000e54:    f24042e2    @..B    MOV      r2,#0x4e2
        0x08000e58:    7008        .p      STRB     r0,[r1,#0]
        0x08000e5a:    618a        .a      STR      r2,[r1,#0x18]
        0x08000e5c:    6829        )h      LDR      r1,[r5,#0]
        0x08000e5e:    7448        Ht      STRB     r0,[r1,#0x11]
        0x08000e60:    e7a1        ..      B        0x8000da6 ; FOC_Method_IF_Luenberger_Debug + 58
        0x08000e62:    6842        Bh      LDR      r2,[r0,#4]
        0x08000e64:    1c53        S.      ADDS     r3,r2,#1
        0x08000e66:    6043        C`      STR      r3,[r0,#4]
        0x08000e68:    2a64        d*      CMP      r2,#0x64
        0x08000e6a:    d99c        ..      BLS      0x8000da6 ; FOC_Method_IF_Luenberger_Debug + 58
        0x08000e6c:    f8d80000    ....    LDR      r0,[r8,#0]
        0x08000e70:    ed910a03    ....    VLDR     s0,[r1,#0xc]
        0x08000e74:    2102        .!      MOVS     r1,#2
        0x08000e76:    ed800a00    ....    VSTR     s0,[r0,#0]
        0x08000e7a:    6828        (h      LDR      r0,[r5,#0]
        0x08000e7c:    f8c0b004    ....    STR      r11,[r0,#4]
        0x08000e80:    7441        At      STRB     r1,[r0,#0x11]
        0x08000e82:    e790        ..      B        0x8000da6 ; FOC_Method_IF_Luenberger_Debug + 58
        0x08000e84:    e000        ..      B        0x8000e88 ; FOC_Method_IF_Luenberger_Debug + 284
        0x08000e86:    e061        a.      B        0x8000f4c ; FOC_Method_IF_Luenberger_Debug + 480
        0x08000e88:    ed910a02    ....    VLDR     s0,[r1,#8]
        0x08000e8c:    f001fac0    ....    BL       Hardware_GetSinCosVal ; 0x8002410
        0x08000e90:    6820         h      LDR      r0,[r4,#0]
        0x08000e92:    ed800a09    ....    VSTR     s0,[r0,#0x24]
        0x08000e96:    edc00a0a    ....    VSTR     s1,[r0,#0x28]
        0x08000e9a:    303c        <0      ADDS     r0,r0,#0x3c
        0x08000e9c:    f7fffb18    ....    BL       Abc_AlphaBeta_Trans ; 0x80004d0
        0x08000ea0:    ed8d0a00    ....    VSTR     s0,[sp,#0]
        0x08000ea4:    edcd0a01    ....    VSTR     s1,[sp,#4]
        0x08000ea8:    6820         h      LDR      r0,[r4,#0]
        0x08000eaa:    f1000124    ..$.    ADD      r1,r0,#0x24
        0x08000eae:    4668        hF      MOV      r0,sp
        0x08000eb0:    f7fffb58    ..X.    BL       AlphaBeta_Dq_Trans ; 0x8000564
        0x08000eb4:    6820         h      LDR      r0,[r4,#0]
        0x08000eb6:    ed800a11    ....    VSTR     s0,[r0,#0x44]
        0x08000eba:    edc00a12    ....    VSTR     s1,[r0,#0x48]
        0x08000ebe:    f8da0000    ....    LDR      r0,[r10,#0]
        0x08000ec2:    f001fc5d    ..].    BL       IdCurrentPIController ; 0x8002780
        0x08000ec6:    6820         h      LDR      r0,[r4,#0]
        0x08000ec8:    eef00a40    ..@.    VMOV.F32 s1,s0
        0x08000ecc:    ed900a12    ....    VLDR     s0,[r0,#0x48]
        0x08000ed0:    eef01a60    ..`.    VMOV.F32 s3,s1
        0x08000ed4:    f8d80000    ....    LDR      r0,[r8,#0]
        0x08000ed8:    f001fd5a    ..Z.    BL       IqCurrentPIController ; 0x8002990
        0x08000edc:    6830        0h      LDR      r0,[r6,#0]
        0x08000ede:    edc01a02    ....    VSTR     s3,[r0,#8]
        0x08000ee2:    ed800a03    ....    VSTR     s0,[r0,#0xc]
        0x08000ee6:    6829        )h      LDR      r1,[r5,#0]
        0x08000ee8:    684a        Jh      LDR      r2,[r1,#4]
        0x08000eea:    1c50        P.      ADDS     r0,r2,#1
        0x08000eec:    6048        H`      STR      r0,[r1,#4]
        0x08000eee:    6838        8h      LDR      r0,[r7,#0]
        0x08000ef0:    6903        .i      LDR      r3,[r0,#0x10]
        0x08000ef2:    429a        .B      CMP      r2,r3
        0x08000ef4:    d20a        ..      BCS      0x8000f0c ; FOC_Method_IF_Luenberger_Debug + 416
        0x08000ef6:    ed900a01    ....    VLDR     s0,[r0,#4]
        0x08000efa:    edd10a06    ....    VLDR     s1,[r1,#0x18]
        0x08000efe:    ed901a00    ....    VLDR     s2,[r0,#0]
        0x08000f02:    ee000a81    ....    VMLA.F32 s0,s1,s2
        0x08000f06:    ed800a01    ....    VSTR     s0,[r0,#4]
        0x08000f0a:    e003        ..      B        0x8000f14 ; FOC_Method_IF_Luenberger_Debug + 424
        0x08000f0c:    2203        ."      MOVS     r2,#3
        0x08000f0e:    f8c1b004    ....    STR      r11,[r1,#4]
        0x08000f12:    744a        Jt      STRB     r2,[r1,#0x11]
        0x08000f14:    ed900a02    ....    VLDR     s0,[r0,#8]
        0x08000f18:    edd10a06    ....    VLDR     s1,[r1,#0x18]
        0x08000f1c:    ed901a01    ....    VLDR     s2,[r0,#4]
        0x08000f20:    4a3f        ?J      LDR      r2,[pc,#252] ; [0x8001020] = 0x40490fdb
        0x08000f22:    ee000a81    ....    VMLA.F32 s0,s1,s2
        0x08000f26:    ee101a10    ....    VMOV     r1,s0
        0x08000f2a:    ed800a02    ....    VSTR     s0,[r0,#8]
        0x08000f2e:    4291        .B      CMP      r1,r2
        0x08000f30:    bfc8        ..      IT       GT
        0x08000f32:    ee300a48    0.H.    VSUBGT.F32 s0,s0,s16
        0x08000f36:    dc07        ..      BGT      0x8000f48 ; FOC_Method_IF_Luenberger_Debug + 476
        0x08000f38:    ee101a10    ....    VMOV     r1,s0
        0x08000f3c:    4a39        9J      LDR      r2,[pc,#228] ; [0x8001024] = 0xc0490fdb
        0x08000f3e:    4291        .B      CMP      r1,r2
        0x08000f40:    bf88        ..      IT       HI
        0x08000f42:    ee300a08    0...    VADDHI.F32 s0,s0,s16
        0x08000f46:    d901        ..      BLS      0x8000f4c ; FOC_Method_IF_Luenberger_Debug + 480
        0x08000f48:    ed800a02    ....    VSTR     s0,[r0,#8]
        0x08000f4c:    f8d90000    ....    LDR      r0,[r9,#0]
        0x08000f50:    f001fc64    ..d.    BL       IncAbzCalculateRealEleAngle ; 0x800281c
        0x08000f54:    f8d90000    ....    LDR      r0,[r9,#0]
        0x08000f58:    ed800a08    ....    VSTR     s0,[r0,#0x20]
        0x08000f5c:    6838        8h      LDR      r0,[r7,#0]
        0x08000f5e:    ed900a02    ....    VLDR     s0,[r0,#8]
        0x08000f62:    f001fa55    ..U.    BL       Hardware_GetSinCosVal ; 0x8002410
        0x08000f66:    6820         h      LDR      r0,[r4,#0]
        0x08000f68:    ed800a09    ....    VSTR     s0,[r0,#0x24]
        0x08000f6c:    edc00a0a    ....    VSTR     s1,[r0,#0x28]
        0x08000f70:    303c        <0      ADDS     r0,r0,#0x3c
        0x08000f72:    f7fffaad    ....    BL       Abc_AlphaBeta_Trans ; 0x80004d0
        0x08000f76:    ed8d0a00    ....    VSTR     s0,[sp,#0]
        0x08000f7a:    edcd0a01    ....    VSTR     s1,[sp,#4]
        0x08000f7e:    6820         h      LDR      r0,[r4,#0]
        0x08000f80:    f1000124    ..$.    ADD      r1,r0,#0x24
        0x08000f84:    4668        hF      MOV      r0,sp
        0x08000f86:    f7fffaed    ....    BL       AlphaBeta_Dq_Trans ; 0x8000564
        0x08000f8a:    6820         h      LDR      r0,[r4,#0]
        0x08000f8c:    ed800a11    ....    VSTR     s0,[r0,#0x44]
        0x08000f90:    edc00a12    ....    VSTR     s1,[r0,#0x48]
        0x08000f94:    f8da0000    ....    LDR      r0,[r10,#0]
        0x08000f98:    f001fbf2    ....    BL       IdCurrentPIController ; 0x8002780
        0x08000f9c:    6820         h      LDR      r0,[r4,#0]
        0x08000f9e:    eef00a40    ..@.    VMOV.F32 s1,s0
        0x08000fa2:    ed900a12    ....    VLDR     s0,[r0,#0x48]
        0x08000fa6:    eef01a60    ..`.    VMOV.F32 s3,s1
        0x08000faa:    f8d80000    ....    LDR      r0,[r8,#0]
        0x08000fae:    f001fcef    ....    BL       IqCurrentPIController ; 0x8002990
        0x08000fb2:    6830        0h      LDR      r0,[r6,#0]
        0x08000fb4:    4a1a        .J      LDR      r2,[pc,#104] ; [0x8001020] = 0x40490fdb
        0x08000fb6:    edc01a02    ....    VSTR     s3,[r0,#8]
        0x08000fba:    ed800a03    ....    VSTR     s0,[r0,#0xc]
        0x08000fbe:    6838        8h      LDR      r0,[r7,#0]
        0x08000fc0:    6829        )h      LDR      r1,[r5,#0]
        0x08000fc2:    ed900a02    ....    VLDR     s0,[r0,#8]
        0x08000fc6:    edd10a06    ....    VLDR     s1,[r1,#0x18]
        0x08000fca:    ed901a01    ....    VLDR     s2,[r0,#4]
        0x08000fce:    ee000a81    ....    VMLA.F32 s0,s1,s2
        0x08000fd2:    ee101a10    ....    VMOV     r1,s0
        0x08000fd6:    ed800a02    ....    VSTR     s0,[r0,#8]
        0x08000fda:    4291        .B      CMP      r1,r2
        0x08000fdc:    bfc8        ..      IT       GT
        0x08000fde:    ee300a48    0.H.    VSUBGT.F32 s0,s0,s16
        0x08000fe2:    dc08        ..      BGT      0x8000ff6 ; FOC_Method_IF_Luenberger_Debug + 650
        0x08000fe4:    ee101a10    ....    VMOV     r1,s0
        0x08000fe8:    4a0e        .J      LDR      r2,[pc,#56] ; [0x8001024] = 0xc0490fdb
        0x08000fea:    4291        .B      CMP      r1,r2
        0x08000fec:    bf88        ..      IT       HI
        0x08000fee:    ee300a08    0...    VADDHI.F32 s0,s0,s16
        0x08000ff2:    f67faed8    ....    BLS      0x8000da6 ; FOC_Method_IF_Luenberger_Debug + 58
        0x08000ff6:    ed800a02    ....    VSTR     s0,[r0,#8]
        0x08000ffa:    e6d4        ..      B        0x8000da6 ; FOC_Method_IF_Luenberger_Debug + 58
    $d
        0x08000ffc:    20000060    `..     DCD    536871008
        0x08001000:    20000094    ...     DCD    536871060
        0x08001004:    200000a4    ...     DCD    536871076
        0x08001008:    200000a8    ...     DCD    536871080
        0x0800100c:    20000098    ...     DCD    536871064
        0x08001010:    2000008c    ...     DCD    536871052
        0x08001014:    200000b8    ...     DCD    536871096
        0x08001018:    40c90fdb    ...@    DCD    1086918619
        0x0800101c:    00000000    ....    DCD    0
        0x08001020:    40490fdb    ..I@    DCD    1078530011
        0x08001024:    c0490fdb    ..I.    DCD    3226013659
    $t
    i.FOC_Method_IncABZ
    FOC_Method_IncABZ
        0x08001028:    e92d4ff0    -..O    PUSH     {r4-r11,lr}
        0x0800102c:    4d78        xM      LDR      r5,[pc,#480] ; [0x8001210] = 0x20000060
        0x0800102e:    4e77        wN      LDR      r6,[pc,#476] ; [0x800120c] = 0x20000094
        0x08001030:    f8dfa1e0    ....    LDR      r10,[pc,#480] ; [0x8001214] = 0x200000a4
        0x08001034:    4c78        xL      LDR      r4,[pc,#480] ; [0x8001218] = 0x20000098
        0x08001036:    4f79        yO      LDR      r7,[pc,#484] ; [0x800121c] = 0x2000008c
        0x08001038:    f8dfb1e4    ....    LDR      r11,[pc,#484] ; [0x8001220] = 0x200000ac
        0x0800103c:    f8df81e4    ....    LDR      r8,[pc,#484] ; [0x8001224] = 0x200000a8
        0x08001040:    f04f0900    O...    MOV      r9,#0
        0x08001044:    ed2d8b02    -...    VPUSH    {d8}
        0x08001048:    b083        ..      SUB      sp,sp,#0xc
        0x0800104a:    6829        )h      LDR      r1,[r5,#0]
        0x0800104c:    6830        0h      LDR      r0,[r6,#0]
        0x0800104e:    7c4a        J|      LDRB     r2,[r1,#0x11]
        0x08001050:    ed908a07    ....    VLDR     s16,[r0,#0x1c]
        0x08001054:    2a00        .*      CMP      r2,#0
        0x08001056:    d06a        j.      BEQ      0x800112e ; FOC_Method_IncABZ + 262
        0x08001058:    2a01        .*      CMP      r2,#1
        0x0800105a:    d07d        }.      BEQ      0x8001158 ; FOC_Method_IncABZ + 304
        0x0800105c:    2a02        .*      CMP      r2,#2
        0x0800105e:    bf1e        ..      ITTT     NE
        0x08001060:    b003        ..      ADDNE    sp,sp,#0xc
        0x08001062:    ecbd8b02    ....    VPOPNE   {d8}
        0x08001066:    e8bd8ff0    ....    POPNE    {r4-r11,pc}
        0x0800106a:    f001fbd7    ....    BL       IncAbzCalculateRealEleAngle ; 0x800281c
        0x0800106e:    6830        0h      LDR      r0,[r6,#0]
        0x08001070:    ed800a08    ....    VSTR     s0,[r0,#0x20]
        0x08001074:    f001f9cc    ....    BL       Hardware_GetSinCosVal ; 0x8002410
        0x08001078:    6820         h      LDR      r0,[r4,#0]
        0x0800107a:    ed800a09    ....    VSTR     s0,[r0,#0x24]
        0x0800107e:    edc00a0a    ....    VSTR     s1,[r0,#0x28]
        0x08001082:    303c        <0      ADDS     r0,r0,#0x3c
        0x08001084:    f7fffa24    ..$.    BL       Abc_AlphaBeta_Trans ; 0x80004d0
        0x08001088:    ed8d0a00    ....    VSTR     s0,[sp,#0]
        0x0800108c:    edcd0a01    ....    VSTR     s1,[sp,#4]
        0x08001090:    6820         h      LDR      r0,[r4,#0]
        0x08001092:    f1000124    ..$.    ADD      r1,r0,#0x24
        0x08001096:    4668        hF      MOV      r0,sp
        0x08001098:    f7fffa64    ..d.    BL       AlphaBeta_Dq_Trans ; 0x8000564
        0x0800109c:    6820         h      LDR      r0,[r4,#0]
        0x0800109e:    ed800a11    ....    VSTR     s0,[r0,#0x44]
        0x080010a2:    edc00a12    ....    VSTR     s1,[r0,#0x48]
        0x080010a6:    f8da0000    ....    LDR      r0,[r10,#0]
        0x080010aa:    f001fb69    ..i.    BL       IdCurrentPIController ; 0x8002780
        0x080010ae:    6820         h      LDR      r0,[r4,#0]
        0x080010b0:    eef01a40    ..@.    VMOV.F32 s3,s0
        0x080010b4:    ed900a12    ....    VLDR     s0,[r0,#0x48]
        0x080010b8:    f8d80000    ....    LDR      r0,[r8,#0]
        0x080010bc:    f001fc68    ..h.    BL       IqCurrentPIController ; 0x8002990
        0x080010c0:    4859        YH      LDR      r0,[pc,#356] ; [0x8001228] = 0x20000090
        0x080010c2:    6821        !h      LDR      r1,[r4,#0]
        0x080010c4:    6800        .h      LDR      r0,[r0,#0]
        0x080010c6:    edd10a12    ....    VLDR     s1,[r1,#0x48]
        0x080010ca:    ed901a02    ....    VLDR     s2,[r0,#8]
        0x080010ce:    ed902a01    ...*    VLDR     s4,[r0,#4]
        0x080010d2:    ee600a81    `...    VMUL.F32 s1,s1,s2
        0x080010d6:    ed911a11    ....    VLDR     s2,[r1,#0x44]
        0x080010da:    ee401ac8    @...    VMLS.F32 s3,s1,s16
        0x080010de:    edd00a06    ....    VLDR     s1,[r0,#0x18]
        0x080010e2:    6838        8h      LDR      r0,[r7,#0]
        0x080010e4:    ee410a02    A...    VMLA.F32 s1,s2,s4
        0x080010e8:    edc01a02    ....    VSTR     s3,[r0,#8]
        0x080010ec:    ee000a88    ....    VMLA.F32 s0,s1,s16
        0x080010f0:    ed800a03    ....    VSTR     s0,[r0,#0xc]
        0x080010f4:    6828        (h      LDR      r0,[r5,#0]
        0x080010f6:    6841        Ah      LDR      r1,[r0,#4]
        0x080010f8:    1c49        I.      ADDS     r1,r1,#1
        0x080010fa:    6041        A`      STR      r1,[r0,#4]
        0x080010fc:    290a        .)      CMP      r1,#0xa
        0x080010fe:    d111        ..      BNE      0x8001124 ; FOC_Method_IncABZ + 252
        0x08001100:    f8c09004    ....    STR      r9,[r0,#4]
        0x08001104:    6830        0h      LDR      r0,[r6,#0]
        0x08001106:    ed900a07    ....    VLDR     s0,[r0,#0x1c]
        0x0800110a:    f001fba1    ....    BL       IncAbzCalculateRealEleSpeed ; 0x8002850
        0x0800110e:    6830        0h      LDR      r0,[r6,#0]
        0x08001110:    ed800a07    ....    VSTR     s0,[r0,#0x1c]
        0x08001114:    f8db0000    ....    LDR      r0,[r11,#0]
        0x08001118:    f003ffb0    ....    BL       SpeedPIController ; 0x800507c
        0x0800111c:    f8d80000    ....    LDR      r0,[r8,#0]
        0x08001120:    ed800a00    ....    VSTR     s0,[r0,#0]
        0x08001124:    b003        ..      ADD      sp,sp,#0xc
        0x08001126:    ecbd8b02    ....    VPOP     {d8}
        0x0800112a:    e8bd8ff0    ....    POP      {r4-r11,pc}
        0x0800112e:    684a        Jh      LDR      r2,[r1,#4]
        0x08001130:    ed9f0a3e    ..>.    VLDR     s0,[pc,#248] ; [0x800122c] = 0
        0x08001134:    1c50        P.      ADDS     r0,r2,#1
        0x08001136:    6048        H`      STR      r0,[r1,#4]
        0x08001138:    4836        6H      LDR      r0,[pc,#216] ; [0x8001214] = 0x200000a4
        0x0800113a:    f5b26ffa    ...o    CMP      r2,#0x7d0
        0x0800113e:    6800        .h      LDR      r0,[r0,#0]
        0x08001140:    d237        7.      BCS      0x80011b2 ; FOC_Method_IncABZ + 394
        0x08001142:    eef10a00    ....    VMOV.F32 s1,#4.00000000
        0x08001146:    edc00a00    ....    VSTR     s1,[r0,#0]
        0x0800114a:    f8d80000    ....    LDR      r0,[r8,#0]
        0x0800114e:    ed800a00    ....    VSTR     s0,[r0,#0]
        0x08001152:    f001f95d    ..].    BL       Hardware_GetSinCosVal ; 0x8002410
        0x08001156:    e000        ..      B        0x800115a ; FOC_Method_IncABZ + 306
        0x08001158:    e049        I.      B        0x80011ee ; FOC_Method_IncABZ + 454
        0x0800115a:    6820         h      LDR      r0,[r4,#0]
        0x0800115c:    ed800a09    ....    VSTR     s0,[r0,#0x24]
        0x08001160:    edc00a0a    ....    VSTR     s1,[r0,#0x28]
        0x08001164:    303c        <0      ADDS     r0,r0,#0x3c
        0x08001166:    f7fff9b3    ....    BL       Abc_AlphaBeta_Trans ; 0x80004d0
        0x0800116a:    ed8d0a00    ....    VSTR     s0,[sp,#0]
        0x0800116e:    edcd0a01    ....    VSTR     s1,[sp,#4]
        0x08001172:    6820         h      LDR      r0,[r4,#0]
        0x08001174:    f1000124    ..$.    ADD      r1,r0,#0x24
        0x08001178:    4668        hF      MOV      r0,sp
        0x0800117a:    f7fff9f3    ....    BL       AlphaBeta_Dq_Trans ; 0x8000564
        0x0800117e:    6820         h      LDR      r0,[r4,#0]
        0x08001180:    ed800a11    ....    VSTR     s0,[r0,#0x44]
        0x08001184:    edc00a12    ....    VSTR     s1,[r0,#0x48]
        0x08001188:    f8da0000    ....    LDR      r0,[r10,#0]
        0x0800118c:    f001faf8    ....    BL       IdCurrentPIController ; 0x8002780
        0x08001190:    6820         h      LDR      r0,[r4,#0]
        0x08001192:    eef00a40    ..@.    VMOV.F32 s1,s0
        0x08001196:    ed900a12    ....    VLDR     s0,[r0,#0x48]
        0x0800119a:    eef01a60    ..`.    VMOV.F32 s3,s1
        0x0800119e:    f8d80000    ....    LDR      r0,[r8,#0]
        0x080011a2:    f001fbf5    ....    BL       IqCurrentPIController ; 0x8002990
        0x080011a6:    6838        8h      LDR      r0,[r7,#0]
        0x080011a8:    edc01a02    ....    VSTR     s3,[r0,#8]
        0x080011ac:    ed800a03    ....    VSTR     s0,[r0,#0xc]
        0x080011b0:    e7b8        ..      B        0x8001124 ; FOC_Method_IncABZ + 252
        0x080011b2:    f8c19004    ....    STR      r9,[r1,#4]
        0x080011b6:    ed800a00    ....    VSTR     s0,[r0,#0]
        0x080011ba:    f8db0000    ....    LDR      r0,[r11,#0]
        0x080011be:    eddf0a1c    ....    VLDR     s1,[pc,#112] ; [0x8001230] = 0x437b53d2
        0x080011c2:    2401        .$      MOVS     r4,#1
        0x080011c4:    edc00a00    ....    VSTR     s1,[r0,#0]
        0x080011c8:    6838        8h      LDR      r0,[r7,#0]
        0x080011ca:    f24041e2    @..A    MOV      r1,#0x4e2
        0x080011ce:    ed800a03    ....    VSTR     s0,[r0,#0xc]
        0x080011d2:    ed800a02    ....    VSTR     s0,[r0,#8]
        0x080011d6:    6830        0h      LDR      r0,[r6,#0]
        0x080011d8:    7004        .p      STRB     r4,[r0,#0]
        0x080011da:    6181        .a      STR      r1,[r0,#0x18]
        0x080011dc:    f007fba0    ....    BL       reset_CurrentPICHandler ; 0x8008920
        0x080011e0:    f24040e2    @..@    MOV      r0,#0x4e2
        0x080011e4:    f001fa34    ..4.    BL       Hardware_SetABZCounter ; 0x8002650
        0x080011e8:    6828        (h      LDR      r0,[r5,#0]
        0x080011ea:    7444        Dt      STRB     r4,[r0,#0x11]
        0x080011ec:    e79a        ..      B        0x8001124 ; FOC_Method_IncABZ + 252
        0x080011ee:    6848        Hh      LDR      r0,[r1,#4]
        0x080011f0:    1c42        B.      ADDS     r2,r0,#1
        0x080011f2:    604a        J`      STR      r2,[r1,#4]
        0x080011f4:    2864        d(      CMP      r0,#0x64
        0x080011f6:    d995        ..      BLS      0x8001124 ; FOC_Method_IncABZ + 252
        0x080011f8:    2000        .       MOVS     r0,#0
        0x080011fa:    f001fa37    ..7.    BL       Hardware_SetPulseCounter ; 0x800266c
        0x080011fe:    6828        (h      LDR      r0,[r5,#0]
        0x08001200:    2102        .!      MOVS     r1,#2
        0x08001202:    f8c09004    ....    STR      r9,[r0,#4]
        0x08001206:    7441        At      STRB     r1,[r0,#0x11]
        0x08001208:    e78c        ..      B        0x8001124 ; FOC_Method_IncABZ + 252
    $d
        0x0800120a:    0000        ..      DCW    0
        0x0800120c:    20000094    ...     DCD    536871060
        0x08001210:    20000060    `..     DCD    536871008
        0x08001214:    200000a4    ...     DCD    536871076
        0x08001218:    20000098    ...     DCD    536871064
        0x0800121c:    2000008c    ...     DCD    536871052
        0x08001220:    200000ac    ...     DCD    536871084
        0x08001224:    200000a8    ...     DCD    536871080
        0x08001228:    20000090    ...     DCD    536871056
        0x0800122c:    00000000    ....    DCD    0
        0x08001230:    437b53d2    .S{C    DCD    1132155858
    $t
    i.FOC_Method_NonlinearFlux
    FOC_Method_NonlinearFlux
        0x08001234:    e92d41f0    -..A    PUSH     {r4-r8,lr}
        0x08001238:    4e4d        MN      LDR      r6,[pc,#308] ; [0x8001370] = 0x20000060
        0x0800123a:    4f4e        NO      LDR      r7,[pc,#312] ; [0x8001374] = 0x200000a4
        0x0800123c:    b088        ..      SUB      sp,sp,#0x20
        0x0800123e:    6830        0h      LDR      r0,[r6,#0]
        0x08001240:    7c40        @|      LDRB     r0,[r0,#0x11]
        0x08001242:    2800        .(      CMP      r0,#0
        0x08001244:    d07e        ~.      BEQ      0x8001344 ; FOC_Method_NonlinearFlux + 272
        0x08001246:    2801        .(      CMP      r0,#1
        0x08001248:    bf1c        ..      ITT      NE
        0x0800124a:    b008        ..      ADDNE    sp,sp,#0x20
        0x0800124c:    e8bd81f0    ....    POPNE    {r4-r8,pc}
        0x08001250:    4d49        IM      LDR      r5,[pc,#292] ; [0x8001378] = 0x200000b4
        0x08001252:    6828        (h      LDR      r0,[r5,#0]
        0x08001254:    ed900a0b    ....    VLDR     s0,[r0,#0x2c]
        0x08001258:    f001f8da    ....    BL       Hardware_GetSinCosVal ; 0x8002410
        0x0800125c:    4c47        GL      LDR      r4,[pc,#284] ; [0x800137c] = 0x20000098
        0x0800125e:    6820         h      LDR      r0,[r4,#0]
        0x08001260:    ed800a09    ....    VSTR     s0,[r0,#0x24]
        0x08001264:    edc00a0a    ....    VSTR     s1,[r0,#0x28]
        0x08001268:    303c        <0      ADDS     r0,r0,#0x3c
        0x0800126a:    f7fff931    ..1.    BL       Abc_AlphaBeta_Trans ; 0x80004d0
        0x0800126e:    ed8d0a04    ....    VSTR     s0,[sp,#0x10]
        0x08001272:    edcd0a05    ....    VSTR     s1,[sp,#0x14]
        0x08001276:    6820         h      LDR      r0,[r4,#0]
        0x08001278:    ee102a90    ...*    VMOV     r2,s1
        0x0800127c:    f1000124    ..$.    ADD      r1,r0,#0x24
        0x08001280:    ed800a13    ....    VSTR     s0,[r0,#0x4c]
        0x08001284:    6502        .e      STR      r2,[r0,#0x50]
        0x08001286:    a804        ..      ADD      r0,sp,#0x10
        0x08001288:    f7fff96c    ..l.    BL       AlphaBeta_Dq_Trans ; 0x8000564
        0x0800128c:    6820         h      LDR      r0,[r4,#0]
        0x0800128e:    ed800a11    ....    VSTR     s0,[r0,#0x44]
        0x08001292:    edc00a12    ....    VSTR     s1,[r0,#0x48]
        0x08001296:    6838        8h      LDR      r0,[r7,#0]
        0x08001298:    f001fa72    ..r.    BL       IdCurrentPIController ; 0x8002780
        0x0800129c:    ed8d0a02    ....    VSTR     s0,[sp,#8]
        0x080012a0:    6820         h      LDR      r0,[r4,#0]
        0x080012a2:    4f37        7O      LDR      r7,[pc,#220] ; [0x8001380] = 0x200000a8
        0x080012a4:    ed900a12    ....    VLDR     s0,[r0,#0x48]
        0x080012a8:    6838        8h      LDR      r0,[r7,#0]
        0x080012aa:    f001fb71    ..q.    BL       IqCurrentPIController ; 0x8002990
        0x080012ae:    ed8d0a03    ....    VSTR     s0,[sp,#0xc]
        0x080012b2:    6820         h      LDR      r0,[r4,#0]
        0x080012b4:    4c33        3L      LDR      r4,[pc,#204] ; [0x8001384] = 0x20000090
        0x080012b6:    682a        *h      LDR      r2,[r5,#0]
        0x080012b8:    edd00a12    ....    VLDR     s1,[r0,#0x48]
        0x080012bc:    6821        !h      LDR      r1,[r4,#0]
        0x080012be:    ed911a02    ....    VLDR     s2,[r1,#8]
        0x080012c2:    ee601a81    `...    VMUL.F32 s3,s1,s2
        0x080012c6:    ed921a0a    ....    VLDR     s2,[r2,#0x28]
        0x080012ca:    eddd0a02    ....    VLDR     s1,[sp,#8]
        0x080012ce:    ee410ac1    A...    VMLS.F32 s1,s3,s2
        0x080012d2:    edcd0a02    ....    VSTR     s1,[sp,#8]
        0x080012d6:    edd11a06    ....    VLDR     s3,[r1,#0x18]
        0x080012da:    ed902a11    ...*    VLDR     s4,[r0,#0x44]
        0x080012de:    edd12a01    ...*    VLDR     s5,[r1,#4]
        0x080012e2:    4929        )I      LDR      r1,[pc,#164] ; [0x8001388] = 0x2000008c
        0x080012e4:    ee421a22    B.".    VMLA.F32 s3,s4,s5
        0x080012e8:    ee010a81    ....    VMLA.F32 s0,s3,s2
        0x080012ec:    ed8d0a03    ....    VSTR     s0,[sp,#0xc]
        0x080012f0:    6809        .h      LDR      r1,[r1,#0]
        0x080012f2:    edc10a02    ....    VSTR     s1,[r1,#8]
        0x080012f6:    ed9d0a03    ....    VLDR     s0,[sp,#0xc]
        0x080012fa:    ed810a03    ....    VSTR     s0,[r1,#0xc]
        0x080012fe:    f1000124    ..$.    ADD      r1,r0,#0x24
        0x08001302:    a802        ..      ADD      r0,sp,#8
        0x08001304:    f7fff9af    ....    BL       Dq_AlphaBeta_Trans ; 0x8000666
        0x08001308:    ed8d0a06    ....    VSTR     s0,[sp,#0x18]
        0x0800130c:    edcd0a07    ....    VSTR     s1,[sp,#0x1c]
        0x08001310:    a804        ..      ADD      r0,sp,#0x10
        0x08001312:    f8df8078    ..x.    LDR      r8,[pc,#120] ; [0x800138c] = 0x200000ac
        0x08001316:    9000        ..      STR      r0,[sp,#0]
        0x08001318:    ab06        ..      ADD      r3,sp,#0x18
        0x0800131a:    f8d82000    ...     LDR      r2,[r8,#0]
        0x0800131e:    6829        )h      LDR      r1,[r5,#0]
        0x08001320:    6820         h      LDR      r0,[r4,#0]
        0x08001322:    f002fee5    ....    BL       NonlinearFluxObsProcess ; 0x80040f0
        0x08001326:    6830        0h      LDR      r0,[r6,#0]
        0x08001328:    6841        Ah      LDR      r1,[r0,#4]
        0x0800132a:    1c49        I.      ADDS     r1,r1,#1
        0x0800132c:    6041        A`      STR      r1,[r0,#4]
        0x0800132e:    290a        .)      CMP      r1,#0xa
        0x08001330:    bf1c        ..      ITT      NE
        0x08001332:    b008        ..      ADDNE    sp,sp,#0x20
        0x08001334:    e8bd81f0    ....    POPNE    {r4-r8,pc}
        0x08001338:    2100        .!      MOVS     r1,#0
        0x0800133a:    6041        A`      STR      r1,[r0,#4]
        0x0800133c:    6828        (h      LDR      r0,[r5,#0]
        0x0800133e:    ed900a0a    ....    VLDR     s0,[r0,#0x28]
        0x08001342:    e000        ..      B        0x8001346 ; FOC_Method_NonlinearFlux + 274
        0x08001344:    e009        ..      B        0x800135a ; FOC_Method_NonlinearFlux + 294
        0x08001346:    f8d80000    ....    LDR      r0,[r8,#0]
        0x0800134a:    f003fe97    ....    BL       SpeedPIController ; 0x800507c
        0x0800134e:    6838        8h      LDR      r0,[r7,#0]
        0x08001350:    ed800a00    ....    VSTR     s0,[r0,#0]
        0x08001354:    b008        ..      ADD      sp,sp,#0x20
        0x08001356:    e8bd81f0    ....    POP      {r4-r8,pc}
        0x0800135a:    6838        8h      LDR      r0,[r7,#0]
        0x0800135c:    ed9f0a0c    ....    VLDR     s0,[pc,#48] ; [0x8001390] = 0
        0x08001360:    ed800a00    ....    VSTR     s0,[r0,#0]
        0x08001364:    6831        1h      LDR      r1,[r6,#0]
        0x08001366:    2001        .       MOVS     r0,#1
        0x08001368:    7448        Ht      STRB     r0,[r1,#0x11]
        0x0800136a:    b008        ..      ADD      sp,sp,#0x20
        0x0800136c:    e8bd81f0    ....    POP      {r4-r8,pc}
    $d
        0x08001370:    20000060    `..     DCD    536871008
        0x08001374:    200000a4    ...     DCD    536871076
        0x08001378:    200000b4    ...     DCD    536871092
        0x0800137c:    20000098    ...     DCD    536871064
        0x08001380:    200000a8    ...     DCD    536871080
        0x08001384:    20000090    ...     DCD    536871056
        0x08001388:    2000008c    ...     DCD    536871052
        0x0800138c:    200000ac    ...     DCD    536871084
        0x08001390:    00000000    ....    DCD    0
    $t
    i.FOC_Method_NonlinearFlux_Debug
    FOC_Method_NonlinearFlux_Debug
        0x08001394:    e92d47f0    -..G    PUSH     {r4-r10,lr}
        0x08001398:    4d8c        .M      LDR      r5,[pc,#560] ; [0x80015cc] = 0x20000060
        0x0800139a:    f8dfa234    ..4.    LDR      r10,[pc,#564] ; [0x80015d0] = 0x200000a4
        0x0800139e:    4c8d        .L      LDR      r4,[pc,#564] ; [0x80015d4] = 0x20000098
        0x080013a0:    6828        (h      LDR      r0,[r5,#0]
        0x080013a2:    4e8d        .N      LDR      r6,[pc,#564] ; [0x80015d8] = 0x2000008c
        0x080013a4:    f8df8234    ..4.    LDR      r8,[pc,#564] ; [0x80015dc] = 0x20000094
        0x080013a8:    7c41        A|      LDRB     r1,[r0,#0x11]
        0x080013aa:    4f8d        .O      LDR      r7,[pc,#564] ; [0x80015e0] = 0x200000a8
        0x080013ac:    b088        ..      SUB      sp,sp,#0x20
        0x080013ae:    f04f0900    O...    MOV      r9,#0
        0x080013b2:    2900        .)      CMP      r1,#0
        0x080013b4:    d07e        ~.      BEQ      0x80014b4 ; FOC_Method_NonlinearFlux_Debug + 288
        0x080013b6:    2901        .)      CMP      r1,#1
        0x080013b8:    f00080f4    ....    BEQ.W    0x80015a4 ; FOC_Method_NonlinearFlux_Debug + 528
        0x080013bc:    2902        .)      CMP      r1,#2
        0x080013be:    bf1c        ..      ITT      NE
        0x080013c0:    b008        ..      ADDNE    sp,sp,#0x20
        0x080013c2:    e8bd87f0    ....    POPNE    {r4-r10,pc}
        0x080013c6:    f8d80000    ....    LDR      r0,[r8,#0]
        0x080013ca:    f001fa27    ..'.    BL       IncAbzCalculateRealEleAngle ; 0x800281c
        0x080013ce:    f8d80000    ....    LDR      r0,[r8,#0]
        0x080013d2:    f8df8210    ....    LDR      r8,[pc,#528] ; [0x80015e4] = 0x200000b4
        0x080013d6:    ed800a08    ....    VSTR     s0,[r0,#0x20]
        0x080013da:    f8d80000    ....    LDR      r0,[r8,#0]
        0x080013de:    ed900a0b    ....    VLDR     s0,[r0,#0x2c]
        0x080013e2:    f001f815    ....    BL       Hardware_GetSinCosVal ; 0x8002410
        0x080013e6:    6820         h      LDR      r0,[r4,#0]
        0x080013e8:    ed800a09    ....    VSTR     s0,[r0,#0x24]
        0x080013ec:    edc00a0a    ....    VSTR     s1,[r0,#0x28]
        0x080013f0:    303c        <0      ADDS     r0,r0,#0x3c
        0x080013f2:    f7fff86d    ..m.    BL       Abc_AlphaBeta_Trans ; 0x80004d0
        0x080013f6:    ed8d0a04    ....    VSTR     s0,[sp,#0x10]
        0x080013fa:    edcd0a05    ....    VSTR     s1,[sp,#0x14]
        0x080013fe:    6820         h      LDR      r0,[r4,#0]
        0x08001400:    ee102a90    ...*    VMOV     r2,s1
        0x08001404:    f1000124    ..$.    ADD      r1,r0,#0x24
        0x08001408:    ed800a13    ....    VSTR     s0,[r0,#0x4c]
        0x0800140c:    6502        .e      STR      r2,[r0,#0x50]
        0x0800140e:    a804        ..      ADD      r0,sp,#0x10
        0x08001410:    f7fff8a8    ....    BL       AlphaBeta_Dq_Trans ; 0x8000564
        0x08001414:    6820         h      LDR      r0,[r4,#0]
        0x08001416:    ed800a11    ....    VSTR     s0,[r0,#0x44]
        0x0800141a:    edc00a12    ....    VSTR     s1,[r0,#0x48]
        0x0800141e:    f8da0000    ....    LDR      r0,[r10,#0]
        0x08001422:    f001f9ad    ....    BL       IdCurrentPIController ; 0x8002780
        0x08001426:    ed8d0a02    ....    VSTR     s0,[sp,#8]
        0x0800142a:    6820         h      LDR      r0,[r4,#0]
        0x0800142c:    ed900a12    ....    VLDR     s0,[r0,#0x48]
        0x08001430:    6838        8h      LDR      r0,[r7,#0]
        0x08001432:    f001faad    ....    BL       IqCurrentPIController ; 0x8002990
        0x08001436:    ed8d0a03    ....    VSTR     s0,[sp,#0xc]
        0x0800143a:    6820         h      LDR      r0,[r4,#0]
        0x0800143c:    4c6a        jL      LDR      r4,[pc,#424] ; [0x80015e8] = 0x20000090
        0x0800143e:    f8d82000    ...     LDR      r2,[r8,#0]
        0x08001442:    edd00a12    ....    VLDR     s1,[r0,#0x48]
        0x08001446:    6821        !h      LDR      r1,[r4,#0]
        0x08001448:    ed911a02    ....    VLDR     s2,[r1,#8]
        0x0800144c:    ee601a81    `...    VMUL.F32 s3,s1,s2
        0x08001450:    ed921a0a    ....    VLDR     s2,[r2,#0x28]
        0x08001454:    eddd0a02    ....    VLDR     s1,[sp,#8]
        0x08001458:    ee410ac1    A...    VMLS.F32 s1,s3,s2
        0x0800145c:    edcd0a02    ....    VSTR     s1,[sp,#8]
        0x08001460:    edd11a06    ....    VLDR     s3,[r1,#0x18]
        0x08001464:    ed902a11    ...*    VLDR     s4,[r0,#0x44]
        0x08001468:    edd12a01    ...*    VLDR     s5,[r1,#4]
        0x0800146c:    ee421a22    B.".    VMLA.F32 s3,s4,s5
        0x08001470:    ee010a81    ....    VMLA.F32 s0,s3,s2
        0x08001474:    ed8d0a03    ....    VSTR     s0,[sp,#0xc]
        0x08001478:    6831        1h      LDR      r1,[r6,#0]
        0x0800147a:    edc10a02    ....    VSTR     s1,[r1,#8]
        0x0800147e:    ed9d0a03    ....    VLDR     s0,[sp,#0xc]
        0x08001482:    ed810a03    ....    VSTR     s0,[r1,#0xc]
        0x08001486:    f1000124    ..$.    ADD      r1,r0,#0x24
        0x0800148a:    a802        ..      ADD      r0,sp,#8
        0x0800148c:    f7fff8eb    ....    BL       Dq_AlphaBeta_Trans ; 0x8000666
        0x08001490:    ed8d0a06    ....    VSTR     s0,[sp,#0x18]
        0x08001494:    edcd0a07    ....    VSTR     s1,[sp,#0x1c]
        0x08001498:    a804        ..      ADD      r0,sp,#0x10
        0x0800149a:    4e54        TN      LDR      r6,[pc,#336] ; [0x80015ec] = 0x200000ac
        0x0800149c:    9000        ..      STR      r0,[sp,#0]
        0x0800149e:    ab06        ..      ADD      r3,sp,#0x18
        0x080014a0:    6832        2h      LDR      r2,[r6,#0]
        0x080014a2:    f8d81000    ....    LDR      r1,[r8,#0]
        0x080014a6:    6820         h      LDR      r0,[r4,#0]
        0x080014a8:    f002fe22    ..".    BL       NonlinearFluxObsProcess ; 0x80040f0
        0x080014ac:    6828        (h      LDR      r0,[r5,#0]
        0x080014ae:    6841        Ah      LDR      r1,[r0,#4]
        0x080014b0:    1c49        I.      ADDS     r1,r1,#1
        0x080014b2:    e000        ..      B        0x80014b6 ; FOC_Method_NonlinearFlux_Debug + 290
        0x080014b4:    e014        ..      B        0x80014e0 ; FOC_Method_NonlinearFlux_Debug + 332
        0x080014b6:    6041        A`      STR      r1,[r0,#4]
        0x080014b8:    290a        .)      CMP      r1,#0xa
        0x080014ba:    bf1c        ..      ITT      NE
        0x080014bc:    b008        ..      ADDNE    sp,sp,#0x20
        0x080014be:    e8bd87f0    ....    POPNE    {r4-r10,pc}
        0x080014c2:    f8c09004    ....    STR      r9,[r0,#4]
        0x080014c6:    f8d80000    ....    LDR      r0,[r8,#0]
        0x080014ca:    ed900a0a    ....    VLDR     s0,[r0,#0x28]
        0x080014ce:    6830        0h      LDR      r0,[r6,#0]
        0x080014d0:    f003fdd4    ....    BL       SpeedPIController ; 0x800507c
        0x080014d4:    6838        8h      LDR      r0,[r7,#0]
        0x080014d6:    ed800a00    ....    VSTR     s0,[r0,#0]
        0x080014da:    b008        ..      ADD      sp,sp,#0x20
        0x080014dc:    e8bd87f0    ....    POP      {r4-r10,pc}
        0x080014e0:    6842        Bh      LDR      r2,[r0,#4]
        0x080014e2:    f6446320    D. c    MOV      r3,#0x4e20
        0x080014e6:    1c51        Q.      ADDS     r1,r2,#1
        0x080014e8:    ed9f0a41    ..A.    VLDR     s0,[pc,#260] ; [0x80015f0] = 0
        0x080014ec:    6041        A`      STR      r1,[r0,#4]
        0x080014ee:    4938        8I      LDR      r1,[pc,#224] ; [0x80015d0] = 0x200000a4
        0x080014f0:    429a        .B      CMP      r2,r3
        0x080014f2:    6809        .h      LDR      r1,[r1,#0]
        0x080014f4:    d23b        ;.      BCS      0x800156e ; FOC_Method_NonlinearFlux_Debug + 474
        0x080014f6:    483f        ?H      LDR      r0,[pc,#252] ; [0x80015f4] = 0x200000b8
        0x080014f8:    6800        .h      LDR      r0,[r0,#0]
        0x080014fa:    edd00a03    ....    VLDR     s1,[r0,#0xc]
        0x080014fe:    edc10a00    ....    VSTR     s1,[r1,#0]
        0x08001502:    6838        8h      LDR      r0,[r7,#0]
        0x08001504:    ed800a00    ....    VSTR     s0,[r0,#0]
        0x08001508:    f000ff82    ....    BL       Hardware_GetSinCosVal ; 0x8002410
        0x0800150c:    6820         h      LDR      r0,[r4,#0]
        0x0800150e:    ed800a09    ....    VSTR     s0,[r0,#0x24]
        0x08001512:    edc00a0a    ....    VSTR     s1,[r0,#0x28]
        0x08001516:    303c        <0      ADDS     r0,r0,#0x3c
        0x08001518:    f7feffda    ....    BL       Abc_AlphaBeta_Trans ; 0x80004d0
        0x0800151c:    ed8d0a04    ....    VSTR     s0,[sp,#0x10]
        0x08001520:    edcd0a05    ....    VSTR     s1,[sp,#0x14]
        0x08001524:    6820         h      LDR      r0,[r4,#0]
        0x08001526:    f1000124    ..$.    ADD      r1,r0,#0x24
        0x0800152a:    a804        ..      ADD      r0,sp,#0x10
        0x0800152c:    f7fff81a    ....    BL       AlphaBeta_Dq_Trans ; 0x8000564
        0x08001530:    6820         h      LDR      r0,[r4,#0]
        0x08001532:    ed800a11    ....    VSTR     s0,[r0,#0x44]
        0x08001536:    edc00a12    ....    VSTR     s1,[r0,#0x48]
        0x0800153a:    f8da0000    ....    LDR      r0,[r10,#0]
        0x0800153e:    f001f91f    ....    BL       IdCurrentPIController ; 0x8002780
        0x08001542:    ed8d0a02    ....    VSTR     s0,[sp,#8]
        0x08001546:    6820         h      LDR      r0,[r4,#0]
        0x08001548:    ed900a12    ....    VLDR     s0,[r0,#0x48]
        0x0800154c:    6838        8h      LDR      r0,[r7,#0]
        0x0800154e:    f001fa1f    ....    BL       IqCurrentPIController ; 0x8002990
        0x08001552:    ed8d0a03    ....    VSTR     s0,[sp,#0xc]
        0x08001556:    6830        0h      LDR      r0,[r6,#0]
        0x08001558:    ed9d0a02    ....    VLDR     s0,[sp,#8]
        0x0800155c:    ed800a02    ....    VSTR     s0,[r0,#8]
        0x08001560:    ed9d0a03    ....    VLDR     s0,[sp,#0xc]
        0x08001564:    ed800a03    ....    VSTR     s0,[r0,#0xc]
        0x08001568:    b008        ..      ADD      sp,sp,#0x20
        0x0800156a:    e8bd87f0    ....    POP      {r4-r10,pc}
        0x0800156e:    f8c09004    ....    STR      r9,[r0,#4]
        0x08001572:    ed810a00    ....    VSTR     s0,[r1,#0]
        0x08001576:    6830        0h      LDR      r0,[r6,#0]
        0x08001578:    2401        .$      MOVS     r4,#1
        0x0800157a:    f24041e2    @..A    MOV      r1,#0x4e2
        0x0800157e:    ed800a03    ....    VSTR     s0,[r0,#0xc]
        0x08001582:    ed800a02    ....    VSTR     s0,[r0,#8]
        0x08001586:    f8d80000    ....    LDR      r0,[r8,#0]
        0x0800158a:    7004        .p      STRB     r4,[r0,#0]
        0x0800158c:    6181        .a      STR      r1,[r0,#0x18]
        0x0800158e:    f007f9c7    ....    BL       reset_CurrentPICHandler ; 0x8008920
        0x08001592:    f24040e2    @..@    MOV      r0,#0x4e2
        0x08001596:    f001f85b    ..[.    BL       Hardware_SetABZCounter ; 0x8002650
        0x0800159a:    6828        (h      LDR      r0,[r5,#0]
        0x0800159c:    7444        Dt      STRB     r4,[r0,#0x11]
        0x0800159e:    b008        ..      ADD      sp,sp,#0x20
        0x080015a0:    e8bd87f0    ....    POP      {r4-r10,pc}
        0x080015a4:    6841        Ah      LDR      r1,[r0,#4]
        0x080015a6:    1c4a        J.      ADDS     r2,r1,#1
        0x080015a8:    6042        B`      STR      r2,[r0,#4]
        0x080015aa:    2964        d)      CMP      r1,#0x64
        0x080015ac:    bf9c        ..      ITT      LS
        0x080015ae:    b008        ..      ADDLS    sp,sp,#0x20
        0x080015b0:    e8bd87f0    ....    POPLS    {r4-r10,pc}
        0x080015b4:    2000        .       MOVS     r0,#0
        0x080015b6:    f001f859    ..Y.    BL       Hardware_SetPulseCounter ; 0x800266c
        0x080015ba:    6828        (h      LDR      r0,[r5,#0]
        0x080015bc:    2102        .!      MOVS     r1,#2
        0x080015be:    f8c09004    ....    STR      r9,[r0,#4]
        0x080015c2:    7441        At      STRB     r1,[r0,#0x11]
        0x080015c4:    b008        ..      ADD      sp,sp,#0x20
        0x080015c6:    e8bd87f0    ....    POP      {r4-r10,pc}
    $d
        0x080015ca:    0000        ..      DCW    0
        0x080015cc:    20000060    `..     DCD    536871008
        0x080015d0:    200000a4    ...     DCD    536871076
        0x080015d4:    20000098    ...     DCD    536871064
        0x080015d8:    2000008c    ...     DCD    536871052
        0x080015dc:    20000094    ...     DCD    536871060
        0x080015e0:    200000a8    ...     DCD    536871080
        0x080015e4:    200000b4    ...     DCD    536871092
        0x080015e8:    20000090    ...     DCD    536871056
        0x080015ec:    200000ac    ...     DCD    536871084
        0x080015f0:    00000000    ....    DCD    0
        0x080015f4:    200000b8    ...     DCD    536871096
    $t
    i.FOC_Method_ParIdentify
    FOC_Method_ParIdentify
        0x080015f8:    b5f0        ..      PUSH     {r4-r7,lr}
        0x080015fa:    4d4e        NM      LDR      r5,[pc,#312] ; [0x8001734] = 0x20000060
        0x080015fc:    4e4e        NN      LDR      r6,[pc,#312] ; [0x8001738] = 0x2000008c
        0x080015fe:    4c4f        OL      LDR      r4,[pc,#316] ; [0x800173c] = 0x20000098
        0x08001600:    6828        (h      LDR      r0,[r5,#0]
        0x08001602:    b083        ..      SUB      sp,sp,#0xc
        0x08001604:    2700        .'      MOVS     r7,#0
        0x08001606:    7c41        A|      LDRB     r1,[r0,#0x11]
        0x08001608:    b1f1        ..      CBZ      r1,0x8001648 ; FOC_Method_ParIdentify + 80
        0x0800160a:    2901        .)      CMP      r1,#1
        0x0800160c:    d068        h.      BEQ      0x80016e0 ; FOC_Method_ParIdentify + 232
        0x0800160e:    2902        .)      CMP      r1,#2
        0x08001610:    bf1c        ..      ITT      NE
        0x08001612:    b003        ..      ADDNE    sp,sp,#0xc
        0x08001614:    bdf0        ..      POPNE    {r4-r7,pc}
        0x08001616:    6820         h      LDR      r0,[r4,#0]
        0x08001618:    303c        <0      ADDS     r0,r0,#0x3c
        0x0800161a:    f7feff59    ..Y.    BL       Abc_AlphaBeta_Trans ; 0x80004d0
        0x0800161e:    ed8d0a00    ....    VSTR     s0,[sp,#0]
        0x08001622:    edcd0a01    ....    VSTR     s1,[sp,#4]
        0x08001626:    6820         h      LDR      r0,[r4,#0]
        0x08001628:    f1000124    ..$.    ADD      r1,r0,#0x24
        0x0800162c:    4668        hF      MOV      r0,sp
        0x0800162e:    f7feff99    ....    BL       AlphaBeta_Dq_Trans ; 0x8000564
        0x08001632:    6822        "h      LDR      r2,[r4,#0]
        0x08001634:    4942        BI      LDR      r1,[pc,#264] ; [0x8001740] = 0x20000050
        0x08001636:    ed820a11    ....    VSTR     s0,[r2,#0x44]
        0x0800163a:    edc20a12    ....    VSTR     s1,[r2,#0x48]
        0x0800163e:    6828        (h      LDR      r0,[r5,#0]
        0x08001640:    6843        Ch      LDR      r3,[r0,#4]
        0x08001642:    2b19        .+      CMP      r3,#0x19
        0x08001644:    d15d        ].      BNE      0x8001702 ; FOC_Method_ParIdentify + 266
        0x08001646:    e055        U.      B        0x80016f4 ; FOC_Method_ParIdentify + 252
        0x08001648:    6841        Ah      LDR      r1,[r0,#4]
        0x0800164a:    ed9f0a3e    ..>.    VLDR     s0,[pc,#248] ; [0x8001744] = 0
        0x0800164e:    1c4a        J.      ADDS     r2,r1,#1
        0x08001650:    6042        B`      STR      r2,[r0,#4]
        0x08001652:    f5b16ffa    ...o    CMP      r1,#0x7d0
        0x08001656:    d236        6.      BCS      0x80016c6 ; FOC_Method_ParIdentify + 206
        0x08001658:    4d3b        ;M      LDR      r5,[pc,#236] ; [0x8001748] = 0x200000a4
        0x0800165a:    4f3c        <O      LDR      r7,[pc,#240] ; [0x800174c] = 0x200000a8
        0x0800165c:    eef10a00    ....    VMOV.F32 s1,#4.00000000
        0x08001660:    6828        (h      LDR      r0,[r5,#0]
        0x08001662:    edc00a00    ....    VSTR     s1,[r0,#0]
        0x08001666:    6838        8h      LDR      r0,[r7,#0]
        0x08001668:    ed800a00    ....    VSTR     s0,[r0,#0]
        0x0800166c:    f000fed0    ....    BL       Hardware_GetSinCosVal ; 0x8002410
        0x08001670:    6820         h      LDR      r0,[r4,#0]
        0x08001672:    ed800a09    ....    VSTR     s0,[r0,#0x24]
        0x08001676:    edc00a0a    ....    VSTR     s1,[r0,#0x28]
        0x0800167a:    303c        <0      ADDS     r0,r0,#0x3c
        0x0800167c:    f7feff28    ..(.    BL       Abc_AlphaBeta_Trans ; 0x80004d0
        0x08001680:    ed8d0a00    ....    VSTR     s0,[sp,#0]
        0x08001684:    edcd0a01    ....    VSTR     s1,[sp,#4]
        0x08001688:    6820         h      LDR      r0,[r4,#0]
        0x0800168a:    f1000124    ..$.    ADD      r1,r0,#0x24
        0x0800168e:    4668        hF      MOV      r0,sp
        0x08001690:    f7feff68    ..h.    BL       AlphaBeta_Dq_Trans ; 0x8000564
        0x08001694:    6820         h      LDR      r0,[r4,#0]
        0x08001696:    ed800a11    ....    VSTR     s0,[r0,#0x44]
        0x0800169a:    edc00a12    ....    VSTR     s1,[r0,#0x48]
        0x0800169e:    6828        (h      LDR      r0,[r5,#0]
        0x080016a0:    f001f86e    ..n.    BL       IdCurrentPIController ; 0x8002780
        0x080016a4:    6820         h      LDR      r0,[r4,#0]
        0x080016a6:    eef00a40    ..@.    VMOV.F32 s1,s0
        0x080016aa:    ed900a12    ....    VLDR     s0,[r0,#0x48]
        0x080016ae:    eef01a60    ..`.    VMOV.F32 s3,s1
        0x080016b2:    6838        8h      LDR      r0,[r7,#0]
        0x080016b4:    f001f96c    ..l.    BL       IqCurrentPIController ; 0x8002990
        0x080016b8:    6830        0h      LDR      r0,[r6,#0]
        0x080016ba:    edc01a02    ....    VSTR     s3,[r0,#8]
        0x080016be:    ed800a03    ....    VSTR     s0,[r0,#0xc]
        0x080016c2:    b003        ..      ADD      sp,sp,#0xc
        0x080016c4:    bdf0        ..      POP      {r4-r7,pc}
        0x080016c6:    6830        0h      LDR      r0,[r6,#0]
        0x080016c8:    ed800a02    ....    VSTR     s0,[r0,#8]
        0x080016cc:    ed800a03    ....    VSTR     s0,[r0,#0xc]
        0x080016d0:    f007f926    ..&.    BL       reset_CurrentPICHandler ; 0x8008920
        0x080016d4:    6828        (h      LDR      r0,[r5,#0]
        0x080016d6:    2101        .!      MOVS     r1,#1
        0x080016d8:    6047        G`      STR      r7,[r0,#4]
        0x080016da:    7441        At      STRB     r1,[r0,#0x11]
        0x080016dc:    b003        ..      ADD      sp,sp,#0xc
        0x080016de:    bdf0        ..      POP      {r4-r7,pc}
        0x080016e0:    6841        Ah      LDR      r1,[r0,#4]
        0x080016e2:    1c4a        J.      ADDS     r2,r1,#1
        0x080016e4:    6042        B`      STR      r2,[r0,#4]
        0x080016e6:    2964        d)      CMP      r1,#0x64
        0x080016e8:    bf87        ..      ITTEE    HI
        0x080016ea:    6047        G`      STRHI    r7,[r0,#4]
        0x080016ec:    2102        .!      MOVHI    r1,#2
        0x080016ee:    b003        ..      ADDLS    sp,sp,#0xc
        0x080016f0:    bdf0        ..      POPLS    {r4-r7,pc}
        0x080016f2:    e7f2        ..      B        0x80016da ; FOC_Method_ParIdentify + 226
        0x080016f4:    6047        G`      STR      r7,[r0,#4]
        0x080016f6:    ed910a01    ....    VLDR     s0,[r1,#4]
        0x080016fa:    eeb10a40    ..@.    VNEG.F32 s0,s0
        0x080016fe:    ed810a01    ....    VSTR     s0,[r1,#4]
        0x08001702:    6843        Ch      LDR      r3,[r0,#4]
        0x08001704:    1c5b        [.      ADDS     r3,r3,#1
        0x08001706:    6043        C`      STR      r3,[r0,#4]
        0x08001708:    4811        .H      LDR      r0,[pc,#68] ; [0x8001750] = 0x200000b0
        0x0800170a:    2b01        .+      CMP      r3,#1
        0x0800170c:    d10b        ..      BNE      0x8001726 ; FOC_Method_ParIdentify + 302
        0x0800170e:    6803        .h      LDR      r3,[r0,#0]
        0x08001710:    ed911a01    ....    VLDR     s2,[r1,#4]
        0x08001714:    ed9f0a0f    ....    VLDR     s0,[pc,#60] ; [0x8001754] = 0x3e4ccccd
        0x08001718:    edd30a01    ....    VLDR     s1,[r3,#4]
        0x0800171c:    6831        1h      LDR      r1,[r6,#0]
        0x0800171e:    ee000ac1    ....    VMLS.F32 s0,s1,s2
        0x08001722:    ed810a02    ....    VSTR     s0,[r1,#8]
        0x08001726:    ed920a11    ....    VLDR     s0,[r2,#0x44]
        0x0800172a:    6800        .h      LDR      r0,[r0,#0]
        0x0800172c:    f002f866    ..f.    BL       MCParIdentify_Rs_Ls ; 0x80037fc
        0x08001730:    b003        ..      ADD      sp,sp,#0xc
        0x08001732:    bdf0        ..      POP      {r4-r7,pc}
    $d
        0x08001734:    20000060    `..     DCD    536871008
        0x08001738:    2000008c    ...     DCD    536871052
        0x0800173c:    20000098    ...     DCD    536871064
        0x08001740:    20000050    P..     DCD    536870992
        0x08001744:    00000000    ....    DCD    0
        0x08001748:    200000a4    ...     DCD    536871076
        0x0800174c:    200000a8    ...     DCD    536871080
        0x08001750:    200000b0    ...     DCD    536871088
        0x08001754:    3e4ccccd    ..L>    DCD    1045220557
    $t
    i.FastReciprocalSquareRoot
    FastReciprocalSquareRoot
        0x08001758:    f000bd9c    ....    B.W      Hardware_FastReciprocalSquareRoot ; 0x8002294
    i.FastSquareRoot
    FastSquareRoot
        0x0800175c:    f000bdb0    ....    B.W      Hardware_FastSquareRoot ; 0x80022c0
    i.HAL_IncTick
    HAL_IncTick
        0x08001760:    4802        .H      LDR      r0,[pc,#8] ; [0x800176c] = 0x200000e0
        0x08001762:    6881        .h      LDR      r1,[r0,#8]
        0x08001764:    6842        Bh      LDR      r2,[r0,#4]
        0x08001766:    4411        .D      ADD      r1,r1,r2
        0x08001768:    6081        .`      STR      r1,[r0,#8]
        0x0800176a:    4770        pG      BX       lr
    $d
        0x0800176c:    200000e0    ...     DCD    536871136
    $t
    i.HAL_Init
    HAL_Init
        0x08001770:    b510        ..      PUSH     {r4,lr}
        0x08001772:    2400        .$      MOVS     r4,#0
        0x08001774:    2003        .       MOVS     r0,#3
        0x08001776:    f000f88d    ....    BL       HAL_NVIC_SetPriorityGrouping ; 0x8001894
        0x0800177a:    2006        .       MOVS     r0,#6
        0x0800177c:    f000f808    ....    BL       HAL_InitTick ; 0x8001790
        0x08001780:    2800        .(      CMP      r0,#0
        0x08001782:    bf14        ..      ITE      NE
        0x08001784:    2401        .$      MOVNE    r4,#1
        0x08001786:    f000f825    ..%.    BLEQ     HAL_MspInit ; 0x80017d4
        0x0800178a:    4620         F      MOV      r0,r4
        0x0800178c:    bd10        ..      POP      {r4,pc}
        0x0800178e:    0000        ..      MOVS     r0,r0
    i.HAL_InitTick
    HAL_InitTick
        0x08001790:    b570        p.      PUSH     {r4-r6,lr}
        0x08001792:    4e0e        .N      LDR      r6,[pc,#56] ; [0x80017cc] = 0x200000e0
        0x08001794:    4605        .F      MOV      r5,r0
        0x08001796:    2400        .$      MOVS     r4,#0
        0x08001798:    6870        ph      LDR      r0,[r6,#4]
        0x0800179a:    b198        ..      CBZ      r0,0x80017c4 ; HAL_InitTick + 52
        0x0800179c:    f44f717a    O.zq    MOV      r1,#0x3e8
        0x080017a0:    fbb1f0f0    ....    UDIV     r0,r1,r0
        0x080017a4:    490a        .I      LDR      r1,[pc,#40] ; [0x80017d0] = 0x20000004
        0x080017a6:    6809        .h      LDR      r1,[r1,#0]
        0x080017a8:    fbb1f0f0    ....    UDIV     r0,r1,r0
        0x080017ac:    f000fb8c    ....    BL       HAL_SYSTICK_Config ; 0x8001ec8
        0x080017b0:    b940        @.      CBNZ     r0,0x80017c4 ; HAL_InitTick + 52
        0x080017b2:    2d10        .-      CMP      r5,#0x10
        0x080017b4:    d206        ..      BCS      0x80017c4 ; HAL_InitTick + 52
        0x080017b6:    2200        ."      MOVS     r2,#0
        0x080017b8:    4629        )F      MOV      r1,r5
        0x080017ba:    1e50        P.      SUBS     r0,r2,#1
        0x080017bc:    f000f838    ..8.    BL       HAL_NVIC_SetPriority ; 0x8001830
        0x080017c0:    6035        5`      STR      r5,[r6,#0]
        0x080017c2:    e000        ..      B        0x80017c6 ; HAL_InitTick + 54
        0x080017c4:    2401        .$      MOVS     r4,#1
        0x080017c6:    4620         F      MOV      r0,r4
        0x080017c8:    bd70        p.      POP      {r4-r6,pc}
    $d
        0x080017ca:    0000        ..      DCW    0
        0x080017cc:    200000e0    ...     DCD    536871136
        0x080017d0:    20000004    ...     DCD    536870916
    $t
    i.HAL_MspInit
    HAL_MspInit
        0x080017d4:    480d        .H      LDR      r0,[pc,#52] ; [0x800180c] = 0x40021000
        0x080017d6:    b508        ..      PUSH     {r3,lr}
        0x080017d8:    6e01        .n      LDR      r1,[r0,#0x60]
        0x080017da:    f0410101    A...    ORR      r1,r1,#1
        0x080017de:    6601        .f      STR      r1,[r0,#0x60]
        0x080017e0:    6e01        .n      LDR      r1,[r0,#0x60]
        0x080017e2:    f0010101    ....    AND      r1,r1,#1
        0x080017e6:    9100        ..      STR      r1,[sp,#0]
        0x080017e8:    6d81        .m      LDR      r1,[r0,#0x58]
        0x080017ea:    f0415180    A..Q    ORR      r1,r1,#0x10000000
        0x080017ee:    6581        .e      STR      r1,[r0,#0x58]
        0x080017f0:    6d80        .m      LDR      r0,[r0,#0x58]
        0x080017f2:    f0005080    ...P    AND      r0,r0,#0x10000000
        0x080017f6:    9000        ..      STR      r0,[sp,#0]
        0x080017f8:    f000fb54    ..T.    BL       HAL_SYSCFG_DisableVREFBUF ; 0x8001ea4
        0x080017fc:    2002        .       MOVS     r0,#2
        0x080017fe:    f000fb59    ..Y.    BL       HAL_SYSCFG_VREFBUF_HighImpedanceConfig ; 0x8001eb4
        0x08001802:    e8bd4008    ...@    POP      {r3,lr}
        0x08001806:    f000bb45    ..E.    B.W      HAL_PWREx_DisableUCPDDeadBattery ; 0x8001e94
    $d
        0x0800180a:    0000        ..      DCW    0
        0x0800180c:    40021000    ...@    DCD    1073876992
    $t
    i.HAL_NVIC_EnableIRQ
    HAL_NVIC_EnableIRQ
        0x08001810:    2800        .(      CMP      r0,#0
        0x08001812:    bfb8        ..      IT       LT
        0x08001814:    4770        pG      BXLT     lr
        0x08001816:    f000011f    ....    AND      r1,r0,#0x1f
        0x0800181a:    2201        ."      MOVS     r2,#1
        0x0800181c:    fa02f101    ....    LSL      r1,r2,r1
        0x08001820:    0940        @.      LSRS     r0,r0,#5
        0x08001822:    0080        ..      LSLS     r0,r0,#2
        0x08001824:    f10020e0    ...     ADD      r0,r0,#0xe000e000
        0x08001828:    f8c01100    ....    STR      r1,[r0,#0x100]
        0x0800182c:    4770        pG      BX       lr
        0x0800182e:    0000        ..      MOVS     r0,r0
    i.HAL_NVIC_SetPriority
    HAL_NVIC_SetPriority
        0x08001830:    4b17        .K      LDR      r3,[pc,#92] ; [0x8001890] = 0xe000ed0c
        0x08001832:    b410        ..      PUSH     {r4}
        0x08001834:    681b        .h      LDR      r3,[r3,#0]
        0x08001836:    f3c32302    ...#    UBFX     r3,r3,#8,#3
        0x0800183a:    f1c30c07    ....    RSB      r12,r3,#7
        0x0800183e:    f1bc0f04    ....    CMP      r12,#4
        0x08001842:    bf88        ..      IT       HI
        0x08001844:    f04f0c04    O...    MOVHI    r12,#4
        0x08001848:    1d1c        ..      ADDS     r4,r3,#4
        0x0800184a:    2c07        .,      CMP      r4,#7
        0x0800184c:    bf34        4.      ITE      CC
        0x0800184e:    2300        .#      MOVCC    r3,#0
        0x08001850:    1edb        ..      SUBCS    r3,r3,#3
        0x08001852:    2401        .$      MOVS     r4,#1
        0x08001854:    fa04fc0c    ....    LSL      r12,r4,r12
        0x08001858:    f1ac0c01    ....    SUB      r12,r12,#1
        0x0800185c:    ea0c0101    ....    AND      r1,r12,r1
        0x08001860:    4099        .@      LSLS     r1,r1,r3
        0x08001862:    fa04f303    ....    LSL      r3,r4,r3
        0x08001866:    1e5b        [.      SUBS     r3,r3,#1
        0x08001868:    401a        .@      ANDS     r2,r2,r3
        0x0800186a:    4311        .C      ORRS     r1,r1,r2
        0x0800186c:    2800        .(      CMP      r0,#0
        0x0800186e:    ea4f1101    O...    LSL      r1,r1,#4
        0x08001872:    bfa1        ..      ITTTT    GE
        0x08001874:    f10020e0    ...     ADDGE    r0,r0,#0xe000e000
        0x08001878:    f8801400    ....    STRBGE   r1,[r0,#0x400]
        0x0800187c:    bc10        ..      POPGE    {r4}
        0x0800187e:    4770        pG      BXGE     lr
        0x08001880:    f000000f    ....    AND      r0,r0,#0xf
        0x08001884:    f10020e0    ...     ADD      r0,r0,#0xe000e000
        0x08001888:    f8801d14    ....    STRB     r1,[r0,#0xd14]
        0x0800188c:    bc10        ..      POP      {r4}
        0x0800188e:    4770        pG      BX       lr
    $d
        0x08001890:    e000ed0c    ....    DCD    3758157068
    $t
    i.HAL_NVIC_SetPriorityGrouping
    HAL_NVIC_SetPriorityGrouping
        0x08001894:    4907        .I      LDR      r1,[pc,#28] ; [0x80018b4] = 0xe000ed0c
        0x08001896:    f0000007    ....    AND      r0,r0,#7
        0x0800189a:    680a        .h      LDR      r2,[r1,#0]
        0x0800189c:    f64f03ff    O...    MOV      r3,#0xf8ff
        0x080018a0:    401a        .@      ANDS     r2,r2,r3
        0x080018a2:    ea422000    B..     ORR      r0,r2,r0,LSL #8
        0x080018a6:    f04070fd    @..p    ORR      r0,r0,#0x1fa0000
        0x080018aa:    f0406080    @..`    ORR      r0,r0,#0x4000000
        0x080018ae:    6008        .`      STR      r0,[r1,#0]
        0x080018b0:    4770        pG      BX       lr
    $d
        0x080018b2:    0000        ..      DCW    0
        0x080018b4:    e000ed0c    ....    DCD    3758157068
    $t
    i.HAL_PCDEx_ActivateLPM
    HAL_PCDEx_ActivateLPM
        0x080018b8:    2201        ."      MOVS     r2,#1
        0x080018ba:    6801        .h      LDR      r1,[r0,#0]
        0x080018bc:    f8c022d0    ..."    STR      r2,[r0,#0x2d0]
        0x080018c0:    2200        ."      MOVS     r2,#0
        0x080018c2:    f88022c8    ..."    STRB     r2,[r0,#0x2c8]
        0x080018c6:    f8b10054    ..T.    LDRH     r0,[r1,#0x54]
        0x080018ca:    f0400001    @...    ORR      r0,r0,#1
        0x080018ce:    f8a10054    ..T.    STRH     r0,[r1,#0x54]
        0x080018d2:    f8b10054    ..T.    LDRH     r0,[r1,#0x54]
        0x080018d6:    f0400002    @...    ORR      r0,r0,#2
        0x080018da:    f8a10054    ..T.    STRH     r0,[r1,#0x54]
        0x080018de:    4610        .F      MOV      r0,r2
        0x080018e0:    4770        pG      BX       lr
        0x080018e2:    0000        ..      MOVS     r0,r0
    i.HAL_PCDEx_LPM_Callback
    HAL_PCDEx_LPM_Callback
        0x080018e4:    b570        p.      PUSH     {r4-r6,lr}
        0x080018e6:    4d10        .M      LDR      r5,[pc,#64] ; [0x8001928] = 0xe000ed10
        0x080018e8:    4604        .F      MOV      r4,r0
        0x080018ea:    b179        y.      CBZ      r1,0x800190c ; HAL_PCDEx_LPM_Callback + 40
        0x080018ec:    2901        .)      CMP      r1,#1
        0x080018ee:    bf18        ..      IT       NE
        0x080018f0:    bd70        p.      POPNE    {r4-r6,pc}
        0x080018f2:    f8d402d8    ....    LDR      r0,[r4,#0x2d8]
        0x080018f6:    f004f982    ....    BL       USBD_LL_Suspend ; 0x8005bfe
        0x080018fa:    7a60        `z      LDRB     r0,[r4,#9]
        0x080018fc:    2800        .(      CMP      r0,#0
        0x080018fe:    bf08        ..      IT       EQ
        0x08001900:    bd70        p.      POPEQ    {r4-r6,pc}
        0x08001902:    6828        (h      LDR      r0,[r5,#0]
        0x08001904:    f0400006    @...    ORR      r0,r0,#6
        0x08001908:    6028        (`      STR      r0,[r5,#0]
        0x0800190a:    bd70        p.      POP      {r4-r6,pc}
        0x0800190c:    7a60        `z      LDRB     r0,[r4,#9]
        0x0800190e:    b128        (.      CBZ      r0,0x800191c ; HAL_PCDEx_LPM_Callback + 56
        0x08001910:    f003fc0e    ....    BL       SystemClock_Config ; 0x8005130
        0x08001914:    6828        (h      LDR      r0,[r5,#0]
        0x08001916:    f0200006     ...    BIC      r0,r0,#6
        0x0800191a:    6028        (`      STR      r0,[r5,#0]
        0x0800191c:    f8d402d8    ....    LDR      r0,[r4,#0x2d8]
        0x08001920:    e8bd4070    ..p@    POP      {r4-r6,lr}
        0x08001924:    f004b8e5    ....    B.W      USBD_LL_Resume ; 0x8005af2
    $d
        0x08001928:    e000ed10    ....    DCD    3758157072
    $t
    i.HAL_PCDEx_PMAConfig
    HAL_PCDEx_PMAConfig
        0x0800192c:    f0110f80    ....    TST      r1,#0x80
        0x08001930:    bf18        ..      IT       NE
        0x08001932:    f0010107    ....    ANDNE    r1,r1,#7
        0x08001936:    eb010181    ....    ADD      r1,r1,r1,LSL #2
        0x0800193a:    eb0000c1    ....    ADD      r0,r0,r1,LSL #3
        0x0800193e:    bf14        ..      ITE      NE
        0x08001940:    3010        .0      ADDNE    r0,r0,#0x10
        0x08001942:    f50070a8    ...p    ADDEQ    r0,r0,#0x150
        0x08001946:    b299        ..      UXTH     r1,r3
        0x08001948:    b132        2.      CBZ      r2,0x8001958 ; HAL_PCDEx_PMAConfig + 44
        0x0800194a:    2201        ."      MOVS     r2,#1
        0x0800194c:    7302        .s      STRB     r2,[r0,#0xc]
        0x0800194e:    8101        ..      STRH     r1,[r0,#8]
        0x08001950:    0c19        ..      LSRS     r1,r3,#16
        0x08001952:    8141        A.      STRH     r1,[r0,#0xa]
        0x08001954:    2000        .       MOVS     r0,#0
        0x08001956:    4770        pG      BX       lr
        0x08001958:    2200        ."      MOVS     r2,#0
        0x0800195a:    7302        .s      STRB     r2,[r0,#0xc]
        0x0800195c:    80c1        ..      STRH     r1,[r0,#6]
        0x0800195e:    e7f9        ..      B        0x8001954 ; HAL_PCDEx_PMAConfig + 40
    i.HAL_PCD_DataInStageCallback
    HAL_PCD_DataInStageCallback
        0x08001960:    eb010281    ....    ADD      r2,r1,r1,LSL #2
        0x08001964:    eb0002c2    ....    ADD      r2,r0,r2,LSL #3
        0x08001968:    f8d002d8    ....    LDR      r0,[r0,#0x2d8]
        0x0800196c:    6a52        Rj      LDR      r2,[r2,#0x24]
        0x0800196e:    f003bf7a    ..z.    B.W      USBD_LL_DataInStage ; 0x8005866
    i.HAL_PCD_DataOutStageCallback
    HAL_PCD_DataOutStageCallback
        0x08001972:    eb010281    ....    ADD      r2,r1,r1,LSL #2
        0x08001976:    eb0002c2    ....    ADD      r2,r0,r2,LSL #3
        0x0800197a:    f8d002d8    ....    LDR      r0,[r0,#0x2d8]
        0x0800197e:    f8d22164    ..d!    LDR      r2,[r2,#0x164]
        0x08001982:    f003bfcc    ....    B.W      USBD_LL_DataOutStage ; 0x800591e
    i.HAL_PCD_EP_Close
    HAL_PCD_EP_Close
        0x08001986:    b570        p.      PUSH     {r4-r6,lr}
        0x08001988:    4604        .F      MOV      r4,r0
        0x0800198a:    f0010207    ....    AND      r2,r1,#7
        0x0800198e:    eb020082    ....    ADD      r0,r2,r2,LSL #2
        0x08001992:    f0110f80    ....    TST      r1,#0x80
        0x08001996:    eb0400c0    ....    ADD      r0,r4,r0,LSL #3
        0x0800199a:    f04f0301    O...    MOV      r3,#1
        0x0800199e:    f04f0500    O...    MOV      r5,#0
        0x080019a2:    bf19        ..      ITTEE    NE
        0x080019a4:    f1000110    ....    ADDNE    r1,r0,#0x10
        0x080019a8:    7443        Ct      STRBNE   r3,[r0,#0x11]
        0x080019aa:    f50071a8    ...q    ADDEQ    r1,r0,#0x150
        0x080019ae:    f8805151    ..QQ    STRBEQ   r5,[r0,#0x151]
        0x080019b2:    700a        .p      STRB     r2,[r1,#0]
        0x080019b4:    f8940290    ....    LDRB     r0,[r4,#0x290]
        0x080019b8:    2801        .(      CMP      r0,#1
        0x080019ba:    bf04        ..      ITT      EQ
        0x080019bc:    2002        .       MOVEQ    r0,#2
        0x080019be:    bd70        p.      POPEQ    {r4-r6,pc}
        0x080019c0:    f8843290    ...2    STRB     r3,[r4,#0x290]
        0x080019c4:    6820         h      LDR      r0,[r4,#0]
        0x080019c6:    f004fd4b    ..K.    BL       USB_DeactivateEndpoint ; 0x8006460
        0x080019ca:    f8845290    ...R    STRB     r5,[r4,#0x290]
        0x080019ce:    2000        .       MOVS     r0,#0
        0x080019d0:    bd70        p.      POP      {r4-r6,pc}
    i.HAL_PCD_EP_ClrStall
    HAL_PCD_EP_ClrStall
        0x080019d2:    b570        p.      PUSH     {r4-r6,lr}
        0x080019d4:    4604        .F      MOV      r4,r0
        0x080019d6:    f001000f    ....    AND      r0,r1,#0xf
        0x080019da:    7922        "y      LDRB     r2,[r4,#4]
        0x080019dc:    4290        .B      CMP      r0,r2
        0x080019de:    bf84        ..      ITT      HI
        0x080019e0:    2001        .       MOVHI    r0,#1
        0x080019e2:    bd70        p.      POPHI    {r4-r6,pc}
        0x080019e4:    f0110f80    ....    TST      r1,#0x80
        0x080019e8:    f0010207    ....    AND      r2,r1,#7
        0x080019ec:    eb020082    ....    ADD      r0,r2,r2,LSL #2
        0x080019f0:    eb0400c0    ....    ADD      r0,r4,r0,LSL #3
        0x080019f4:    f04f0301    O...    MOV      r3,#1
        0x080019f8:    f04f0500    O...    MOV      r5,#0
        0x080019fc:    bf19        ..      ITTEE    NE
        0x080019fe:    f1000110    ....    ADDNE    r1,r0,#0x10
        0x08001a02:    7443        Ct      STRBNE   r3,[r0,#0x11]
        0x08001a04:    f50071a8    ...q    ADDEQ    r1,r0,#0x150
        0x08001a08:    f8805151    ..QQ    STRBEQ   r5,[r0,#0x151]
        0x08001a0c:    708d        .p      STRB     r5,[r1,#2]
        0x08001a0e:    700a        .p      STRB     r2,[r1,#0]
        0x08001a10:    f8940290    ....    LDRB     r0,[r4,#0x290]
        0x08001a14:    2801        .(      CMP      r0,#1
        0x08001a16:    bf04        ..      ITT      EQ
        0x08001a18:    2002        .       MOVEQ    r0,#2
        0x08001a1a:    bd70        p.      POPEQ    {r4-r6,pc}
        0x08001a1c:    f8843290    ...2    STRB     r3,[r4,#0x290]
        0x08001a20:    6820         h      LDR      r0,[r4,#0]
        0x08001a22:    f004fdf0    ....    BL       USB_EPClearStall ; 0x8006606
        0x08001a26:    f8845290    ...R    STRB     r5,[r4,#0x290]
        0x08001a2a:    2000        .       MOVS     r0,#0
        0x08001a2c:    bd70        p.      POP      {r4-r6,pc}
    i.HAL_PCD_EP_GetRxCount
    HAL_PCD_EP_GetRxCount
        0x08001a2e:    f0010107    ....    AND      r1,r1,#7
        0x08001a32:    eb010181    ....    ADD      r1,r1,r1,LSL #2
        0x08001a36:    eb0000c1    ....    ADD      r0,r0,r1,LSL #3
        0x08001a3a:    f8d0016c    ..l.    LDR      r0,[r0,#0x16c]
        0x08001a3e:    4770        pG      BX       lr
    i.HAL_PCD_EP_Open
    HAL_PCD_EP_Open
        0x08001a40:    e92d41f0    -..A    PUSH     {r4-r8,lr}
        0x08001a44:    4604        .F      MOV      r4,r0
        0x08001a46:    f0010c07    ....    AND      r12,r1,#7
        0x08001a4a:    eb0c008c    ....    ADD      r0,r12,r12,LSL #2
        0x08001a4e:    f0110f80    ....    TST      r1,#0x80
        0x08001a52:    eb0400c0    ....    ADD      r0,r4,r0,LSL #3
        0x08001a56:    f04f0601    O...    MOV      r6,#1
        0x08001a5a:    f04f0500    O...    MOV      r5,#0
        0x08001a5e:    bf19        ..      ITTEE    NE
        0x08001a60:    f1000110    ....    ADDNE    r1,r0,#0x10
        0x08001a64:    7446        Ft      STRBNE   r6,[r0,#0x11]
        0x08001a66:    f50071a8    ...q    ADDEQ    r1,r0,#0x150
        0x08001a6a:    f8805151    ..QQ    STRBEQ   r5,[r0,#0x151]
        0x08001a6e:    f881c000    ....    STRB     r12,[r1,#0]
        0x08001a72:    610a        .a      STR      r2,[r1,#0x10]
        0x08001a74:    70cb        .p      STRB     r3,[r1,#3]
        0x08001a76:    2b02        .+      CMP      r3,#2
        0x08001a78:    bf08        ..      IT       EQ
        0x08001a7a:    710d        .q      STRBEQ   r5,[r1,#4]
        0x08001a7c:    f8940290    ....    LDRB     r0,[r4,#0x290]
        0x08001a80:    2801        .(      CMP      r0,#1
        0x08001a82:    bf04        ..      ITT      EQ
        0x08001a84:    2002        .       MOVEQ    r0,#2
        0x08001a86:    e8bd81f0    ....    POPEQ    {r4-r8,pc}
        0x08001a8a:    f8846290    ...b    STRB     r6,[r4,#0x290]
        0x08001a8e:    6820         h      LDR      r0,[r4,#0]
        0x08001a90:    f004fb6a    ..j.    BL       USB_ActivateEndpoint ; 0x8006168
        0x08001a94:    4628        (F      MOV      r0,r5
        0x08001a96:    f8845290    ...R    STRB     r5,[r4,#0x290]
        0x08001a9a:    e8bd81f0    ....    POP      {r4-r8,pc}
    i.HAL_PCD_EP_Receive
    HAL_PCD_EP_Receive
        0x08001a9e:    f0010c07    ....    AND      r12,r1,#7
        0x08001aa2:    eb0c018c    ....    ADD      r1,r12,r12,LSL #2
        0x08001aa6:    b510        ..      PUSH     {r4,lr}
        0x08001aa8:    eb0001c1    ....    ADD      r1,r0,r1,LSL #3
        0x08001aac:    e9c12359    ..Y#    STRD     r2,r3,[r1,#0x164]
        0x08001ab0:    2200        ."      MOVS     r2,#0
        0x08001ab2:    f8c1216c    ..l!    STR      r2,[r1,#0x16c]
        0x08001ab6:    f8812151    ..Q!    STRB     r2,[r1,#0x151]
        0x08001aba:    f881c150    ..P.    STRB     r12,[r1,#0x150]
        0x08001abe:    6800        .h      LDR      r0,[r0,#0]
        0x08001ac0:    f50171a8    ...q    ADD      r1,r1,#0x150
        0x08001ac4:    f004fe02    ....    BL       USB_EPStartXfer ; 0x80066cc
        0x08001ac8:    2000        .       MOVS     r0,#0
        0x08001aca:    bd10        ..      POP      {r4,pc}
    i.HAL_PCD_EP_SetStall
    HAL_PCD_EP_SetStall
        0x08001acc:    b570        p.      PUSH     {r4-r6,lr}
        0x08001ace:    4604        .F      MOV      r4,r0
        0x08001ad0:    7900        .y      LDRB     r0,[r0,#4]
        0x08001ad2:    f0010207    ....    AND      r2,r1,#7
        0x08001ad6:    4282        .B      CMP      r2,r0
        0x08001ad8:    bf84        ..      ITT      HI
        0x08001ada:    2001        .       MOVHI    r0,#1
        0x08001adc:    bd70        p.      POPHI    {r4-r6,pc}
        0x08001ade:    f0110f80    ....    TST      r1,#0x80
        0x08001ae2:    f04f0500    O...    MOV      r5,#0
        0x08001ae6:    f04f0001    O...    MOV      r0,#1
        0x08001aea:    bf14        ..      ITE      NE
        0x08001aec:    eb020182    ....    ADDNE    r1,r2,r2,LSL #2
        0x08001af0:    eb010181    ....    ADDEQ    r1,r1,r1,LSL #2
        0x08001af4:    eb0401c1    ....    ADD      r1,r4,r1,LSL #3
        0x08001af8:    bf19        ..      ITTEE    NE
        0x08001afa:    7448        Ht      STRBNE   r0,[r1,#0x11]
        0x08001afc:    3110        .1      ADDNE    r1,r1,#0x10
        0x08001afe:    f8815151    ..QQ    STRBEQ   r5,[r1,#0x151]
        0x08001b02:    f50171a8    ...q    ADDEQ    r1,r1,#0x150
        0x08001b06:    7088        .p      STRB     r0,[r1,#2]
        0x08001b08:    700a        .p      STRB     r2,[r1,#0]
        0x08001b0a:    f8942290    ..."    LDRB     r2,[r4,#0x290]
        0x08001b0e:    2a01        .*      CMP      r2,#1
        0x08001b10:    bf04        ..      ITT      EQ
        0x08001b12:    2002        .       MOVEQ    r0,#2
        0x08001b14:    bd70        p.      POPEQ    {r4-r6,pc}
        0x08001b16:    f8840290    ....    STRB     r0,[r4,#0x290]
        0x08001b1a:    6820         h      LDR      r0,[r4,#0]
        0x08001b1c:    f004fdbb    ....    BL       USB_EPSetStall ; 0x8006696
        0x08001b20:    f8845290    ...R    STRB     r5,[r4,#0x290]
        0x08001b24:    2000        .       MOVS     r0,#0
        0x08001b26:    bd70        p.      POP      {r4-r6,pc}
    i.HAL_PCD_EP_Transmit
    HAL_PCD_EP_Transmit
        0x08001b28:    f0010c07    ....    AND      r12,r1,#7
        0x08001b2c:    eb0c018c    ....    ADD      r1,r12,r12,LSL #2
        0x08001b30:    b510        ..      PUSH     {r4,lr}
        0x08001b32:    eb0001c1    ....    ADD      r1,r0,r1,LSL #3
        0x08001b36:    e9c12309    ...#    STRD     r2,r3,[r1,#0x24]
        0x08001b3a:    2201        ."      MOVS     r2,#1
        0x08001b3c:    f8812034    ..4     STRB     r2,[r1,#0x34]
        0x08001b40:    630b        .c      STR      r3,[r1,#0x30]
        0x08001b42:    2300        .#      MOVS     r3,#0
        0x08001b44:    62cb        .b      STR      r3,[r1,#0x2c]
        0x08001b46:    744a        Jt      STRB     r2,[r1,#0x11]
        0x08001b48:    f801cf10    ....    STRB     r12,[r1,#0x10]!
        0x08001b4c:    6800        .h      LDR      r0,[r0,#0]
        0x08001b4e:    f004fdbd    ....    BL       USB_EPStartXfer ; 0x80066cc
        0x08001b52:    2000        .       MOVS     r0,#0
        0x08001b54:    bd10        ..      POP      {r4,pc}
    i.HAL_PCD_IRQHandler
    HAL_PCD_IRQHandler
        0x08001b56:    b570        p.      PUSH     {r4-r6,lr}
        0x08001b58:    4604        .F      MOV      r4,r0
        0x08001b5a:    6800        .h      LDR      r0,[r0,#0]
        0x08001b5c:    f005f942    ..B.    BL       USB_ReadInterrupts ; 0x8006de4
        0x08001b60:    f4104f00    ...O    TST      r0,#0x8000
        0x08001b64:    d004        ..      BEQ      0x8001b70 ; HAL_PCD_IRQHandler + 26
        0x08001b66:    4620         F      MOV      r0,r4
        0x08001b68:    e8bd4070    ..p@    POP      {r4-r6,lr}
        0x08001b6c:    f002bb5c    ..\.    B.W      PCD_EP_ISR_Handler ; 0x8004228
        0x08001b70:    f4106f80    ...o    TST      r0,#0x400
        0x08001b74:    f04f0500    O...    MOV      r5,#0
        0x08001b78:    f04f0601    O...    MOV      r6,#1
        0x08001b7c:    d018        ..      BEQ      0x8001bb0 ; HAL_PCD_IRQHandler + 90
        0x08001b7e:    6820         h      LDR      r0,[r4,#0]
        0x08001b80:    f8b01044    ..D.    LDRH     r1,[r0,#0x44]
        0x08001b84:    f4216180    !..a    BIC      r1,r1,#0x400
        0x08001b88:    f8a01044    ..D.    STRH     r1,[r0,#0x44]
        0x08001b8c:    4620         F      MOV      r0,r4
        0x08001b8e:    f000f913    ....    BL       HAL_PCD_ResetCallback ; 0x8001db8
        0x08001b92:    f8940290    ....    LDRB     r0,[r4,#0x290]
        0x08001b96:    2100        .!      MOVS     r1,#0
        0x08001b98:    2801        .(      CMP      r0,#1
        0x08001b9a:    bf08        ..      IT       EQ
        0x08001b9c:    bd70        p.      POPEQ    {r4-r6,pc}
        0x08001b9e:    f8846290    ...b    STRB     r6,[r4,#0x290]
        0x08001ba2:    7321        !s      STRB     r1,[r4,#0xc]
        0x08001ba4:    6820         h      LDR      r0,[r4,#0]
        0x08001ba6:    f005f936    ..6.    BL       USB_SetDevAddress ; 0x8006e16
        0x08001baa:    f8845290    ...R    STRB     r5,[r4,#0x290]
        0x08001bae:    bd70        p.      POP      {r4-r6,pc}
        0x08001bb0:    f4104f80    ...O    TST      r0,#0x4000
        0x08001bb4:    d005        ..      BEQ      0x8001bc2 ; HAL_PCD_IRQHandler + 108
        0x08001bb6:    6820         h      LDR      r0,[r4,#0]
        0x08001bb8:    f8b01044    ..D.    LDRH     r1,[r0,#0x44]
        0x08001bbc:    f4214180    !..A    BIC      r1,r1,#0x4000
        0x08001bc0:    e007        ..      B        0x8001bd2 ; HAL_PCD_IRQHandler + 124
        0x08001bc2:    f4105f00    ..._    TST      r0,#0x2000
        0x08001bc6:    d007        ..      BEQ      0x8001bd8 ; HAL_PCD_IRQHandler + 130
        0x08001bc8:    6820         h      LDR      r0,[r4,#0]
        0x08001bca:    f8b01044    ..D.    LDRH     r1,[r0,#0x44]
        0x08001bce:    f4215100    !..Q    BIC      r1,r1,#0x2000
        0x08001bd2:    f8a01044    ..D.    STRH     r1,[r0,#0x44]
        0x08001bd6:    bd70        p.      POP      {r4-r6,pc}
        0x08001bd8:    f4105f80    ..._    TST      r0,#0x1000
        0x08001bdc:    d020         .      BEQ      0x8001c20 ; HAL_PCD_IRQHandler + 202
        0x08001bde:    6820         h      LDR      r0,[r4,#0]
        0x08001be0:    f8b01040    ..@.    LDRH     r1,[r0,#0x40]
        0x08001be4:    f0210104    !...    BIC      r1,r1,#4
        0x08001be8:    f8a01040    ..@.    STRH     r1,[r0,#0x40]
        0x08001bec:    6820         h      LDR      r0,[r4,#0]
        0x08001bee:    f8b01040    ..@.    LDRH     r1,[r0,#0x40]
        0x08001bf2:    f0210108    !...    BIC      r1,r1,#8
        0x08001bf6:    f8a01040    ..@.    STRH     r1,[r0,#0x40]
        0x08001bfa:    f89402c8    ....    LDRB     r0,[r4,#0x2c8]
        0x08001bfe:    2801        .(      CMP      r0,#1
        0x08001c00:    d105        ..      BNE      0x8001c0e ; HAL_PCD_IRQHandler + 184
        0x08001c02:    f88452c8    ...R    STRB     r5,[r4,#0x2c8]
        0x08001c06:    2100        .!      MOVS     r1,#0
        0x08001c08:    4620         F      MOV      r0,r4
        0x08001c0a:    f7fffe6b    ..k.    BL       HAL_PCDEx_LPM_Callback ; 0x80018e4
        0x08001c0e:    4620         F      MOV      r0,r4
        0x08001c10:    f000f8e6    ....    BL       HAL_PCD_ResumeCallback ; 0x8001de0
        0x08001c14:    6820         h      LDR      r0,[r4,#0]
        0x08001c16:    f8b01044    ..D.    LDRH     r1,[r0,#0x44]
        0x08001c1a:    f4215180    !..Q    BIC      r1,r1,#0x1000
        0x08001c1e:    e7d8        ..      B        0x8001bd2 ; HAL_PCD_IRQHandler + 124
        0x08001c20:    f4106f00    ...o    TST      r0,#0x800
        0x08001c24:    d018        ..      BEQ      0x8001c58 ; HAL_PCD_IRQHandler + 258
        0x08001c26:    6820         h      LDR      r0,[r4,#0]
        0x08001c28:    f8b01040    ..@.    LDRH     r1,[r0,#0x40]
        0x08001c2c:    f0410108    A...    ORR      r1,r1,#8
        0x08001c30:    f8a01040    ..@.    STRH     r1,[r0,#0x40]
        0x08001c34:    6820         h      LDR      r0,[r4,#0]
        0x08001c36:    f8b01044    ..D.    LDRH     r1,[r0,#0x44]
        0x08001c3a:    f4216100    !..a    BIC      r1,r1,#0x800
        0x08001c3e:    f8a01044    ..D.    STRH     r1,[r0,#0x44]
        0x08001c42:    6820         h      LDR      r0,[r4,#0]
        0x08001c44:    f8b01040    ..@.    LDRH     r1,[r0,#0x40]
        0x08001c48:    f0410104    A...    ORR      r1,r1,#4
        0x08001c4c:    f8a01040    ..@.    STRH     r1,[r0,#0x40]
        0x08001c50:    4620         F      MOV      r0,r4
        0x08001c52:    f000f90d    ....    BL       HAL_PCD_SuspendCallback ; 0x8001e70
        0x08001c56:    bd70        p.      POP      {r4-r6,pc}
        0x08001c58:    f0100f80    ....    TST      r0,#0x80
        0x08001c5c:    d02b        +.      BEQ      0x8001cb6 ; HAL_PCD_IRQHandler + 352
        0x08001c5e:    6820         h      LDR      r0,[r4,#0]
        0x08001c60:    f8b01044    ..D.    LDRH     r1,[r0,#0x44]
        0x08001c64:    f0210180    !...    BIC      r1,r1,#0x80
        0x08001c68:    f8a01044    ..D.    STRH     r1,[r0,#0x44]
        0x08001c6c:    f89402c8    ....    LDRB     r0,[r4,#0x2c8]
        0x08001c70:    b118        ..      CBZ      r0,0x8001c7a ; HAL_PCD_IRQHandler + 292
        0x08001c72:    4620         F      MOV      r0,r4
        0x08001c74:    f000f8fc    ....    BL       HAL_PCD_SuspendCallback ; 0x8001e70
        0x08001c78:    bd70        p.      POP      {r4-r6,pc}
        0x08001c7a:    6820         h      LDR      r0,[r4,#0]
        0x08001c7c:    f8b01040    ..@.    LDRH     r1,[r0,#0x40]
        0x08001c80:    f0410104    A...    ORR      r1,r1,#4
        0x08001c84:    f8a01040    ..@.    STRH     r1,[r0,#0x40]
        0x08001c88:    6820         h      LDR      r0,[r4,#0]
        0x08001c8a:    f8b01040    ..@.    LDRH     r1,[r0,#0x40]
        0x08001c8e:    f0410108    A...    ORR      r1,r1,#8
        0x08001c92:    f8a01040    ..@.    STRH     r1,[r0,#0x40]
        0x08001c96:    f88462c8    ...b    STRB     r6,[r4,#0x2c8]
        0x08001c9a:    6820         h      LDR      r0,[r4,#0]
        0x08001c9c:    f8b00054    ..T.    LDRH     r0,[r0,#0x54]
        0x08001ca0:    213c        <!      MOVS     r1,#0x3c
        0x08001ca2:    ea010090    ....    AND      r0,r1,r0,LSR #2
        0x08001ca6:    f8c402cc    ....    STR      r0,[r4,#0x2cc]
        0x08001caa:    4620         F      MOV      r0,r4
        0x08001cac:    e8bd4070    ..p@    POP      {r4-r6,lr}
        0x08001cb0:    2101        .!      MOVS     r1,#1
        0x08001cb2:    f7ffbe17    ....    B.W      HAL_PCDEx_LPM_Callback ; 0x80018e4
        0x08001cb6:    f4107f00    ....    TST      r0,#0x200
        0x08001cba:    d00a        ..      BEQ      0x8001cd2 ; HAL_PCD_IRQHandler + 380
        0x08001cbc:    6820         h      LDR      r0,[r4,#0]
        0x08001cbe:    f8b01044    ..D.    LDRH     r1,[r0,#0x44]
        0x08001cc2:    f4217100    !..q    BIC      r1,r1,#0x200
        0x08001cc6:    f8a01044    ..D.    STRH     r1,[r0,#0x44]
        0x08001cca:    4620         F      MOV      r0,r4
        0x08001ccc:    f000f89c    ....    BL       HAL_PCD_SOFCallback ; 0x8001e08
        0x08001cd0:    bd70        p.      POP      {r4-r6,pc}
        0x08001cd2:    f4107f80    ....    TST      r0,#0x100
        0x08001cd6:    bf08        ..      IT       EQ
        0x08001cd8:    bd70        p.      POPEQ    {r4-r6,pc}
        0x08001cda:    6820         h      LDR      r0,[r4,#0]
        0x08001cdc:    f8b01044    ..D.    LDRH     r1,[r0,#0x44]
        0x08001ce0:    f4217180    !..q    BIC      r1,r1,#0x100
        0x08001ce4:    e775        u.      B        0x8001bd2 ; HAL_PCD_IRQHandler + 124
    i.HAL_PCD_Init
    HAL_PCD_Init
        0x08001ce6:    b570        p.      PUSH     {r4-r6,lr}
        0x08001ce8:    0005        ..      MOVS     r5,r0
        0x08001cea:    bf04        ..      ITT      EQ
        0x08001cec:    2001        .       MOVEQ    r0,#1
        0x08001cee:    bd70        p.      POPEQ    {r4-r6,pc}
        0x08001cf0:    f8950291    ....    LDRB     r0,[r5,#0x291]
        0x08001cf4:    2400        .$      MOVS     r4,#0
        0x08001cf6:    b920         .      CBNZ     r0,0x8001d02 ; HAL_PCD_Init + 28
        0x08001cf8:    f8854290    ...B    STRB     r4,[r5,#0x290]
        0x08001cfc:    4628        (F      MOV      r0,r5
        0x08001cfe:    f000f837    ..7.    BL       HAL_PCD_MspInit ; 0x8001d70
        0x08001d02:    2003        .       MOVS     r0,#3
        0x08001d04:    f8850291    ....    STRB     r0,[r5,#0x291]
        0x08001d08:    6828        (h      LDR      r0,[r5,#0]
        0x08001d0a:    f004fc72    ..r.    BL       USB_DisableGlobalInt ; 0x80065f2
        0x08001d0e:    792a        *y      LDRB     r2,[r5,#4]
        0x08001d10:    2601        .&      MOVS     r6,#1
        0x08001d12:    2a00        .*      CMP      r2,#0
        0x08001d14:    bf18        ..      IT       NE
        0x08001d16:    2000        .       MOVNE    r0,#0
        0x08001d18:    d01a        ..      BEQ      0x8001d50 ; HAL_PCD_Init + 106
        0x08001d1a:    eb000180    ....    ADD      r1,r0,r0,LSL #2
        0x08001d1e:    eb0501c1    ....    ADD      r1,r5,r1,LSL #3
        0x08001d22:    744e        Nt      STRB     r6,[r1,#0x11]
        0x08001d24:    7408        .t      STRB     r0,[r1,#0x10]
        0x08001d26:    74cc        .t      STRB     r4,[r1,#0x13]
        0x08001d28:    620c        .b      STR      r4,[r1,#0x20]
        0x08001d2a:    624c        Lb      STR      r4,[r1,#0x24]
        0x08001d2c:    628c        .b      STR      r4,[r1,#0x28]
        0x08001d2e:    f8814151    ..QA    STRB     r4,[r1,#0x151]
        0x08001d32:    f8810150    ..P.    STRB     r0,[r1,#0x150]
        0x08001d36:    f8814153    ..SA    STRB     r4,[r1,#0x153]
        0x08001d3a:    f8c14160    ..`A    STR      r4,[r1,#0x160]
        0x08001d3e:    f8c14164    ..dA    STR      r4,[r1,#0x164]
        0x08001d42:    f8c14168    ..hA    STR      r4,[r1,#0x168]
        0x08001d46:    1e51        Q.      SUBS     r1,r2,#1
        0x08001d48:    1c40        @.      ADDS     r0,r0,#1
        0x08001d4a:    f01102ff    ....    ANDS     r2,r1,#0xff
        0x08001d4e:    d1e4        ..      BNE      0x8001d1a ; HAL_PCD_Init + 52
        0x08001d50:    e9d50100    ....    LDRD     r0,r1,[r5,#0]
        0x08001d54:    68aa        .h      LDR      r2,[r5,#8]
        0x08001d56:    f004fc40    ..@.    BL       USB_DevInit ; 0x80065da
        0x08001d5a:    732c        ,s      STRB     r4,[r5,#0xc]
        0x08001d5c:    f8856291    ...b    STRB     r6,[r5,#0x291]
        0x08001d60:    7aa8        .z      LDRB     r0,[r5,#0xa]
        0x08001d62:    2801        .(      CMP      r0,#1
        0x08001d64:    bf04        ..      ITT      EQ
        0x08001d66:    4628        (F      MOVEQ    r0,r5
        0x08001d68:    f7fffda6    ....    BLEQ     HAL_PCDEx_ActivateLPM ; 0x80018b8
        0x08001d6c:    2000        .       MOVS     r0,#0
        0x08001d6e:    bd70        p.      POP      {r4-r6,pc}
    i.HAL_PCD_MspInit
    HAL_PCD_MspInit
        0x08001d70:    b508        ..      PUSH     {r3,lr}
        0x08001d72:    6800        .h      LDR      r0,[r0,#0]
        0x08001d74:    f1a04180    ...A    SUB      r1,r0,#0x40000000
        0x08001d78:    f5b141b8    ...A    SUBS     r1,r1,#0x5c00
        0x08001d7c:    bf18        ..      IT       NE
        0x08001d7e:    bd08        ..      POPNE    {r3,pc}
        0x08001d80:    480c        .H      LDR      r0,[pc,#48] ; [0x8001db4] = 0x40021000
        0x08001d82:    f8501f88    P...    LDR      r1,[r0,#0x88]!
        0x08001d86:    f0216140    !.@a    BIC      r1,r1,#0xc000000
        0x08001d8a:    f8401930    @.0.    STR      r1,[r0],#-0x30
        0x08001d8e:    6801        .h      LDR      r1,[r0,#0]
        0x08001d90:    f4410100    A...    ORR      r1,r1,#0x800000
        0x08001d94:    6001        .`      STR      r1,[r0,#0]
        0x08001d96:    6800        .h      LDR      r0,[r0,#0]
        0x08001d98:    2200        ."      MOVS     r2,#0
        0x08001d9a:    f4000000    ....    AND      r0,r0,#0x800000
        0x08001d9e:    9000        ..      STR      r0,[sp,#0]
        0x08001da0:    4611        .F      MOV      r1,r2
        0x08001da2:    2014        .       MOVS     r0,#0x14
        0x08001da4:    f7fffd44    ..D.    BL       HAL_NVIC_SetPriority ; 0x8001830
        0x08001da8:    e8bd4008    ...@    POP      {r3,lr}
        0x08001dac:    2014        .       MOVS     r0,#0x14
        0x08001dae:    f7ffbd2f    ../.    B.W      HAL_NVIC_EnableIRQ ; 0x8001810
    $d
        0x08001db2:    0000        ..      DCW    0
        0x08001db4:    40021000    ...@    DCD    1073876992
    $t
    i.HAL_PCD_ResetCallback
    HAL_PCD_ResetCallback
        0x08001db8:    b570        p.      PUSH     {r4-r6,lr}
        0x08001dba:    4604        .F      MOV      r4,r0
        0x08001dbc:    7940        @y      LDRB     r0,[r0,#5]
        0x08001dbe:    2501        .%      MOVS     r5,#1
        0x08001dc0:    2802        .(      CMP      r0,#2
        0x08001dc2:    bf18        ..      IT       NE
        0x08001dc4:    f7fefc82    ....    BLNE     Error_Handler ; 0x80006cc
        0x08001dc8:    4629        )F      MOV      r1,r5
        0x08001dca:    f8d402d8    ....    LDR      r0,[r4,#0x2d8]
        0x08001dce:    f003feab    ....    BL       USBD_LL_SetSpeed ; 0x8005b28
        0x08001dd2:    f8d402d8    ....    LDR      r0,[r4,#0x2d8]
        0x08001dd6:    e8bd4070    ..p@    POP      {r4-r6,lr}
        0x08001dda:    f003be59    ..Y.    B.W      USBD_LL_Reset ; 0x8005a90
        0x08001dde:    0000        ..      MOVS     r0,r0
    i.HAL_PCD_ResumeCallback
    HAL_PCD_ResumeCallback
        0x08001de0:    b510        ..      PUSH     {r4,lr}
        0x08001de2:    4604        .F      MOV      r4,r0
        0x08001de4:    7a40        @z      LDRB     r0,[r0,#9]
        0x08001de6:    b130        0.      CBZ      r0,0x8001df6 ; HAL_PCD_ResumeCallback + 22
        0x08001de8:    4806        .H      LDR      r0,[pc,#24] ; [0x8001e04] = 0xe000ed10
        0x08001dea:    6801        .h      LDR      r1,[r0,#0]
        0x08001dec:    f0210106    !...    BIC      r1,r1,#6
        0x08001df0:    6001        .`      STR      r1,[r0,#0]
        0x08001df2:    f003f99d    ....    BL       SystemClock_Config ; 0x8005130
        0x08001df6:    f8d402d8    ....    LDR      r0,[r4,#0x2d8]
        0x08001dfa:    e8bd4010    ...@    POP      {r4,lr}
        0x08001dfe:    f003be78    ..x.    B.W      USBD_LL_Resume ; 0x8005af2
    $d
        0x08001e02:    0000        ..      DCW    0
        0x08001e04:    e000ed10    ....    DCD    3758157072
    $t
    i.HAL_PCD_SOFCallback
    HAL_PCD_SOFCallback
        0x08001e08:    f8d002d8    ....    LDR      r0,[r0,#0x2d8]
        0x08001e0c:    f003be7b    ..{.    B.W      USBD_LL_SOF ; 0x8005b06
    i.HAL_PCD_SetAddress
    HAL_PCD_SetAddress
        0x08001e10:    b510        ..      PUSH     {r4,lr}
        0x08001e12:    4604        .F      MOV      r4,r0
        0x08001e14:    f8900290    ....    LDRB     r0,[r0,#0x290]
        0x08001e18:    2801        .(      CMP      r0,#1
        0x08001e1a:    bf04        ..      ITT      EQ
        0x08001e1c:    2002        .       MOVEQ    r0,#2
        0x08001e1e:    bd10        ..      POPEQ    {r4,pc}
        0x08001e20:    2001        .       MOVS     r0,#1
        0x08001e22:    f8840290    ....    STRB     r0,[r4,#0x290]
        0x08001e26:    7321        !s      STRB     r1,[r4,#0xc]
        0x08001e28:    6820         h      LDR      r0,[r4,#0]
        0x08001e2a:    f004fff4    ....    BL       USB_SetDevAddress ; 0x8006e16
        0x08001e2e:    2000        .       MOVS     r0,#0
        0x08001e30:    f8840290    ....    STRB     r0,[r4,#0x290]
        0x08001e34:    bd10        ..      POP      {r4,pc}
    i.HAL_PCD_SetupStageCallback
    HAL_PCD_SetupStageCallback
        0x08001e36:    f8d022d8    ..."    LDR      r2,[r0,#0x2d8]
        0x08001e3a:    f5007126    ..&q    ADD      r1,r0,#0x298
        0x08001e3e:    4610        .F      MOV      r0,r2
        0x08001e40:    f003be87    ....    B.W      USBD_LL_SetupStage ; 0x8005b52
    i.HAL_PCD_Start
    HAL_PCD_Start
        0x08001e44:    b510        ..      PUSH     {r4,lr}
        0x08001e46:    4604        .F      MOV      r4,r0
        0x08001e48:    f8900290    ....    LDRB     r0,[r0,#0x290]
        0x08001e4c:    2801        .(      CMP      r0,#1
        0x08001e4e:    bf04        ..      ITT      EQ
        0x08001e50:    2002        .       MOVEQ    r0,#2
        0x08001e52:    bd10        ..      POPEQ    {r4,pc}
        0x08001e54:    2001        .       MOVS     r0,#1
        0x08001e56:    f8840290    ....    STRB     r0,[r4,#0x290]
        0x08001e5a:    6820         h      LDR      r0,[r4,#0]
        0x08001e5c:    f004ffb3    ....    BL       USB_EnableGlobalInt ; 0x8006dc6
        0x08001e60:    6820         h      LDR      r0,[r4,#0]
        0x08001e62:    f004fbb2    ....    BL       USB_DevConnect ; 0x80065ca
        0x08001e66:    2000        .       MOVS     r0,#0
        0x08001e68:    f8840290    ....    STRB     r0,[r4,#0x290]
        0x08001e6c:    bd10        ..      POP      {r4,pc}
        0x08001e6e:    0000        ..      MOVS     r0,r0
    i.HAL_PCD_SuspendCallback
    HAL_PCD_SuspendCallback
        0x08001e70:    b510        ..      PUSH     {r4,lr}
        0x08001e72:    4604        .F      MOV      r4,r0
        0x08001e74:    f8d002d8    ....    LDR      r0,[r0,#0x2d8]
        0x08001e78:    f003fec1    ....    BL       USBD_LL_Suspend ; 0x8005bfe
        0x08001e7c:    7a60        `z      LDRB     r0,[r4,#9]
        0x08001e7e:    2800        .(      CMP      r0,#0
        0x08001e80:    bf08        ..      IT       EQ
        0x08001e82:    bd10        ..      POPEQ    {r4,pc}
        0x08001e84:    4802        .H      LDR      r0,[pc,#8] ; [0x8001e90] = 0xe000ed10
        0x08001e86:    6801        .h      LDR      r1,[r0,#0]
        0x08001e88:    f0410106    A...    ORR      r1,r1,#6
        0x08001e8c:    6001        .`      STR      r1,[r0,#0]
        0x08001e8e:    bd10        ..      POP      {r4,pc}
    $d
        0x08001e90:    e000ed10    ....    DCD    3758157072
    $t
    i.HAL_PWREx_DisableUCPDDeadBattery
    HAL_PWREx_DisableUCPDDeadBattery
        0x08001e94:    4802        .H      LDR      r0,[pc,#8] ; [0x8001ea0] = 0x40007000
        0x08001e96:    6881        .h      LDR      r1,[r0,#8]
        0x08001e98:    f4414180    A..A    ORR      r1,r1,#0x4000
        0x08001e9c:    6081        .`      STR      r1,[r0,#8]
        0x08001e9e:    4770        pG      BX       lr
    $d
        0x08001ea0:    40007000    .p.@    DCD    1073770496
    $t
    i.HAL_SYSCFG_DisableVREFBUF
    HAL_SYSCFG_DisableVREFBUF
        0x08001ea4:    4802        .H      LDR      r0,[pc,#8] ; [0x8001eb0] = 0x40010000
        0x08001ea6:    6b01        .k      LDR      r1,[r0,#0x30]
        0x08001ea8:    f0210101    !...    BIC      r1,r1,#1
        0x08001eac:    6301        .c      STR      r1,[r0,#0x30]
        0x08001eae:    4770        pG      BX       lr
    $d
        0x08001eb0:    40010000    ...@    DCD    1073807360
    $t
    i.HAL_SYSCFG_VREFBUF_HighImpedanceConfig
    HAL_SYSCFG_VREFBUF_HighImpedanceConfig
        0x08001eb4:    4903        .I      LDR      r1,[pc,#12] ; [0x8001ec4] = 0x40010000
        0x08001eb6:    6b0a        .k      LDR      r2,[r1,#0x30]
        0x08001eb8:    f0220202    "...    BIC      r2,r2,#2
        0x08001ebc:    4310        .C      ORRS     r0,r0,r2
        0x08001ebe:    6308        .c      STR      r0,[r1,#0x30]
        0x08001ec0:    4770        pG      BX       lr
    $d
        0x08001ec2:    0000        ..      DCW    0
        0x08001ec4:    40010000    ...@    DCD    1073807360
    $t
    i.HAL_SYSTICK_Config
    HAL_SYSTICK_Config
        0x08001ec8:    1e41        A.      SUBS     r1,r0,#1
        0x08001eca:    f1b17f80    ....    CMP      r1,#0x1000000
        0x08001ece:    bf24        $.      ITT      CS
        0x08001ed0:    2001        .       MOVCS    r0,#1
        0x08001ed2:    4770        pG      BXCS     lr
        0x08001ed4:    f04f20e0    O..     MOV      r0,#0xe000e000
        0x08001ed8:    6141        Aa      STR      r1,[r0,#0x14]
        0x08001eda:    4a05        .J      LDR      r2,[pc,#20] ; [0x8001ef0] = 0xe000e00f
        0x08001edc:    21f0        .!      MOVS     r1,#0xf0
        0x08001ede:    f8821d14    ....    STRB     r1,[r2,#0xd14]
        0x08001ee2:    2100        .!      MOVS     r1,#0
        0x08001ee4:    6181        .a      STR      r1,[r0,#0x18]
        0x08001ee6:    2107        .!      MOVS     r1,#7
        0x08001ee8:    6101        .a      STR      r1,[r0,#0x10]
        0x08001eea:    2000        .       MOVS     r0,#0
        0x08001eec:    4770        pG      BX       lr
    $d
        0x08001eee:    0000        ..      DCW    0
        0x08001ef0:    e000e00f    ....    DCD    3758153743
    $t
    i.HFPISensorlessObserver
    HFPISensorlessObserver
        0x08001ef4:    e92d41f0    -..A    PUSH     {r4-r8,lr}
        0x08001ef8:    4605        .F      MOV      r5,r0
        0x08001efa:    4854        TH      LDR      r0,[pc,#336] ; [0x800204c] = 0x20000060
        0x08001efc:    460c        .F      MOV      r4,r1
        0x08001efe:    ed2d8b04    -...    VPUSH    {d8-d9}
        0x08001f02:    6800        .h      LDR      r0,[r0,#0]
        0x08001f04:    ed910a0b    ....    VLDR     s0,[r1,#0x2c]
        0x08001f08:    edd08a06    ....    VLDR     s17,[r0,#0x18]
        0x08001f0c:    f000fa80    ....    BL       Hardware_GetSinCosVal ; 0x8002410
        0x08001f10:    ed840a01    ....    VSTR     s0,[r4,#4]
        0x08001f14:    edc40a02    ....    VSTR     s1,[r4,#8]
        0x08001f18:    ed940a0b    ....    VLDR     s0,[r4,#0x2c]
        0x08001f1c:    edd40a12    ....    VLDR     s1,[r4,#0x48]
        0x08001f20:    ed9f8a4b    ..K.    VLDR     s16,[pc,#300] ; [0x8002050] = 0x40c90fdb
        0x08001f24:    4e4b        KN      LDR      r6,[pc,#300] ; [0x8002054] = 0x40490fdb
        0x08001f26:    4f4c        LO      LDR      r7,[pc,#304] ; [0x8002058] = 0xc0490fdb
        0x08001f28:    ee600a88    `...    VMUL.F32 s1,s1,s16
        0x08001f2c:    ee000aa8    ....    VMLA.F32 s0,s1,s17
        0x08001f30:    ee100a10    ....    VMOV     r0,s0
        0x08001f34:    ed840a0b    ....    VSTR     s0,[r4,#0x2c]
        0x08001f38:    42b0        .B      CMP      r0,r6
        0x08001f3a:    bfc8        ..      IT       GT
        0x08001f3c:    ee300a48    0.H.    VSUBGT.F32 s0,s0,s16
        0x08001f40:    dc06        ..      BGT      0x8001f50 ; HFPISensorlessObserver + 92
        0x08001f42:    ee100a10    ....    VMOV     r0,s0
        0x08001f46:    42b8        .B      CMP      r0,r7
        0x08001f48:    bf88        ..      IT       HI
        0x08001f4a:    ee300a08    0...    VADDHI.F32 s0,s0,s16
        0x08001f4e:    d901        ..      BLS      0x8001f54 ; HFPISensorlessObserver + 96
        0x08001f50:    ed840a0b    ....    VSTR     s0,[r4,#0x2c]
        0x08001f54:    f105003c    ..<.    ADD      r0,r5,#0x3c
        0x08001f58:    f7fefaba    ....    BL       Abc_AlphaBeta_Trans ; 0x80004d0
        0x08001f5c:    ed840a03    ....    VSTR     s0,[r4,#0xc]
        0x08001f60:    edc40a04    ....    VSTR     s1,[r4,#0x10]
        0x08001f64:    f1050124    ..$.    ADD      r1,r5,#0x24
        0x08001f68:    f104000c    ....    ADD      r0,r4,#0xc
        0x08001f6c:    f7fefafa    ....    BL       AlphaBeta_Dq_Trans ; 0x8000564
        0x08001f70:    ed840a05    ....    VSTR     s0,[r4,#0x14]
        0x08001f74:    edc40a06    ....    VSTR     s1,[r4,#0x18]
        0x08001f78:    4838        8H      LDR      r0,[pc,#224] ; [0x800205c] = 0x200002a0
        0x08001f7a:    f7fefb04    ....    BL       BPF_2stOrder_1in_1out_Calculate ; 0x8000586
        0x08001f7e:    ed840a07    ....    VSTR     s0,[r4,#0x1c]
        0x08001f82:    ed940a06    ....    VLDR     s0,[r4,#0x18]
        0x08001f86:    4836        6H      LDR      r0,[pc,#216] ; [0x8002060] = 0x200002bc
        0x08001f88:    f7fefafd    ....    BL       BPF_2stOrder_1in_1out_Calculate ; 0x8000586
        0x08001f8c:    ed840a08    ....    VSTR     s0,[r4,#0x20]
        0x08001f90:    ed940a05    ....    VLDR     s0,[r4,#0x14]
        0x08001f94:    edd40a07    ....    VLDR     s1,[r4,#0x1c]
        0x08001f98:    4832        2H      LDR      r0,[pc,#200] ; [0x8002064] = 0x20000268
        0x08001f9a:    ee300a60    0.`.    VSUB.F32 s0,s0,s1
        0x08001f9e:    f001fbff    ....    BL       LPF_2stOrder_1in_1out_Calculate ; 0x80037a0
        0x08001fa2:    ed850a11    ....    VSTR     s0,[r5,#0x44]
        0x08001fa6:    ed940a06    ....    VLDR     s0,[r4,#0x18]
        0x08001faa:    edd40a08    ....    VLDR     s1,[r4,#0x20]
        0x08001fae:    482e        .H      LDR      r0,[pc,#184] ; [0x8002068] = 0x20000284
        0x08001fb0:    ee300a60    0.`.    VSUB.F32 s0,s0,s1
        0x08001fb4:    f001fbf4    ....    BL       LPF_2stOrder_1in_1out_Calculate ; 0x80037a0
        0x08001fb8:    ed850a12    ....    VSTR     s0,[r5,#0x48]
        0x08001fbc:    ed940a08    ....    VLDR     s0,[r4,#0x20]
        0x08001fc0:    edd40a02    ....    VLDR     s1,[r4,#8]
        0x08001fc4:    4829        )H      LDR      r0,[pc,#164] ; [0x800206c] = 0x200002d8
        0x08001fc6:    ee209a20     . .    VMUL.F32 s18,s0,s1
        0x08001fca:    eeb00a49    ..I.    VMOV.F32 s0,s18
        0x08001fce:    f7fefada    ....    BL       BPF_2stOrder_1in_1out_Calculate ; 0x8000586
        0x08001fd2:    ee390a40    9.@.    VSUB.F32 s0,s18,s0
        0x08001fd6:    edd40a0f    ....    VLDR     s1,[r4,#0x3c]
        0x08001fda:    ee200a80     ...    VMUL.F32 s0,s1,s0
        0x08001fde:    ed840a0e    ....    VSTR     s0,[r4,#0x38]
        0x08001fe2:    edd40a10    ....    VLDR     s1,[r4,#0x40]
        0x08001fe6:    ee400a28    @.(.    VMLA.F32 s1,s0,s17
        0x08001fea:    edc40a10    ....    VSTR     s1,[r4,#0x40]
        0x08001fee:    ed941a14    ....    VLDR     s2,[r4,#0x50]
        0x08001ff2:    ee600a81    `...    VMUL.F32 s1,s1,s2
        0x08001ff6:    ed941a13    ....    VLDR     s2,[r4,#0x4c]
        0x08001ffa:    ee400a01    @...    VMLA.F32 s1,s0,s2
        0x08001ffe:    edc40a0d    ....    VSTR     s1,[r4,#0x34]
        0x08002002:    ed940a11    ....    VLDR     s0,[r4,#0x44]
        0x08002006:    ee000aa8    ....    VMLA.F32 s0,s1,s17
        0x0800200a:    ee100a10    ....    VMOV     r0,s0
        0x0800200e:    ed840a11    ....    VSTR     s0,[r4,#0x44]
        0x08002012:    42b0        .B      CMP      r0,r6
        0x08002014:    bfc4        ..      ITT      GT
        0x08002016:    eddf0a16    ....    VLDRGT   s1,[pc,#88] ; [0x8002070] = 0xc0c90fdb
        0x0800201a:    ee300a20    0. .    VADDGT.F32 s0,s0,s1
        0x0800201e:    dc06        ..      BGT      0x800202e ; HFPISensorlessObserver + 314
        0x08002020:    ee100a10    ....    VMOV     r0,s0
        0x08002024:    42b8        .B      CMP      r0,r7
        0x08002026:    bf88        ..      IT       HI
        0x08002028:    ee380a40    8.@.    VSUBHI.F32 s0,s16,s0
        0x0800202c:    d901        ..      BLS      0x8002032 ; HFPISensorlessObserver + 318
        0x0800202e:    ed840a11    ....    VSTR     s0,[r4,#0x44]
        0x08002032:    ed840a0c    ....    VSTR     s0,[r4,#0x30]
        0x08002036:    ed940a02    ....    VLDR     s0,[r4,#8]
        0x0800203a:    edd40a00    ....    VLDR     s1,[r4,#0]
        0x0800203e:    ecbd8b04    ....    VPOP     {d8-d9}
        0x08002042:    ee200a20     . .    VMUL.F32 s0,s0,s1
        0x08002046:    e8bd81f0    ....    POP      {r4-r8,pc}
    $d
        0x0800204a:    0000        ..      DCW    0
        0x0800204c:    20000060    `..     DCD    536871008
        0x08002050:    40c90fdb    ...@    DCD    1086918619
        0x08002054:    40490fdb    ..I@    DCD    1078530011
        0x08002058:    c0490fdb    ..I.    DCD    3226013659
        0x0800205c:    200002a0    ...     DCD    536871584
        0x08002060:    200002bc    ...     DCD    536871612
        0x08002064:    20000268    h..     DCD    536871528
        0x08002068:    20000284    ...     DCD    536871556
        0x0800206c:    200002d8    ...     DCD    536871640
        0x08002070:    c0c90fdb    ....    DCD    3234402267
    $t
    i.HFPI_BPF0_2stOrder_1in_1out_SetPar
    HFPI_BPF0_2stOrder_1in_1out_SetPar
        0x08002074:    b510        ..      PUSH     {r4,lr}
        0x08002076:    480e        .H      LDR      r0,[pc,#56] ; [0x80020b0] = 0x200002a0
        0x08002078:    ed2d8b04    -...    VPUSH    {d8-d9}
        0x0800207c:    eeb08a61    ..a.    VMOV.F32 s16,s3
        0x08002080:    eef08a41    ..A.    VMOV.F32 s17,s2
        0x08002084:    eeb09a60    ..`.    VMOV.F32 s18,s1
        0x08002088:    eef09a40    ..@.    VMOV.F32 s19,s0
        0x0800208c:    f7fefa9a    ....    BL       BPF_2stOrder_1in_1out_SetPar ; 0x80005c4
        0x08002090:    eef01a48    ..H.    VMOV.F32 s3,s16
        0x08002094:    eeb01a68    ..h.    VMOV.F32 s2,s17
        0x08002098:    eef00a49    ..I.    VMOV.F32 s1,s18
        0x0800209c:    eeb00a69    ..i.    VMOV.F32 s0,s19
        0x080020a0:    ecbd8b04    ....    VPOP     {d8-d9}
        0x080020a4:    e8bd4010    ...@    POP      {r4,lr}
        0x080020a8:    4802        .H      LDR      r0,[pc,#8] ; [0x80020b4] = 0x200002bc
        0x080020aa:    f7feba8b    ....    B        BPF_2stOrder_1in_1out_SetPar ; 0x80005c4
    $d
        0x080020ae:    0000        ..      DCW    0
        0x080020b0:    200002a0    ...     DCD    536871584
        0x080020b4:    200002bc    ...     DCD    536871612
    $t
    i.HFPI_BPF1_2stOrder_1in_1out_SetPar
    HFPI_BPF1_2stOrder_1in_1out_SetPar
        0x080020b8:    4801        .H      LDR      r0,[pc,#4] ; [0x80020c0] = 0x200002d8
        0x080020ba:    f7feba83    ....    B        BPF_2stOrder_1in_1out_SetPar ; 0x80005c4
    $d
        0x080020be:    0000        ..      DCW    0
        0x080020c0:    200002d8    ...     DCD    536871640
    $t
    i.HFPI_LPF_2stOrder_1in_1out_SetPar
    HFPI_LPF_2stOrder_1in_1out_SetPar
        0x080020c4:    b510        ..      PUSH     {r4,lr}
        0x080020c6:    480e        .H      LDR      r0,[pc,#56] ; [0x8002100] = 0x20000268
        0x080020c8:    ed2d8b04    -...    VPUSH    {d8-d9}
        0x080020cc:    eeb08a61    ..a.    VMOV.F32 s16,s3
        0x080020d0:    eef08a41    ..A.    VMOV.F32 s17,s2
        0x080020d4:    eeb09a60    ..`.    VMOV.F32 s18,s1
        0x080020d8:    eef09a40    ..@.    VMOV.F32 s19,s0
        0x080020dc:    f001fb80    ....    BL       LPF_2stOrder_1in_1out_SetPar ; 0x80037e0
        0x080020e0:    eef01a48    ..H.    VMOV.F32 s3,s16
        0x080020e4:    eeb01a68    ..h.    VMOV.F32 s2,s17
        0x080020e8:    eef00a49    ..I.    VMOV.F32 s1,s18
        0x080020ec:    eeb00a69    ..i.    VMOV.F32 s0,s19
        0x080020f0:    ecbd8b04    ....    VPOP     {d8-d9}
        0x080020f4:    e8bd4010    ...@    POP      {r4,lr}
        0x080020f8:    4802        .H      LDR      r0,[pc,#8] ; [0x8002104] = 0x20000284
        0x080020fa:    f001bb71    ..q.    B.W      LPF_2stOrder_1in_1out_SetPar ; 0x80037e0
    $d
        0x080020fe:    0000        ..      DCW    0
        0x08002100:    20000268    h..     DCD    536871528
        0x08002104:    20000284    ...     DCD    536871556
    $t
    i.HFSISensorlessObserver
    HFSISensorlessObserver
        0x08002108:    b570        p.      PUSH     {r4-r6,lr}
        0x0800210a:    4605        .F      MOV      r5,r0
        0x0800210c:    ed2d8b02    -...    VPUSH    {d8}
        0x08002110:    460c        .F      MOV      r4,r1
        0x08002112:    303c        <0      ADDS     r0,r0,#0x3c
        0x08002114:    f7fef9dc    ....    BL       Abc_AlphaBeta_Trans ; 0x80004d0
        0x08002118:    ed840a04    ....    VSTR     s0,[r4,#0x10]
        0x0800211c:    edc40a05    ....    VSTR     s1,[r4,#0x14]
        0x08002120:    f1050124    ..$.    ADD      r1,r5,#0x24
        0x08002124:    f1040010    ....    ADD      r0,r4,#0x10
        0x08002128:    f7fefa1c    ....    BL       AlphaBeta_Dq_Trans ; 0x8000564
        0x0800212c:    eeb08a40    ..@.    VMOV.F32 s16,s0
        0x08002130:    eef08a60    ..`.    VMOV.F32 s17,s1
        0x08002134:    ed858a11    ....    VSTR     s16,[r5,#0x44]
        0x08002138:    edc58a12    ....    VSTR     s17,[r5,#0x48]
        0x0800213c:    ed840a06    ....    VSTR     s0,[r4,#0x18]
        0x08002140:    edc40a07    ....    VSTR     s1,[r4,#0x1c]
        0x08002144:    ed941a02    ....    VLDR     s2,[r4,#8]
        0x08002148:    ee301a01    0...    VADD.F32 s2,s0,s2
        0x0800214c:    eeb60a00    ....    VMOV.F32 s0,#0.50000000
        0x08002150:    ee211a00    !...    VMUL.F32 s2,s2,s0
        0x08002154:    ed851a11    ....    VSTR     s2,[r5,#0x44]
        0x08002158:    ed941a03    ....    VLDR     s2,[r4,#0xc]
        0x0800215c:    ee700a81    p...    VADD.F32 s1,s1,s2
        0x08002160:    ee600a80    `...    VMUL.F32 s1,s1,s0
        0x08002164:    edc50a12    ....    VSTR     s1,[r5,#0x48]
        0x08002168:    edd40a04    ....    VLDR     s1,[r4,#0x10]
        0x0800216c:    ed941a00    ....    VLDR     s2,[r4,#0]
        0x08002170:    edd41a01    ....    VLDR     s3,[r4,#4]
        0x08002174:    f8940058    ..X.    LDRB     r0,[r4,#0x58]
        0x08002178:    ee700ac1    p...    VSUB.F32 s1,s1,s2
        0x0800217c:    ed941a05    ....    VLDR     s2,[r4,#0x14]
        0x08002180:    2800        .(      CMP      r0,#0
        0x08002182:    ee311a61    1.a.    VSUB.F32 s2,s2,s3
        0x08002186:    ee600a80    `...    VMUL.F32 s1,s1,s0
        0x0800218a:    ee210a00    !...    VMUL.F32 s0,s2,s0
        0x0800218e:    bf1c        ..      ITT      NE
        0x08002190:    eef10a60    ..`.    VNEGNE.F32 s1,s1
        0x08002194:    eeb10a40    ..@.    VNEGNE.F32 s0,s0
        0x08002198:    edc40a0a    ....    VSTR     s1,[r4,#0x28]
        0x0800219c:    ee600aa0    `...    VMUL.F32 s1,s1,s1
        0x080021a0:    ed840a0b    ....    VSTR     s0,[r4,#0x2c]
        0x080021a4:    ee400a00    @...    VMLA.F32 s1,s0,s0
        0x080021a8:    eeb00a60    ..`.    VMOV.F32 s0,s1
        0x080021ac:    f7fffad4    ....    BL       FastReciprocalSquareRoot ; 0x8001758
        0x080021b0:    edd40a0a    ....    VLDR     s1,[r4,#0x28]
        0x080021b4:    4831        1H      LDR      r0,[pc,#196] ; [0x800227c] = 0x20000060
        0x080021b6:    4932        2I      LDR      r1,[pc,#200] ; [0x8002280] = 0x40490fdb
        0x080021b8:    ee600a80    `...    VMUL.F32 s1,s1,s0
        0x080021bc:    edc40a0c    ....    VSTR     s1,[r4,#0x30]
        0x080021c0:    ed941a0b    ....    VLDR     s2,[r4,#0x2c]
        0x080021c4:    ee210a00    !...    VMUL.F32 s0,s2,s0
        0x080021c8:    ed840a0d    ....    VSTR     s0,[r4,#0x34]
        0x080021cc:    ed951a0a    ....    VLDR     s2,[r5,#0x28]
        0x080021d0:    ee200a01     ...    VMUL.F32 s0,s0,s2
        0x080021d4:    ed951a09    ....    VLDR     s2,[r5,#0x24]
        0x080021d8:    ee000ac1    ....    VMLS.F32 s0,s1,s2
        0x080021dc:    ed840a15    ....    VSTR     s0,[r4,#0x54]
        0x080021e0:    6800        .h      LDR      r0,[r0,#0]
        0x080021e2:    edd40a0f    ....    VLDR     s1,[r4,#0x3c]
        0x080021e6:    edd01a06    ....    VLDR     s3,[r0,#0x18]
        0x080021ea:    ee410a80    A...    VMLA.F32 s1,s3,s0
        0x080021ee:    edc40a0f    ....    VSTR     s1,[r4,#0x3c]
        0x080021f2:    ed941a12    ....    VLDR     s2,[r4,#0x48]
        0x080021f6:    ee600a81    `...    VMUL.F32 s1,s1,s2
        0x080021fa:    ed941a11    ....    VLDR     s2,[r4,#0x44]
        0x080021fe:    ee400a01    @...    VMLA.F32 s1,s0,s2
        0x08002202:    edc40a14    ....    VSTR     s1,[r4,#0x50]
        0x08002206:    ed941a10    ....    VLDR     s2,[r4,#0x40]
        0x0800220a:    ee011aa0    ....    VMLA.F32 s2,s3,s1
        0x0800220e:    ee110a10    ....    VMOV     r0,s2
        0x08002212:    4288        .B      CMP      r0,r1
        0x08002214:    dd06        ..      BLE      0x8002224 ; HFSISensorlessObserver + 284
        0x08002216:    ed9f0a1b    ....    VLDR     s0,[pc,#108] ; [0x8002284] = 0xc0c90fdb
        0x0800221a:    ee310a00    1...    VADD.F32 s0,s2,s0
        0x0800221e:    ed840a10    ....    VSTR     s0,[r4,#0x40]
        0x08002222:    e00d        ..      B        0x8002240 ; HFSISensorlessObserver + 312
        0x08002224:    ee110a10    ....    VMOV     r0,s2
        0x08002228:    4917        .I      LDR      r1,[pc,#92] ; [0x8002288] = 0xc0490fdb
        0x0800222a:    4288        .B      CMP      r0,r1
        0x0800222c:    bf98        ..      IT       LS
        0x0800222e:    ed841a10    ....    VSTRLS   s2,[r4,#0x40]
        0x08002232:    d905        ..      BLS      0x8002240 ; HFSISensorlessObserver + 312
        0x08002234:    ed9f0a15    ....    VLDR     s0,[pc,#84] ; [0x800228c] = 0x40c90fdb
        0x08002238:    ee310a00    1...    VADD.F32 s0,s2,s0
        0x0800223c:    ed840a10    ....    VSTR     s0,[r4,#0x40]
        0x08002240:    ed940a10    ....    VLDR     s0,[r4,#0x40]
        0x08002244:    ed840a13    ....    VSTR     s0,[r4,#0x4c]
        0x08002248:    e9d40104    ....    LDRD     r0,r1,[r4,#0x10]
        0x0800224c:    e9c40100    ....    STRD     r0,r1,[r4,#0]
        0x08002250:    ed848a02    ....    VSTR     s16,[r4,#8]
        0x08002254:    edc48a03    ....    VSTR     s17,[r4,#0xc]
        0x08002258:    f8940058    ..X.    LDRB     r0,[r4,#0x58]
        0x0800225c:    2800        .(      CMP      r0,#0
        0x0800225e:    bf0c        ..      ITE      EQ
        0x08002260:    2001        .       MOVEQ    r0,#1
        0x08002262:    2000        .       MOVNE    r0,#0
        0x08002264:    f8840058    ..X.    STRB     r0,[r4,#0x58]
        0x08002268:    ed940a0e    ....    VLDR     s0,[r4,#0x38]
        0x0800226c:    eeb10a40    ..@.    VNEG.F32 s0,s0
        0x08002270:    ed840a0e    ....    VSTR     s0,[r4,#0x38]
        0x08002274:    ecbd8b02    ....    VPOP     {d8}
        0x08002278:    bd70        p.      POP      {r4-r6,pc}
    $d
        0x0800227a:    0000        ..      DCW    0
        0x0800227c:    20000060    `..     DCD    536871008
        0x08002280:    40490fdb    ..I@    DCD    1078530011
        0x08002284:    c0c90fdb    ....    DCD    3234402267
        0x08002288:    c0490fdb    ..I.    DCD    3226013659
        0x0800228c:    40c90fdb    ...@    DCD    1086918619
    $t
    i.HardFault_Handler
    HardFault_Handler
        0x08002290:    e7fe        ..      B        HardFault_Handler ; 0x8002290
        0x08002292:    0000        ..      MOVS     r0,r0
    i.Hardware_FastReciprocalSquareRoot
    Hardware_FastReciprocalSquareRoot
        0x08002294:    ee100a10    ....    VMOV     r0,s0
        0x08002298:    eef60a00    ....    VMOV.F32 s1,#0.50000000
        0x0800229c:    4907        .I      LDR      r1,[pc,#28] ; [0x80022bc] = 0x5f3759df
        0x0800229e:    ee600a20    `. .    VMUL.F32 s1,s0,s1
        0x080022a2:    eba10060    ..`.    SUB      r0,r1,r0,ASR #1
        0x080022a6:    ee000a10    ....    VMOV     s0,r0
        0x080022aa:    ee201a80     ...    VMUL.F32 s2,s1,s0
        0x080022ae:    eef70a08    ....    VMOV.F32 s1,#1.50000000
        0x080022b2:    ee410a40    A.@.    VMLS.F32 s1,s2,s0
        0x080022b6:    ee200a80     ...    VMUL.F32 s0,s1,s0
        0x080022ba:    4770        pG      BX       lr
    $d
        0x080022bc:    5f3759df    .Y7_    DCD    1597463007
    $t
    i.Hardware_FastSquareRoot
    Hardware_FastSquareRoot
        0x080022c0:    eef00a40    ..@.    VMOV.F32 s1,s0
        0x080022c4:    eef50ac0    ....    VCMPE.F32 s1,#0.0
        0x080022c8:    eef1fa10    ....    VMRS     APSR_nzcv,FPSCR
        0x080022cc:    bfac        ..      ITE      GE
        0x080022ce:    eeb10ae0    ....    VSQRTGE.F32 s0,s1
        0x080022d2:    ed9f0a01    ....    VLDRLT   s0,[pc,#4] ; [0x80022d8] = 0
        0x080022d6:    4770        pG      BX       lr
    $d
        0x080022d8:    00000000    ....    DCD    0
    $t
    i.Hardware_GetABZCounter
    Hardware_GetABZCounter
        0x080022dc:    4801        .H      LDR      r0,[pc,#4] ; [0x80022e4] = 0x40000424
        0x080022de:    6800        .h      LDR      r0,[r0,#0]
        0x080022e0:    4770        pG      BX       lr
    $d
        0x080022e2:    0000        ..      DCW    0
        0x080022e4:    40000424    $..@    DCD    1073742884
    $t
    i.Hardware_GetAbsCounter
    Hardware_GetAbsCounter
        0x080022e8:    4806        .H      LDR      r0,[pc,#24] ; [0x8002304] = 0x20000064
        0x080022ea:    f44f71cd    O..q    MOV      r1,#0x19a
        0x080022ee:    6800        .h      LDR      r0,[r0,#0]
        0x080022f0:    8800        ..      LDRH     r0,[r0,#0]
        0x080022f2:    00c0        ..      LSLS     r0,r0,#3
        0x080022f4:    f3c000cc    ....    UBFX     r0,r0,#3,#13
        0x080022f8:    fbb0f2f1    ....    UDIV     r2,r0,r1
        0x080022fc:    fb010012    ....    MLS      r0,r1,r2,r0
        0x08002300:    4770        pG      BX       lr
    $d
        0x08002302:    0000        ..      DCW    0
        0x08002304:    20000064    d..     DCD    536871012
    $t
    i.Hardware_GetBusVoltage
    Hardware_GetBusVoltage
        0x08002308:    f04f40a0    O..@    MOV      r0,#0x50000000
        0x0800230c:    6881        .h      LDR      r1,[r0,#8]
        0x0800230e:    f021013f    !.?.    BIC      r1,r1,#0x3f
        0x08002312:    f0214100    !..A    BIC      r1,r1,#0x80000000
        0x08002316:    f0410104    A...    ORR      r1,r1,#4
        0x0800231a:    6081        .`      STR      r1,[r0,#8]
        0x0800231c:    6801        .h      LDR      r1,[r0,#0]
        0x0800231e:    f0110f04    ....    TST      r1,#4
        0x08002322:    d0fb        ..      BEQ      0x800231c ; Hardware_GetBusVoltage + 20
        0x08002324:    6c01        .l      LDR      r1,[r0,#0x40]
        0x08002326:    ed9f1a14    ....    VLDR     s2,[pc,#80] ; [0x8002378] = 0x477fff00
        0x0800232a:    b289        ..      UXTH     r1,r1
        0x0800232c:    ee001a10    ....    VMOV     s0,r1
        0x08002330:    eddf1a12    ....    VLDR     s3,[pc,#72] ; [0x800237c] = 0x40533333
        0x08002334:    eef80a40    ..@.    VCVT.F32.U32 s1,s0
        0x08002338:    ee800a81    ....    VDIV.F32 s0,s1,s2
        0x0800233c:    eef30a0f    ....    VMOV.F32 s1,#31.00000000
        0x08002340:    ee200a21     .!.    VMUL.F32 s0,s0,s3
        0x08002344:    ee200a20     . .    VMUL.F32 s0,s0,s1
        0x08002348:    6801        .h      LDR      r1,[r0,#0]
        0x0800234a:    f0110f04    ....    TST      r1,#4
        0x0800234e:    d0fb        ..      BEQ      0x8002348 ; Hardware_GetBusVoltage + 64
        0x08002350:    6c00        .l      LDR      r0,[r0,#0x40]
        0x08002352:    b280        ..      UXTH     r0,r0
        0x08002354:    ee000a90    ....    VMOV     s1,r0
        0x08002358:    480a        .H      LDR      r0,[pc,#40] ; [0x8002384] = 0x20000098
        0x0800235a:    eef80a60    ..`.    VCVT.F32.U32 s1,s1
        0x0800235e:    6800        .h      LDR      r0,[r0,#0]
        0x08002360:    ee802a81    ...*    VDIV.F32 s4,s1,s2
        0x08002364:    ed9f1a06    ....    VLDR     s2,[pc,#24] ; [0x8002380] = 0x3f9b1000
        0x08002368:    ee620a21    b.!.    VMUL.F32 s1,s4,s3
        0x0800236c:    eec11a20    .. .    VDIV.F32 s3,s2,s1
        0x08002370:    edc01a00    ....    VSTR     s3,[r0,#0]
        0x08002374:    4770        pG      BX       lr
    $d
        0x08002376:    0000        ..      DCW    0
        0x08002378:    477fff00    ...G    DCD    1199570688
        0x0800237c:    40533333    33S@    DCD    1079194419
        0x08002380:    3f9b1000    ...?    DCD    1067126784
        0x08002384:    20000098    ...     DCD    536871064
    $t
    i.Hardware_GetPhaseVoltage
    Hardware_GetPhaseVoltage
        0x08002388:    4919        .I      LDR      r1,[pc,#100] ; [0x80023f0] = 0x50000084
        0x0800238a:    6809        .h      LDR      r1,[r1,#0]
        0x0800238c:    b289        ..      UXTH     r1,r1
        0x0800238e:    ee001a10    ....    VMOV     s0,r1
        0x08002392:    491a        .I      LDR      r1,[pc,#104] ; [0x80023fc] = 0x50000184
        0x08002394:    eef80a40    ..@.    VCVT.F32.U32 s1,s0
        0x08002398:    ed9f0a16    ....    VLDR     s0,[pc,#88] ; [0x80023f4] = 0x477fff00
        0x0800239c:    ee801a80    ....    VDIV.F32 s2,s1,s0
        0x080023a0:    eefb0a0f    ....    VMOV.F32 s1,#-31.00000000
        0x080023a4:    ee611a20    a. .    VMUL.F32 s3,s2,s1
        0x080023a8:    ed9f1a13    ....    VLDR     s2,[pc,#76] ; [0x80023f8] = 0x40533333
        0x080023ac:    ee611a81    a...    VMUL.F32 s3,s3,s2
        0x080023b0:    edc01a03    ....    VSTR     s3,[r0,#0xc]
        0x080023b4:    6809        .h      LDR      r1,[r1,#0]
        0x080023b6:    b289        ..      UXTH     r1,r1
        0x080023b8:    ee011a90    ....    VMOV     s3,r1
        0x080023bc:    4910        .I      LDR      r1,[pc,#64] ; [0x8002400] = 0x50000188
        0x080023be:    eeb82a61    ..a*    VCVT.F32.U32 s4,s3
        0x080023c2:    eec21a00    ....    VDIV.F32 s3,s4,s0
        0x080023c6:    ee611aa0    a...    VMUL.F32 s3,s3,s1
        0x080023ca:    ee611a81    a...    VMUL.F32 s3,s3,s2
        0x080023ce:    edc01a02    ....    VSTR     s3,[r0,#8]
        0x080023d2:    6809        .h      LDR      r1,[r1,#0]
        0x080023d4:    b289        ..      UXTH     r1,r1
        0x080023d6:    ee011a90    ....    VMOV     s3,r1
        0x080023da:    eef81a61    ..a.    VCVT.F32.U32 s3,s3
        0x080023de:    ee812a80    ...*    VDIV.F32 s4,s3,s0
        0x080023e2:    ee220a20    ". .    VMUL.F32 s0,s4,s1
        0x080023e6:    ee200a01     ...    VMUL.F32 s0,s0,s2
        0x080023ea:    ed800a01    ....    VSTR     s0,[r0,#4]
        0x080023ee:    4770        pG      BX       lr
    $d
        0x080023f0:    50000084    ...P    DCD    1342177412
        0x080023f4:    477fff00    ...G    DCD    1199570688
        0x080023f8:    40533333    33S@    DCD    1079194419
        0x080023fc:    50000184    ...P    DCD    1342177668
        0x08002400:    50000188    ...P    DCD    1342177672
    $t
    i.Hardware_GetPulseCounter
    Hardware_GetPulseCounter
        0x08002404:    4801        .H      LDR      r0,[pc,#4] ; [0x800240c] = 0x40014424
        0x08002406:    6800        .h      LDR      r0,[r0,#0]
        0x08002408:    4770        pG      BX       lr
    $d
        0x0800240a:    0000        ..      DCW    0
        0x0800240c:    40014424    $D.@    DCD    1073824804
    $t
    i.Hardware_GetSinCosVal
    Hardware_GetSinCosVal
        0x08002410:    ed9f1a0f    ....    VLDR     s2,[pc,#60] ; [0x8002450] = 0x40490fdb
        0x08002414:    4910        .I      LDR      r1,[pc,#64] ; [0x8002458] = 0x40020c00
        0x08002416:    eec00a01    ....    VDIV.F32 s1,s0,s2
        0x0800241a:    ed9f0a0e    ....    VLDR     s0,[pc,#56] ; [0x8002454] = 0x4f000000
        0x0800241e:    ee200a80     ...    VMUL.F32 s0,s1,s0
        0x08002422:    eebd0ac0    ....    VCVT.S32.F32 s0,s0
        0x08002426:    ee100a10    ....    VMOV     r0,s0
        0x0800242a:    6048        H`      STR      r0,[r1,#4]
        0x0800242c:    6888        .h      LDR      r0,[r1,#8]
        0x0800242e:    6889        .h      LDR      r1,[r1,#8]
        0x08002430:    ee000a10    ....    VMOV     s0,r0
        0x08002434:    ee001a90    ....    VMOV     s1,r1
        0x08002438:    ed9f1a08    ....    VLDR     s2,[pc,#32] ; [0x800245c] = 0x30000000
        0x0800243c:    eeb80ac0    ....    VCVT.F32.S32 s0,s0
        0x08002440:    eef80ae0    ....    VCVT.F32.S32 s1,s1
        0x08002444:    ee200a01     ...    VMUL.F32 s0,s0,s2
        0x08002448:    ee600a81    `...    VMUL.F32 s1,s1,s2
        0x0800244c:    4770        pG      BX       lr
    $d
        0x0800244e:    0000        ..      DCW    0
        0x08002450:    40490fdb    ..I@    DCD    1078530011
        0x08002454:    4f000000    ...O    DCD    1325400064
        0x08002458:    40020c00    ...@    DCD    1073875968
        0x0800245c:    30000000    ...0    DCD    805306368
    $t
    i.Hardware_MCStartOrStop
    Hardware_MCStartOrStop
        0x08002460:    480b        .H      LDR      r0,[pc,#44] ; [0x8002490] = 0x48000400
        0x08002462:    6900        .i      LDR      r0,[r0,#0x10]
        0x08002464:    f04f0100    O...    MOV      r1,#0
        0x08002468:    f0100f40    ..@.    TST      r0,#0x40
        0x0800246c:    4809        .H      LDR      r0,[pc,#36] ; [0x8002494] = 0x200000bc
        0x0800246e:    bf18        ..      IT       NE
        0x08002470:    8081        ..      STRHNE   r1,[r0,#4]
        0x08002472:    d10b        ..      BNE      0x800248c ; Hardware_MCStartOrStop + 44
        0x08002474:    8882        ..      LDRH     r2,[r0,#4]
        0x08002476:    1c52        R.      ADDS     r2,r2,#1
        0x08002478:    b292        ..      UXTH     r2,r2
        0x0800247a:    8082        ..      STRH     r2,[r0,#4]
        0x0800247c:    f5b27f96    ....    CMP      r2,#0x12c
        0x08002480:    d904        ..      BLS      0x800248c ; Hardware_MCStartOrStop + 44
        0x08002482:    8081        ..      STRH     r1,[r0,#4]
        0x08002484:    7801        .x      LDRB     r1,[r0,#0]
        0x08002486:    f0810101    ....    EOR      r1,r1,#1
        0x0800248a:    7001        .p      STRB     r1,[r0,#0]
        0x0800248c:    7800        .x      LDRB     r0,[r0,#0]
        0x0800248e:    4770        pG      BX       lr
    $d
        0x08002490:    48000400    ...H    DCD    1207960576
        0x08002494:    200000bc    ...     DCD    536871100
    $t
    i.Hardware_PerformanceTaskEvent
    Hardware_PerformanceTaskEvent
        0x08002498:    480d        .H      LDR      r0,[pc,#52] ; [0x80024d0] = 0x20000098
        0x0800249a:    6801        .h      LDR      r1,[r0,#0]
        0x0800249c:    480d        .H      LDR      r0,[pc,#52] ; [0x80024d4] = 0x200000c8
        0x0800249e:    ed910a0f    ....    VLDR     s0,[r1,#0x3c]
        0x080024a2:    ed800a00    ....    VSTR     s0,[r0,#0]
        0x080024a6:    ed910a07    ....    VLDR     s0,[r1,#0x1c]
        0x080024aa:    ed800a01    ....    VSTR     s0,[r0,#4]
        0x080024ae:    ed910a08    ....    VLDR     s0,[r1,#0x20]
        0x080024b2:    4909        .I      LDR      r1,[pc,#36] ; [0x80024d8] = 0x2000008c
        0x080024b4:    ed800a02    ....    VSTR     s0,[r0,#8]
        0x080024b8:    6809        .h      LDR      r1,[r1,#0]
        0x080024ba:    ed910a02    ....    VLDR     s0,[r1,#8]
        0x080024be:    ed800a03    ....    VSTR     s0,[r0,#0xc]
        0x080024c2:    ed910a03    ....    VLDR     s0,[r1,#0xc]
        0x080024c6:    2118        .!      MOVS     r1,#0x18
        0x080024c8:    ed800a04    ....    VSTR     s0,[r0,#0x10]
        0x080024cc:    f7feb8ae    ....    B        CDC_Transmit_FS ; 0x800062c
    $d
        0x080024d0:    20000098    ...     DCD    536871064
        0x080024d4:    200000c8    ...     DCD    536871112
        0x080024d8:    2000008c    ...     DCD    536871052
    $t
    i.Hardware_SafatyTaskEvent
    Hardware_SafatyTaskEvent
        0x080024dc:    e92d01f0    -...    PUSH     {r4-r8}
        0x080024e0:    4a50        PJ      LDR      r2,[pc,#320] ; [0x8002624] = 0x200000bc
        0x080024e2:    f44f707a    O.zp    MOV      r0,#0x3e8
        0x080024e6:    6895        .h      LDR      r5,[r2,#8]
        0x080024e8:    fbb5f1f0    ....    UDIV     r1,r5,r0
        0x080024ec:    fb005011    ...P    MLS      r0,r0,r1,r5
        0x080024f0:    2800        .(      CMP      r0,#0
        0x080024f2:    d146        F.      BNE      0x8002582 ; Hardware_SafatyTaskEvent + 166
        0x080024f4:    484c        LH      LDR      r0,[pc,#304] ; [0x8002628] = 0x40005400
        0x080024f6:    6841        Ah      LDR      r1,[r0,#4]
        0x080024f8:    f4415100    A..Q    ORR      r1,r1,#0x2000
        0x080024fc:    6041        A`      STR      r1,[r0,#4]
        0x080024fe:    484b        KH      LDR      r0,[pc,#300] ; [0x800262c] = 0x20000000
        0x08002500:    8801        ..      LDRH     r1,[r0,#0]
        0x08002502:    8800        ..      LDRH     r0,[r0,#0]
        0x08002504:    0a09        ..      LSRS     r1,r1,#8
        0x08002506:    ea412000    A..     ORR      r0,r1,r0,LSL #8
        0x0800250a:    b200        ..      SXTH     r0,r0
        0x0800250c:    1140        @.      ASRS     r0,r0,#5
        0x0800250e:    ee000a10    ....    VMOV     s0,r0
        0x08002512:    4847        GH      LDR      r0,[pc,#284] ; [0x8002630] = 0x20000098
        0x08002514:    eef40a00    ....    VMOV.F32 s1,#0.12500000
        0x08002518:    eeb80ac0    ....    VCVT.F32.S32 s0,s0
        0x0800251c:    6800        .h      LDR      r0,[r0,#0]
        0x0800251e:    4b45        EK      LDR      r3,[pc,#276] ; [0x8002634] = 0x42820000
        0x08002520:    4945        EI      LDR      r1,[pc,#276] ; [0x8002638] = 0x48000800
        0x08002522:    ee200a20     . .    VMUL.F32 s0,s0,s1
        0x08002526:    ed800a0c    ....    VSTR     s0,[r0,#0x30]
        0x0800252a:    ee100a10    ....    VMOV     r0,s0
        0x0800252e:    4298        .B      CMP      r0,r3
        0x08002530:    dd1e        ..      BLE      0x8002570 ; Hardware_SafatyTaskEvent + 148
        0x08002532:    4842        BH      LDR      r0,[pc,#264] ; [0x800263c] = 0x40012c00
        0x08002534:    6c43        Cl      LDR      r3,[r0,#0x44]
        0x08002536:    f4234300    #..C    BIC      r3,r3,#0x8000
        0x0800253a:    6443        Cd      STR      r3,[r0,#0x44]
        0x0800253c:    6a03        .j      LDR      r3,[r0,#0x20]
        0x0800253e:    f0230301    #...    BIC      r3,r3,#1
        0x08002542:    6203        .b      STR      r3,[r0,#0x20]
        0x08002544:    6a03        .j      LDR      r3,[r0,#0x20]
        0x08002546:    f0230304    #...    BIC      r3,r3,#4
        0x0800254a:    6203        .b      STR      r3,[r0,#0x20]
        0x0800254c:    6a03        .j      LDR      r3,[r0,#0x20]
        0x0800254e:    f0230310    #...    BIC      r3,r3,#0x10
        0x08002552:    6203        .b      STR      r3,[r0,#0x20]
        0x08002554:    6a03        .j      LDR      r3,[r0,#0x20]
        0x08002556:    f0230340    #.@.    BIC      r3,r3,#0x40
        0x0800255a:    6203        .b      STR      r3,[r0,#0x20]
        0x0800255c:    6a03        .j      LDR      r3,[r0,#0x20]
        0x0800255e:    f4237380    #..s    BIC      r3,r3,#0x100
        0x08002562:    6203        .b      STR      r3,[r0,#0x20]
        0x08002564:    6a03        .j      LDR      r3,[r0,#0x20]
        0x08002566:    f4236380    #..c    BIC      r3,r3,#0x400
        0x0800256a:    6203        .b      STR      r3,[r0,#0x20]
        0x0800256c:    2001        .       MOVS     r0,#1
        0x0800256e:    6188        .a      STR      r0,[r1,#0x18]
        0x08002570:    6948        Hi      LDR      r0,[r1,#0x14]
        0x08002572:    f44f5300    O..S    MOV      r3,#0x2000
        0x08002576:    4383        .C      BICS     r3,r3,r0
        0x08002578:    f4005000    ...P    AND      r0,r0,#0x2000
        0x0800257c:    ea434000    C..@    ORR      r0,r3,r0,LSL #16
        0x08002580:    6188        .a      STR      r0,[r1,#0x18]
        0x08002582:    8850        P.      LDRH     r0,[r2,#2]
        0x08002584:    492e        .I      LDR      r1,[pc,#184] ; [0x8002640] = 0xaaaaaaab
        0x08002586:    fba1c300    ....    UMULL    r12,r3,r1,r0
        0x0800258a:    08db        ..      LSRS     r3,r3,#3
        0x0800258c:    eba30383    ....    SUB      r3,r3,r3,LSL #2
        0x08002590:    eb000783    ....    ADD      r7,r0,r3,LSL #2
        0x08002594:    1c43        C.      ADDS     r3,r0,#1
        0x08002596:    fba14c03    ...L    UMULL    r4,r12,r1,r3
        0x0800259a:    ea4f0cdc    O...    LSR      r12,r12,#3
        0x0800259e:    ebac0c8c    ....    SUB      r12,r12,r12,LSL #2
        0x080025a2:    eb03068c    ....    ADD      r6,r3,r12,LSL #2
        0x080025a6:    1c83        ..      ADDS     r3,r0,#2
        0x080025a8:    fba14c03    ...L    UMULL    r4,r12,r1,r3
        0x080025ac:    ea4f0cdc    O...    LSR      r12,r12,#3
        0x080025b0:    ebac0c8c    ....    SUB      r12,r12,r12,LSL #2
        0x080025b4:    eb03048c    ....    ADD      r4,r3,r12,LSL #2
        0x080025b8:    1cc3        ..      ADDS     r3,r0,#3
        0x080025ba:    fba1c103    ....    UMULL    r12,r1,r1,r3
        0x080025be:    08c9        ..      LSRS     r1,r1,#3
        0x080025c0:    eba10181    ....    SUB      r1,r1,r1,LSL #2
        0x080025c4:    eb030881    ....    ADD      r8,r3,r1,LSL #2
        0x080025c8:    491e        .I      LDR      r1,[pc,#120] ; [0x8002644] = 0x20001778
        0x080025ca:    5dcb        .]      LDRB     r3,[r1,r7]
        0x080025cc:    2b53        S+      CMP      r3,#0x53
        0x080025ce:    bf01        ..      ITTTT    EQ
        0x080025d0:    5d8b        .]      LDRBEQ   r3,[r1,r6]
        0x080025d2:    2b3a        :+      CMPEQ    r3,#0x3a
        0x080025d4:    f8113008    ...0    LDRBEQ   r3,[r1,r8]
        0x080025d8:    2b0a        .+      CMPEQ    r3,#0xa
        0x080025da:    d11b        ..      BNE      0x8002614 ; Hardware_SafatyTaskEvent + 312
        0x080025dc:    4b1a        .K      LDR      r3,[pc,#104] ; [0x8002648] = 0x200000ac
        0x080025de:    f811c004    ....    LDRB     r12,[r1,r4]
        0x080025e2:    681b        .h      LDR      r3,[r3,#0]
        0x080025e4:    f1bc0fc9    ....    CMP      r12,#0xc9
        0x080025e8:    bf24        $.      ITT      CS
        0x080025ea:    ed930a00    ....    VLDRCS   s0,[r3,#0]
        0x080025ee:    eeb10a40    ..@.    VNEGCS.F32 s0,s0
        0x080025f2:    d207        ..      BCS      0x8002604 ; Hardware_SafatyTaskEvent + 296
        0x080025f4:    ee00ca10    ....    VMOV     s0,r12
        0x080025f8:    eddf0a14    ....    VLDR     s1,[pc,#80] ; [0x800264c] = 0x40c90fdb
        0x080025fc:    eeb80a40    ..@.    VCVT.F32.U32 s0,s0
        0x08002600:    ee200a20     . .    VMUL.F32 s0,s0,s1
        0x08002604:    ed830a00    ....    VSTR     s0,[r3,#0]
        0x08002608:    2300        .#      MOVS     r3,#0
        0x0800260a:    558b        .U      STRB     r3,[r1,r6]
        0x0800260c:    55cb        .U      STRB     r3,[r1,r7]
        0x0800260e:    f8013008    ...0    STRB     r3,[r1,r8]
        0x08002612:    550b        .U      STRB     r3,[r1,r4]
        0x08002614:    1c40        @.      ADDS     r0,r0,#1
        0x08002616:    8050        P.      STRH     r0,[r2,#2]
        0x08002618:    1c68        h.      ADDS     r0,r5,#1
        0x0800261a:    6090        .`      STR      r0,[r2,#8]
        0x0800261c:    e8bd01f0    ....    POP      {r4-r8}
        0x08002620:    4770        pG      BX       lr
    $d
        0x08002622:    0000        ..      DCW    0
        0x08002624:    200000bc    ...     DCD    536871100
        0x08002628:    40005400    .T.@    DCD    1073763328
        0x0800262c:    20000000    ...     DCD    536870912
        0x08002630:    20000098    ...     DCD    536871064
        0x08002634:    42820000    ...B    DCD    1115815936
        0x08002638:    48000800    ...H    DCD    1207961600
        0x0800263c:    40012c00    .,.@    DCD    1073818624
        0x08002640:    aaaaaaab    ....    DCD    2863311531
        0x08002644:    20001778    x..     DCD    536876920
        0x08002648:    200000ac    ...     DCD    536871084
        0x0800264c:    40c90fdb    ...@    DCD    1086918619
    $t
    i.Hardware_SetABZCounter
    Hardware_SetABZCounter
        0x08002650:    4901        .I      LDR      r1,[pc,#4] ; [0x8002658] = 0x40000400
        0x08002652:    6248        Hb      STR      r0,[r1,#0x24]
        0x08002654:    4770        pG      BX       lr
    $d
        0x08002656:    0000        ..      DCW    0
        0x08002658:    40000400    ...@    DCD    1073742848
    $t
    i.Hardware_SetCCR
    Hardware_SetCCR
        0x0800265c:    4b02        .K      LDR      r3,[pc,#8] ; [0x8002668] = 0x40012c00
        0x0800265e:    6358        Xc      STR      r0,[r3,#0x34]
        0x08002660:    6399        .c      STR      r1,[r3,#0x38]
        0x08002662:    63da        .c      STR      r2,[r3,#0x3c]
        0x08002664:    4770        pG      BX       lr
    $d
        0x08002666:    0000        ..      DCW    0
        0x08002668:    40012c00    .,.@    DCD    1073818624
    $t
    i.Hardware_SetPulseCounter
    Hardware_SetPulseCounter
        0x0800266c:    4901        .I      LDR      r1,[pc,#4] ; [0x8002674] = 0x40014400
        0x0800266e:    6248        Hb      STR      r0,[r1,#0x24]
        0x08002670:    4770        pG      BX       lr
    $d
        0x08002672:    0000        ..      DCW    0
        0x08002674:    40014400    .D.@    DCD    1073824768
    $t
    i.Hardware_StartPWM
    Hardware_StartPWM
        0x08002678:    4810        .H      LDR      r0,[pc,#64] ; [0x80026bc] = 0x40012c00
        0x0800267a:    6a01        .j      LDR      r1,[r0,#0x20]
        0x0800267c:    f0410101    A...    ORR      r1,r1,#1
        0x08002680:    6201        .b      STR      r1,[r0,#0x20]
        0x08002682:    6a01        .j      LDR      r1,[r0,#0x20]
        0x08002684:    f0410104    A...    ORR      r1,r1,#4
        0x08002688:    6201        .b      STR      r1,[r0,#0x20]
        0x0800268a:    6a01        .j      LDR      r1,[r0,#0x20]
        0x0800268c:    f0410110    A...    ORR      r1,r1,#0x10
        0x08002690:    6201        .b      STR      r1,[r0,#0x20]
        0x08002692:    6a01        .j      LDR      r1,[r0,#0x20]
        0x08002694:    f0410140    A.@.    ORR      r1,r1,#0x40
        0x08002698:    6201        .b      STR      r1,[r0,#0x20]
        0x0800269a:    6a01        .j      LDR      r1,[r0,#0x20]
        0x0800269c:    f4417180    A..q    ORR      r1,r1,#0x100
        0x080026a0:    6201        .b      STR      r1,[r0,#0x20]
        0x080026a2:    6a01        .j      LDR      r1,[r0,#0x20]
        0x080026a4:    f4416180    A..a    ORR      r1,r1,#0x400
        0x080026a8:    6201        .b      STR      r1,[r0,#0x20]
        0x080026aa:    6c41        Al      LDR      r1,[r0,#0x44]
        0x080026ac:    f4414100    A..A    ORR      r1,r1,#0x8000
        0x080026b0:    6441        Ad      STR      r1,[r0,#0x44]
        0x080026b2:    4903        .I      LDR      r1,[pc,#12] ; [0x80026c0] = 0x48000800
        0x080026b4:    2001        .       MOVS     r0,#1
        0x080026b6:    6288        .b      STR      r0,[r1,#0x28]
        0x080026b8:    4770        pG      BX       lr
    $d
        0x080026ba:    0000        ..      DCW    0
        0x080026bc:    40012c00    .,.@    DCD    1073818624
        0x080026c0:    48000800    ...H    DCD    1207961600
    $t
    i.Hardware_StopPWM
    Hardware_StopPWM
        0x080026c4:    4810        .H      LDR      r0,[pc,#64] ; [0x8002708] = 0x40012c00
        0x080026c6:    6c41        Al      LDR      r1,[r0,#0x44]
        0x080026c8:    f4214100    !..A    BIC      r1,r1,#0x8000
        0x080026cc:    6441        Ad      STR      r1,[r0,#0x44]
        0x080026ce:    6a01        .j      LDR      r1,[r0,#0x20]
        0x080026d0:    f0210101    !...    BIC      r1,r1,#1
        0x080026d4:    6201        .b      STR      r1,[r0,#0x20]
        0x080026d6:    6a01        .j      LDR      r1,[r0,#0x20]
        0x080026d8:    f0210104    !...    BIC      r1,r1,#4
        0x080026dc:    6201        .b      STR      r1,[r0,#0x20]
        0x080026de:    6a01        .j      LDR      r1,[r0,#0x20]
        0x080026e0:    f0210110    !...    BIC      r1,r1,#0x10
        0x080026e4:    6201        .b      STR      r1,[r0,#0x20]
        0x080026e6:    6a01        .j      LDR      r1,[r0,#0x20]
        0x080026e8:    f0210140    !.@.    BIC      r1,r1,#0x40
        0x080026ec:    6201        .b      STR      r1,[r0,#0x20]
        0x080026ee:    6a01        .j      LDR      r1,[r0,#0x20]
        0x080026f0:    f4217180    !..q    BIC      r1,r1,#0x100
        0x080026f4:    6201        .b      STR      r1,[r0,#0x20]
        0x080026f6:    6a01        .j      LDR      r1,[r0,#0x20]
        0x080026f8:    f4216180    !..a    BIC      r1,r1,#0x400
        0x080026fc:    6201        .b      STR      r1,[r0,#0x20]
        0x080026fe:    4903        .I      LDR      r1,[pc,#12] ; [0x800270c] = 0x48000800
        0x08002700:    2001        .       MOVS     r0,#1
        0x08002702:    6188        .a      STR      r0,[r1,#0x18]
        0x08002704:    4770        pG      BX       lr
    $d
        0x08002706:    0000        ..      DCW    0
        0x08002708:    40012c00    .,.@    DCD    1073818624
        0x0800270c:    48000800    ...H    DCD    1207961600
    $t
    i.Harware_GetCurrentAB
    Harware_GetCurrentAB
        0x08002710:    4815        .H      LDR      r0,[pc,#84] ; [0x8002768] = 0x50000080
        0x08002712:    6800        .h      LDR      r0,[r0,#0]
        0x08002714:    b280        ..      UXTH     r0,r0
        0x08002716:    ee000a10    ....    VMOV     s0,r0
        0x0800271a:    4814        .H      LDR      r0,[pc,#80] ; [0x800276c] = 0x50000180
        0x0800271c:    eeb80a40    ..@.    VCVT.F32.U32 s0,s0
        0x08002720:    6800        .h      LDR      r0,[r0,#0]
        0x08002722:    ed9f1a13    ....    VLDR     s2,[pc,#76] ; [0x8002770] = 0x477fff00
        0x08002726:    b280        ..      UXTH     r0,r0
        0x08002728:    ee000a90    ....    VMOV     s1,r0
        0x0800272c:    ee802a01    ...*    VDIV.F32 s4,s0,s2
        0x08002730:    eeb83a60    ..`:    VCVT.F32.U32 s6,s1
        0x08002734:    eddf0a10    ....    VLDR     s1,[pc,#64] ; [0x8002778] = 0x3fd33333
        0x08002738:    eddf1a0e    ....    VLDR     s3,[pc,#56] ; [0x8002774] = 0x40533333
        0x0800273c:    eddf2a0f    ...*    VLDR     s5,[pc,#60] ; [0x800277c] = 0x43480000
        0x08002740:    eeb00a60    ..`.    VMOV.F32 s0,s1
        0x08002744:    ee020a61    ..a.    VMLS.F32 s0,s4,s3
        0x08002748:    eeb32a04    ...*    VMOV.F32 s4,#20.00000000
        0x0800274c:    eec03a02    ...:    VDIV.F32 s7,s0,s4
        0x08002750:    ee230aa2    #...    VMUL.F32 s0,s7,s5
        0x08002754:    eec33a01    ...:    VDIV.F32 s7,s6,s2
        0x08002758:    ee430ae1    C...    VMLS.F32 s1,s7,s3
        0x0800275c:    ee801a82    ....    VDIV.F32 s2,s1,s4
        0x08002760:    ee610a22    a.".    VMUL.F32 s1,s2,s5
        0x08002764:    4770        pG      BX       lr
    $d
        0x08002766:    0000        ..      DCW    0
        0x08002768:    50000080    ...P    DCD    1342177408
        0x0800276c:    50000180    ...P    DCD    1342177664
        0x08002770:    477fff00    ...G    DCD    1199570688
        0x08002774:    40533333    33S@    DCD    1079194419
        0x08002778:    3fd33333    33.?    DCD    1070805811
        0x0800277c:    43480000    ..HC    DCD    1128792064
    $t
    i.IdCurrentPIController
    IdCurrentPIController
        0x08002780:    491c        .I      LDR      r1,[pc,#112] ; [0x80027f4] = 0x20000060
        0x08002782:    edd00a00    ....    VLDR     s1,[r0,#0]
        0x08002786:    4a1c        .J      LDR      r2,[pc,#112] ; [0x80027f8] = 0x3f8c6f2d
        0x08002788:    6809        .h      LDR      r1,[r1,#0]
        0x0800278a:    ee700ac0    p...    VSUB.F32 s1,s1,s0
        0x0800278e:    ed900a03    ....    VLDR     s0,[r0,#0xc]
        0x08002792:    ed911a06    ....    VLDR     s2,[r1,#0x18]
        0x08002796:    ee000a81    ....    VMLA.F32 s0,s1,s2
        0x0800279a:    ee101a10    ....    VMOV     r1,s0
        0x0800279e:    ed800a03    ....    VSTR     s0,[r0,#0xc]
        0x080027a2:    4291        .B      CMP      r1,r2
        0x080027a4:    bfc4        ..      ITT      GT
        0x080027a6:    ed9f0a15    ....    VLDRGT   s0,[pc,#84] ; [0x80027fc] = 0x3f8c6f2d
        0x080027aa:    ed800a03    ....    VSTRGT   s0,[r0,#0xc]
        0x080027ae:    dc08        ..      BGT      0x80027c2 ; IdCurrentPIController + 66
        0x080027b0:    ee101a10    ....    VMOV     r1,s0
        0x080027b4:    4a12        .J      LDR      r2,[pc,#72] ; [0x8002800] = 0xbf8c6f2d
        0x080027b6:    4291        .B      CMP      r1,r2
        0x080027b8:    bf28        (.      IT       CS
        0x080027ba:    ed9f0a12    ....    VLDRCS   s0,[pc,#72] ; [0x8002804] = 0xbf8c6f2d
        0x080027be:    ed800a03    ....    VSTR     s0,[r0,#0xc]
        0x080027c2:    ed9f1a11    ....    VLDR     s2,[pc,#68] ; [0x8002808] = 0x41960000
        0x080027c6:    4911        .I      LDR      r1,[pc,#68] ; [0x800280c] = 0x41a49249
        0x080027c8:    ee200a01     ...    VMUL.F32 s0,s0,s2
        0x080027cc:    eeb01a00    ....    VMOV.F32 s2,#2.00000000
        0x080027d0:    ee000a81    ....    VMLA.F32 s0,s1,s2
        0x080027d4:    ee100a10    ....    VMOV     r0,s0
        0x080027d8:    4288        .B      CMP      r0,r1
        0x080027da:    bfc4        ..      ITT      GT
        0x080027dc:    ed9f0a0c    ....    VLDRGT   s0,[pc,#48] ; [0x8002810] = 0x41a49249
        0x080027e0:    4770        pG      BXGT     lr
        0x080027e2:    ee100a10    ....    VMOV     r0,s0
        0x080027e6:    490b        .I      LDR      r1,[pc,#44] ; [0x8002814] = 0xc1a49249
        0x080027e8:    4288        .B      CMP      r0,r1
        0x080027ea:    d800        ..      BHI      0x80027ee ; IdCurrentPIController + 110
        0x080027ec:    4770        pG      BX       lr
        0x080027ee:    ed9f0a0a    ....    VLDR     s0,[pc,#40] ; [0x8002818] = 0xc1a49249
        0x080027f2:    4770        pG      BX       lr
    $d
        0x080027f4:    20000060    `..     DCD    536871008
        0x080027f8:    3f8c6f2d    -o.?    DCD    1066168109
        0x080027fc:    3f8c6f2d    -o.?    DCD    1066168109
        0x08002800:    bf8c6f2d    -o..    DCD    3213651757
        0x08002804:    bf8c6f2d    -o..    DCD    3213651757
        0x08002808:    41960000    ...A    DCD    1100349440
        0x0800280c:    41a49249    I..A    DCD    1101304393
        0x08002810:    41a49249    I..A    DCD    1101304393
        0x08002814:    c1a49249    I...    DCD    3248788041
        0x08002818:    c1a49249    I...    DCD    3248788041
    $t
    i.IncAbzCalculateRealEleAngle
    IncAbzCalculateRealEleAngle
        0x0800281c:    b510        ..      PUSH     {r4,lr}
        0x0800281e:    4604        .F      MOV      r4,r0
        0x08002820:    f7fffd5c    ..\.    BL       Hardware_GetABZCounter ; 0x80022dc
        0x08002824:    68a1        .h      LDR      r1,[r4,#8]
        0x08002826:    edd40a04    ....    VLDR     s1,[r4,#0x10]
        0x0800282a:    fbb0f2f1    ....    UDIV     r2,r0,r1
        0x0800282e:    fb010012    ....    MLS      r0,r1,r2,r0
        0x08002832:    ee000a10    ....    VMOV     s0,r0
        0x08002836:    eeb80ac0    ....    VCVT.F32.S32 s0,s0
        0x0800283a:    ee801a20    .. .    VDIV.F32 s2,s0,s1
        0x0800283e:    ed9f0a03    ....    VLDR     s0,[pc,#12] ; [0x800284c] = 0x40490fdb
        0x08002842:    eef00a40    ..@.    VMOV.F32 s1,s0
        0x08002846:    ee110a20    .. .    VNMLS.F32 s0,s2,s1
        0x0800284a:    bd10        ..      POP      {r4,pc}
    $d
        0x0800284c:    40490fdb    ..I@    DCD    1078530011
    $t
    i.IncAbzCalculateRealEleSpeed
    IncAbzCalculateRealEleSpeed
        0x08002850:    b570        p.      PUSH     {r4-r6,lr}
        0x08002852:    4605        .F      MOV      r5,r0
        0x08002854:    ed2d8b02    -...    VPUSH    {d8}
        0x08002858:    eeb08a40    ..@.    VMOV.F32 s16,s0
        0x0800285c:    6986        .i      LDR      r6,[r0,#0x18]
        0x0800285e:    f7fffd3d    ..=.    BL       Hardware_GetABZCounter ; 0x80022dc
        0x08002862:    4604        .F      MOV      r4,r0
        0x08002864:    f7fffdce    ....    BL       Hardware_GetPulseCounter ; 0x8002404
        0x08002868:    ee080a90    ....    VMOV     s17,r0
        0x0800286c:    2000        .       MOVS     r0,#0
        0x0800286e:    f7fffefd    ....    BL       Hardware_SetPulseCounter ; 0x800266c
        0x08002872:    4b3f        ?K      LDR      r3,[pc,#252] ; [0x8002970] = 0x20000680
        0x08002874:    1ba0        ..      SUBS     r0,r4,r6
        0x08002876:    685a        Zh      LDR      r2,[r3,#4]
        0x08002878:    4251        QB      RSBS     r1,r2,#0
        0x0800287a:    ea4f7ce1    O..|    ASR      r12,r1,#31
        0x0800287e:    eb017c9c    ...|    ADD      r12,r1,r12,LSR #30
        0x08002882:    493c        <I      LDR      r1,[pc,#240] ; [0x8002974] = 0x20000040
        0x08002884:    ebb00fac    ....    CMP      r0,r12,ASR #2
        0x08002888:    dd07        ..      BLE      0x800289a ; IncAbzCalculateRealEleSpeed + 74
        0x0800288a:    ea4f7ce2    O..|    ASR      r12,r2,#31
        0x0800288e:    eb02729c    ...r    ADD      r2,r2,r12,LSR #30
        0x08002892:    ebb00fa2    ....    CMP      r0,r2,ASR #2
        0x08002896:    bfb8        ..      IT       LT
        0x08002898:    60c8        .`      STRLT    r0,[r1,#0xc]
        0x0800289a:    4837        7H      LDR      r0,[pc,#220] ; [0x8002978] = 0x20000094
        0x0800289c:    eeb58ac0    ....    VCMPE.F32 s16,#0.0
        0x080028a0:    6800        .h      LDR      r0,[r0,#0]
        0x080028a2:    eef1fa10    ....    VMRS     APSR_nzcv,FPSCR
        0x080028a6:    6184        .a      STR      r4,[r0,#0x18]
        0x080028a8:    bf38        8.      IT       CC
        0x080028aa:    eeb18a48    ..H.    VNEGCC.F32 s16,s16
        0x080028ae:    780a        .x      LDRB     r2,[r1,#0]
        0x080028b0:    ed9f0a32    ..2.    VLDR     s0,[pc,#200] ; [0x800297c] = 0x3dcccccd
        0x080028b4:    eddf0a32    ..2.    VLDR     s1,[pc,#200] ; [0x8002980] = 0x3f666666
        0x080028b8:    2a00        .*      CMP      r2,#0
        0x080028ba:    d03f        ?.      BEQ      0x800293c ; IncAbzCalculateRealEleSpeed + 236
        0x080028bc:    ed931a01    ....    VLDR     s2,[r3,#4]
        0x080028c0:    4b30        0K      LDR      r3,[pc,#192] ; [0x8002984] = 0x20000060
        0x080028c2:    eef81a68    ..h.    VCVT.F32.U32 s3,s17
        0x080028c6:    eeb81ac1    ....    VCVT.F32.S32 s2,s2
        0x080028ca:    681b        .h      LDR      r3,[r3,#0]
        0x080028cc:    ed9f2a2f    ../*    VLDR     s4,[pc,#188] ; [0x800298c] = 0x40c90fdb
        0x080028d0:    ee211a21    !.!.    VMUL.F32 s2,s2,s3
        0x080028d4:    edd31a07    ....    VLDR     s3,[r3,#0x1c]
        0x080028d8:    4b2b        +K      LDR      r3,[pc,#172] ; [0x8002988] = 0x20000090
        0x080028da:    ee611a21    a.!.    VMUL.F32 s3,s2,s3
        0x080028de:    681b        .h      LDR      r3,[r3,#0]
        0x080028e0:    781b        .x      LDRB     r3,[r3,#0]
        0x080028e2:    ee013a10    ...:    VMOV     s2,r3
        0x080028e6:    eeb81a41    ..A.    VCVT.F32.U32 s2,s2
        0x080028ea:    ee212a02    !..*    VMUL.F32 s4,s2,s4
        0x080028ee:    ee821a21    ..!.    VDIV.F32 s2,s4,s3
        0x080028f2:    edd11a02    ....    VLDR     s3,[r1,#8]
        0x080028f6:    ee211a00    !...    VMUL.F32 s2,s2,s0
        0x080028fa:    ee011aa0    ....    VMLA.F32 s2,s3,s1
        0x080028fe:    ed811a02    ....    VSTR     s2,[r1,#8]
        0x08002902:    edd11a03    ....    VLDR     s3,[r1,#0xc]
        0x08002906:    eef81ae1    ....    VCVT.F32.S32 s3,s3
        0x0800290a:    ee211a81    !...    VMUL.F32 s2,s3,s2
        0x0800290e:    ee210a00    !...    VMUL.F32 s0,s2,s0
        0x08002912:    ed911a01    ....    VLDR     s2,[r1,#4]
        0x08002916:    ee010a20    .. .    VMLA.F32 s0,s2,s1
        0x0800291a:    ed810a01    ....    VSTR     s0,[r1,#4]
        0x0800291e:    ed900a0a    ....    VLDR     s0,[r0,#0x28]
        0x08002922:    eeb40ac8    ....    VCMPE.F32 s0,s16
        0x08002926:    eef1fa10    ....    VMRS     APSR_nzcv,FPSCR
        0x0800292a:    bf38        8.      IT       CC
        0x0800292c:    43d0        .C      MVNCC    r0,r2
        0x0800292e:    d200        ..      BCS      0x8002932 ; IncAbzCalculateRealEleSpeed + 226
        0x08002930:    7008        .p      STRB     r0,[r1,#0]
        0x08002932:    ed910a01    ....    VLDR     s0,[r1,#4]
        0x08002936:    ecbd8b02    ....    VPOP     {d8}
        0x0800293a:    bd70        p.      POP      {r4-r6,pc}
        0x0800293c:    ed911a03    ....    VLDR     s2,[r1,#0xc]
        0x08002940:    edd51a03    ....    VLDR     s3,[r5,#0xc]
        0x08002944:    eeb81ac1    ....    VCVT.F32.S32 s2,s2
        0x08002948:    ee211a81    !...    VMUL.F32 s2,s3,s2
        0x0800294c:    ee210a00    !...    VMUL.F32 s0,s2,s0
        0x08002950:    ed911a01    ....    VLDR     s2,[r1,#4]
        0x08002954:    ee010a20    .. .    VMLA.F32 s0,s2,s1
        0x08002958:    ed810a01    ....    VSTR     s0,[r1,#4]
        0x0800295c:    ed900a09    ....    VLDR     s0,[r0,#0x24]
        0x08002960:    eeb40ac8    ....    VCMPE.F32 s0,s16
        0x08002964:    eef1fa10    ....    VMRS     APSR_nzcv,FPSCR
        0x08002968:    bfc8        ..      IT       GT
        0x0800296a:    20ff        .       MOVGT    r0,#0xff
        0x0800296c:    dde1        ..      BLE      0x8002932 ; IncAbzCalculateRealEleSpeed + 226
        0x0800296e:    e7df        ..      B        0x8002930 ; IncAbzCalculateRealEleSpeed + 224
    $d
        0x08002970:    20000680    ...     DCD    536872576
        0x08002974:    20000040    @..     DCD    536870976
        0x08002978:    20000094    ...     DCD    536871060
        0x0800297c:    3dcccccd    ...=    DCD    1036831949
        0x08002980:    3f666666    fff?    DCD    1063675494
        0x08002984:    20000060    `..     DCD    536871008
        0x08002988:    20000090    ...     DCD    536871056
        0x0800298c:    40c90fdb    ...@    DCD    1086918619
    $t
    i.IqCurrentPIController
    IqCurrentPIController
        0x08002990:    491c        .I      LDR      r1,[pc,#112] ; [0x8002a04] = 0x20000060
        0x08002992:    edd00a00    ....    VLDR     s1,[r0,#0]
        0x08002996:    4a1c        .J      LDR      r2,[pc,#112] ; [0x8002a08] = 0x3f8c6f2d
        0x08002998:    6809        .h      LDR      r1,[r1,#0]
        0x0800299a:    ee700ac0    p...    VSUB.F32 s1,s1,s0
        0x0800299e:    ed900a03    ....    VLDR     s0,[r0,#0xc]
        0x080029a2:    ed911a06    ....    VLDR     s2,[r1,#0x18]
        0x080029a6:    ee000a81    ....    VMLA.F32 s0,s1,s2
        0x080029aa:    ee101a10    ....    VMOV     r1,s0
        0x080029ae:    ed800a03    ....    VSTR     s0,[r0,#0xc]
        0x080029b2:    4291        .B      CMP      r1,r2
        0x080029b4:    bfc4        ..      ITT      GT
        0x080029b6:    ed9f0a15    ....    VLDRGT   s0,[pc,#84] ; [0x8002a0c] = 0x3f8c6f2d
        0x080029ba:    ed800a03    ....    VSTRGT   s0,[r0,#0xc]
        0x080029be:    dc08        ..      BGT      0x80029d2 ; IqCurrentPIController + 66
        0x080029c0:    ee101a10    ....    VMOV     r1,s0
        0x080029c4:    4a12        .J      LDR      r2,[pc,#72] ; [0x8002a10] = 0xbf8c6f2d
        0x080029c6:    4291        .B      CMP      r1,r2
        0x080029c8:    bf28        (.      IT       CS
        0x080029ca:    ed9f0a12    ....    VLDRCS   s0,[pc,#72] ; [0x8002a14] = 0xbf8c6f2d
        0x080029ce:    ed800a03    ....    VSTR     s0,[r0,#0xc]
        0x080029d2:    ed9f1a11    ....    VLDR     s2,[pc,#68] ; [0x8002a18] = 0x41960000
        0x080029d6:    4911        .I      LDR      r1,[pc,#68] ; [0x8002a1c] = 0x41a49249
        0x080029d8:    ee200a01     ...    VMUL.F32 s0,s0,s2
        0x080029dc:    eeb01a00    ....    VMOV.F32 s2,#2.00000000
        0x080029e0:    ee000a81    ....    VMLA.F32 s0,s1,s2
        0x080029e4:    ee100a10    ....    VMOV     r0,s0
        0x080029e8:    4288        .B      CMP      r0,r1
        0x080029ea:    bfc4        ..      ITT      GT
        0x080029ec:    ed9f0a0c    ....    VLDRGT   s0,[pc,#48] ; [0x8002a20] = 0x41a49249
        0x080029f0:    4770        pG      BXGT     lr
        0x080029f2:    ee100a10    ....    VMOV     r0,s0
        0x080029f6:    490b        .I      LDR      r1,[pc,#44] ; [0x8002a24] = 0xc1a49249
        0x080029f8:    4288        .B      CMP      r0,r1
        0x080029fa:    d800        ..      BHI      0x80029fe ; IqCurrentPIController + 110
        0x080029fc:    4770        pG      BX       lr
        0x080029fe:    ed9f0a0a    ....    VLDR     s0,[pc,#40] ; [0x8002a28] = 0xc1a49249
        0x08002a02:    4770        pG      BX       lr
    $d
        0x08002a04:    20000060    `..     DCD    536871008
        0x08002a08:    3f8c6f2d    -o.?    DCD    1066168109
        0x08002a0c:    3f8c6f2d    -o.?    DCD    1066168109
        0x08002a10:    bf8c6f2d    -o..    DCD    3213651757
        0x08002a14:    bf8c6f2d    -o..    DCD    3213651757
        0x08002a18:    41960000    ...A    DCD    1100349440
        0x08002a1c:    41a49249    I..A    DCD    1101304393
        0x08002a20:    41a49249    I..A    DCD    1101304393
        0x08002a24:    c1a49249    I...    DCD    3248788041
        0x08002a28:    c1a49249    I...    DCD    3248788041
    $t
    i.LL_ADC_CommonInit
    LL_ADC_CommonInit
        0x08002a2c:    b410        ..      PUSH     {r4}
        0x08002a2e:    f04f4ca0    O..L    MOV      r12,#0x50000000
        0x08002a32:    684a        Jh      LDR      r2,[r1,#4]
        0x08002a34:    f8dc4008    ...@    LDR      r4,[r12,#8]
        0x08002a38:    2300        .#      MOVS     r3,#0
        0x08002a3a:    f8dcc108    ....    LDR      r12,[r12,#0x108]
        0x08002a3e:    ea440c0c    D...    ORR      r12,r4,r12
        0x08002a42:    f01c0f01    ....    TST      r12,#1
        0x08002a46:    bf18        ..      IT       NE
        0x08002a48:    2301        .#      MOVNE    r3,#1
        0x08002a4a:    d002        ..      BEQ      0x8002a52 ; LL_ADC_CommonInit + 38
        0x08002a4c:    bc10        ..      POP      {r4}
        0x08002a4e:    4618        .F      MOV      r0,r3
        0x08002a50:    4770        pG      BX       lr
        0x08002a52:    f8dfc028    ..(.    LDR      r12,[pc,#40] ; [0x8002a7c] = 0xffc030e0
        0x08002a56:    b152        R.      CBZ      r2,0x8002a6e ; LL_ADC_CommonInit + 66
        0x08002a58:    680c        .h      LDR      r4,[r1,#0]
        0x08002a5a:    4322        "C      ORRS     r2,r2,r4
        0x08002a5c:    e9d14102    ...A    LDRD     r4,r1,[r1,#8]
        0x08002a60:    4321        !C      ORRS     r1,r1,r4
        0x08002a62:    4311        .C      ORRS     r1,r1,r2
        0x08002a64:    6882        .h      LDR      r2,[r0,#8]
        0x08002a66:    ea02020c    ....    AND      r2,r2,r12
        0x08002a6a:    4311        .C      ORRS     r1,r1,r2
        0x08002a6c:    e004        ..      B        0x8002a78 ; LL_ADC_CommonInit + 76
        0x08002a6e:    6882        .h      LDR      r2,[r0,#8]
        0x08002a70:    6809        .h      LDR      r1,[r1,#0]
        0x08002a72:    ea02020c    ....    AND      r2,r2,r12
        0x08002a76:    4311        .C      ORRS     r1,r1,r2
        0x08002a78:    6081        .`      STR      r1,[r0,#8]
        0x08002a7a:    e7e7        ..      B        0x8002a4c ; LL_ADC_CommonInit + 32
    $d
        0x08002a7c:    ffc030e0    .0..    DCD    4290785504
    $t
    i.LL_ADC_INJ_Init
    LL_ADC_INJ_Init
        0x08002a80:    684b        Kh      LDR      r3,[r1,#4]
        0x08002a82:    f8d0c008    ....    LDR      r12,[r0,#8]
        0x08002a86:    2200        ."      MOVS     r2,#0
        0x08002a88:    f01c0f01    ....    TST      r12,#1
        0x08002a8c:    bf18        ..      IT       NE
        0x08002a8e:    2201        ."      MOVNE    r2,#1
        0x08002a90:    d001        ..      BEQ      0x8002a96 ; LL_ADC_INJ_Init + 22
        0x08002a92:    4610        .F      MOV      r0,r2
        0x08002a94:    4770        pG      BX       lr
        0x08002a96:    b15b        [.      CBZ      r3,0x8002ab0 ; LL_ADC_INJ_Init + 48
        0x08002a98:    e9d13c02    ...<    LDRD     r3,r12,[r1,#8]
        0x08002a9c:    ea43030c    C...    ORR      r3,r3,r12
        0x08002aa0:    f8d0c00c    ....    LDR      r12,[r0,#0xc]
        0x08002aa4:    f02c7c04    ,..|    BIC      r12,r12,#0x2100000
        0x08002aa8:    ea43030c    C...    ORR      r3,r3,r12
        0x08002aac:    60c3        .`      STR      r3,[r0,#0xc]
        0x08002aae:    e007        ..      B        0x8002ac0 ; LL_ADC_INJ_Init + 64
        0x08002ab0:    68c3        .h      LDR      r3,[r0,#0xc]
        0x08002ab2:    f8d1c00c    ....    LDR      r12,[r1,#0xc]
        0x08002ab6:    f0237304    #..s    BIC      r3,r3,#0x2100000
        0x08002aba:    ea43030c    C...    ORR      r3,r3,r12
        0x08002abe:    60c3        .`      STR      r3,[r0,#0xc]
        0x08002ac0:    e9d13100    ...1    LDRD     r3,r1,[r1,#0]
        0x08002ac4:    430b        .C      ORRS     r3,r3,r1
        0x08002ac6:    6cc1        .l      LDR      r1,[r0,#0x4c]
        0x08002ac8:    f36f0108    o...    BFC      r1,#0,#9
        0x08002acc:    4319        .C      ORRS     r1,r1,r3
        0x08002ace:    64c1        .d      STR      r1,[r0,#0x4c]
        0x08002ad0:    e7df        ..      B        0x8002a92 ; LL_ADC_INJ_Init + 18
    i.LL_ADC_Init
    LL_ADC_Init
        0x08002ad2:    6883        .h      LDR      r3,[r0,#8]
        0x08002ad4:    2200        ."      MOVS     r2,#0
        0x08002ad6:    f0130f01    ....    TST      r3,#1
        0x08002ada:    bf18        ..      IT       NE
        0x08002adc:    2201        ."      MOVNE    r2,#1
        0x08002ade:    d001        ..      BEQ      0x8002ae4 ; LL_ADC_Init + 18
        0x08002ae0:    4610        .F      MOV      r0,r2
        0x08002ae2:    4770        pG      BX       lr
        0x08002ae4:    e9d13c00    ...<    LDRD     r3,r12,[r1,#0]
        0x08002ae8:    ea43030c    C...    ORR      r3,r3,r12
        0x08002aec:    6889        .h      LDR      r1,[r1,#8]
        0x08002aee:    f8d0c00c    ....    LDR      r12,[r0,#0xc]
        0x08002af2:    f02c0c18    ,...    BIC      r12,r12,#0x18
        0x08002af6:    f42c4c40    ,.@L    BIC      r12,r12,#0xc000
        0x08002afa:    ea41010c    A...    ORR      r1,r1,r12
        0x08002afe:    4319        .C      ORRS     r1,r1,r3
        0x08002b00:    60c1        .`      STR      r1,[r0,#0xc]
        0x08002b02:    e7ed        ..      B        0x8002ae0 ; LL_ADC_Init + 14
    i.LL_ADC_REG_Init
    LL_ADC_REG_Init
        0x08002b04:    b430        0.      PUSH     {r4,r5}
        0x08002b06:    684b        Kh      LDR      r3,[r1,#4]
        0x08002b08:    f8d0c008    ....    LDR      r12,[r0,#8]
        0x08002b0c:    2200        ."      MOVS     r2,#0
        0x08002b0e:    f01c0f01    ....    TST      r12,#1
        0x08002b12:    bf18        ..      IT       NE
        0x08002b14:    2201        ."      MOVNE    r2,#1
        0x08002b16:    d002        ..      BEQ      0x8002b1e ; LL_ADC_REG_Init + 26
        0x08002b18:    bc30        0.      POP      {r4,r5}
        0x08002b1a:    4610        .F      MOV      r0,r2
        0x08002b1c:    4770        pG      BX       lr
        0x08002b1e:    2b00        .+      CMP      r3,#0
        0x08002b20:    f8dfc048    ..H.    LDR      r12,[pc,#72] ; [0x8002b6c] = 0xfff0c01c
        0x08002b24:    680b        .h      LDR      r3,[r1,#0]
        0x08002b26:    d00e        ..      BEQ      0x8002b46 ; LL_ADC_REG_Init + 66
        0x08002b28:    688c        .h      LDR      r4,[r1,#8]
        0x08002b2a:    4323        #C      ORRS     r3,r3,r4
        0x08002b2c:    e9d14503    ...E    LDRD     r4,r5,[r1,#0xc]
        0x08002b30:    432c        ,C      ORRS     r4,r4,r5
        0x08002b32:    4323        #C      ORRS     r3,r3,r4
        0x08002b34:    694c        Li      LDR      r4,[r1,#0x14]
        0x08002b36:    4323        #C      ORRS     r3,r3,r4
        0x08002b38:    68c4        .h      LDR      r4,[r0,#0xc]
        0x08002b3a:    ea040c0c    ....    AND      r12,r4,r12
        0x08002b3e:    ea43030c    C...    ORR      r3,r3,r12
        0x08002b42:    60c3        .`      STR      r3,[r0,#0xc]
        0x08002b44:    e00b        ..      B        0x8002b5e ; LL_ADC_REG_Init + 90
        0x08002b46:    68cc        .h      LDR      r4,[r1,#0xc]
        0x08002b48:    4323        #C      ORRS     r3,r3,r4
        0x08002b4a:    e9d14504    ...E    LDRD     r4,r5,[r1,#0x10]
        0x08002b4e:    432c        ,C      ORRS     r4,r4,r5
        0x08002b50:    4323        #C      ORRS     r3,r3,r4
        0x08002b52:    68c4        .h      LDR      r4,[r0,#0xc]
        0x08002b54:    ea040c0c    ....    AND      r12,r4,r12
        0x08002b58:    ea43030c    C...    ORR      r3,r3,r12
        0x08002b5c:    60c3        .`      STR      r3,[r0,#0xc]
        0x08002b5e:    6849        Ih      LDR      r1,[r1,#4]
        0x08002b60:    6b03        .k      LDR      r3,[r0,#0x30]
        0x08002b62:    f023030f    #...    BIC      r3,r3,#0xf
        0x08002b66:    4319        .C      ORRS     r1,r1,r3
        0x08002b68:    6301        .c      STR      r1,[r0,#0x30]
        0x08002b6a:    e7d5        ..      B        0x8002b18 ; LL_ADC_REG_Init + 20
    $d
        0x08002b6c:    fff0c01c    ....    DCD    4293967900
    $t
    i.LL_COMP_Init
    LL_COMP_Init
        0x08002b70:    b410        ..      PUSH     {r4}
        0x08002b72:    6803        .h      LDR      r3,[r0,#0]
        0x08002b74:    2200        ."      MOVS     r2,#0
        0x08002b76:    0fdb        ..      LSRS     r3,r3,#31
        0x08002b78:    bf18        ..      IT       NE
        0x08002b7a:    2201        ."      MOVNE    r2,#1
        0x08002b7c:    d002        ..      BEQ      0x8002b84 ; LL_COMP_Init + 20
        0x08002b7e:    bc10        ..      POP      {r4}
        0x08002b80:    4610        .F      MOV      r0,r2
        0x08002b82:    4770        pG      BX       lr
        0x08002b84:    e9d13c00    ...<    LDRD     r3,r12,[r1,#0]
        0x08002b88:    ea43030c    C...    ORR      r3,r3,r12
        0x08002b8c:    e9d1c402    ....    LDRD     r12,r4,[r1,#8]
        0x08002b90:    ea4c0c04    L...    ORR      r12,r12,r4
        0x08002b94:    6909        .i      LDR      r1,[r1,#0x10]
        0x08002b96:    ea43030c    C...    ORR      r3,r3,r12
        0x08002b9a:    4319        .C      ORRS     r1,r1,r3
        0x08002b9c:    6803        .h      LDR      r3,[r0,#0]
        0x08002b9e:    f8dfc00c    ....    LDR      r12,[pc,#12] ; [0x8002bac] = 0xff007e0f
        0x08002ba2:    ea03030c    ....    AND      r3,r3,r12
        0x08002ba6:    4319        .C      ORRS     r1,r1,r3
        0x08002ba8:    6001        .`      STR      r1,[r0,#0]
        0x08002baa:    e7e8        ..      B        0x8002b7e ; LL_COMP_Init + 14
    $d
        0x08002bac:    ff007e0f    .~..    DCD    4278222351
    $t
    i.LL_DAC_Init
    LL_DAC_Init
        0x08002bb0:    b470        p.      PUSH     {r4-r6}
        0x08002bb2:    2400        .$      MOVS     r4,#0
        0x08002bb4:    f0010310    ....    AND      r3,r1,#0x10
        0x08002bb8:    2501        .%      MOVS     r5,#1
        0x08002bba:    f8d2c008    ....    LDR      r12,[r2,#8]
        0x08002bbe:    6806        .h      LDR      r6,[r0,#0]
        0x08002bc0:    409d        .@      LSLS     r5,r5,r3
        0x08002bc2:    43b5        .C      BICS     r5,r5,r6
        0x08002bc4:    bf08        ..      IT       EQ
        0x08002bc6:    2401        .$      MOVEQ    r4,#1
        0x08002bc8:    d05b        [.      BEQ      0x8002c82 ; LL_DAC_Init + 210
        0x08002bca:    f1bc0f00    ....    CMP      r12,#0
        0x08002bce:    d039        9.      BEQ      0x8002c44 ; LL_DAC_Init + 148
        0x08002bd0:    f1bc0fc0    ....    CMP      r12,#0xc0
        0x08002bd4:    d010        ..      BEQ      0x8002bf8 ; LL_DAC_Init + 72
        0x08002bd6:    6801        .h      LDR      r1,[r0,#0]
        0x08002bd8:    f64075fc    @..u    MOV      r5,#0xffc
        0x08002bdc:    409d        .@      LSLS     r5,r5,r3
        0x08002bde:    43a9        .C      BICS     r1,r1,r5
        0x08002be0:    6815        .h      LDR      r5,[r2,#0]
        0x08002be2:    ea450c0c    E...    ORR      r12,r5,r12
        0x08002be6:    68d5        .h      LDR      r5,[r2,#0xc]
        0x08002be8:    ea4c0c05    L...    ORR      r12,r12,r5
        0x08002bec:    fa0cfc03    ....    LSL      r12,r12,r3
        0x08002bf0:    ea41010c    A...    ORR      r1,r1,r12
        0x08002bf4:    6001        .`      STR      r1,[r0,#0]
        0x08002bf6:    e033        3.      B        0x8002c60 ; LL_DAC_Init + 176
        0x08002bf8:    6805        .h      LDR      r5,[r0,#0]
        0x08002bfa:    f04f0cc0    O...    MOV      r12,#0xc0
        0x08002bfe:    fa0cfc03    ....    LSL      r12,r12,r3
        0x08002c02:    ea25050c    %...    BIC      r5,r5,r12
        0x08002c06:    ea450c0c    E...    ORR      r12,r5,r12
        0x08002c0a:    f8c0c000    ....    STR      r12,[r0,#0]
        0x08002c0e:    f8d0c060    ..`.    LDR      r12,[r0,#0x60]
        0x08002c12:    f640750f    @..u    MOV      r5,#0xf0f
        0x08002c16:    409d        .@      LSLS     r5,r5,r3
        0x08002c18:    ea2c0c05    ,...    BIC      r12,r12,r5
        0x08002c1c:    6815        .h      LDR      r5,[r2,#0]
        0x08002c1e:    6856        Vh      LDR      r6,[r2,#4]
        0x08002c20:    08ad        ..      LSRS     r5,r5,#2
        0x08002c22:    08b6        ..      LSRS     r6,r6,#2
        0x08002c24:    ea452506    E..%    ORR      r5,r5,r6,LSL #8
        0x08002c28:    409d        .@      LSLS     r5,r5,r3
        0x08002c2a:    ea4c0c05    L...    ORR      r12,r12,r5
        0x08002c2e:    f8c0c060    ..`.    STR      r12,[r0,#0x60]
        0x08002c32:    f3c111c0    ....    UBFX     r1,r1,#7,#1
        0x08002c36:    eb000181    ....    ADD      r1,r0,r1,LSL #2
        0x08002c3a:    f8d2c00c    ....    LDR      r12,[r2,#0xc]
        0x08002c3e:    f8c1c058    ..X.    STR      r12,[r1,#0x58]
        0x08002c42:    e00d        ..      B        0x8002c60 ; LL_DAC_Init + 176
        0x08002c44:    6801        .h      LDR      r1,[r0,#0]
        0x08002c46:    f04f0cfc    O...    MOV      r12,#0xfc
        0x08002c4a:    fa0cfc03    ....    LSL      r12,r12,r3
        0x08002c4e:    ea21010c    !...    BIC      r1,r1,r12
        0x08002c52:    f8d2c000    ....    LDR      r12,[r2,#0]
        0x08002c56:    fa0cfc03    ....    LSL      r12,r12,r3
        0x08002c5a:    ea41010c    A...    ORR      r1,r1,r12
        0x08002c5e:    6001        .`      STR      r1,[r0,#0]
        0x08002c60:    6bc1        .k      LDR      r1,[r0,#0x3c]
        0x08002c62:    f04f0c07    O...    MOV      r12,#7
        0x08002c66:    fa0cfc03    ....    LSL      r12,r12,r3
        0x08002c6a:    ea21010c    !...    BIC      r1,r1,r12
        0x08002c6e:    e9d2c504    ....    LDRD     r12,r5,[r2,#0x10]
        0x08002c72:    6992        .i      LDR      r2,[r2,#0x18]
        0x08002c74:    ea4c0c05    L...    ORR      r12,r12,r5
        0x08002c78:    ea4c0202    L...    ORR      r2,r12,r2
        0x08002c7c:    409a        .@      LSLS     r2,r2,r3
        0x08002c7e:    4311        .C      ORRS     r1,r1,r2
        0x08002c80:    63c1        .c      STR      r1,[r0,#0x3c]
        0x08002c82:    4620         F      MOV      r0,r4
        0x08002c84:    bc70        p.      POP      {r4-r6}
        0x08002c86:    4770        pG      BX       lr
    i.LL_EXTI_Init
    LL_EXTI_Init
        0x08002c88:    b470        p.      PUSH     {r4-r6}
        0x08002c8a:    4a68        hJ      LDR      r2,[pc,#416] ; [0x8002e2c] = 0x40010404
        0x08002c8c:    7a06        .z      LDRB     r6,[r0,#8]
        0x08002c8e:    4b68        hK      LDR      r3,[pc,#416] ; [0x8002e30] = 0x40010424
        0x08002c90:    2500        .%      MOVS     r5,#0
        0x08002c92:    1f14        ..      SUBS     r4,r2,#4
        0x08002c94:    6801        .h      LDR      r1,[r0,#0]
        0x08002c96:    f1a30c04    ....    SUB      r12,r3,#4
        0x08002c9a:    2e00        ..      CMP      r6,#0
        0x08002c9c:    d074        t.      BEQ      0x8002d88 ; LL_EXTI_Init + 256
        0x08002c9e:    b1a1        ..      CBZ      r1,0x8002cca ; LL_EXTI_Init + 66
        0x08002ca0:    7a46        Fz      LDRB     r6,[r0,#9]
        0x08002ca2:    b376        v.      CBZ      r6,0x8002d02 ; LL_EXTI_Init + 122
        0x08002ca4:    2e01        ..      CMP      r6,#1
        0x08002ca6:    d036        6.      BEQ      0x8002d16 ; LL_EXTI_Init + 142
        0x08002ca8:    2e02        ..      CMP      r6,#2
        0x08002caa:    bf18        ..      IT       NE
        0x08002cac:    2501        .%      MOVNE    r5,#1
        0x08002cae:    d03b        ;.      BEQ      0x8002d28 ; LL_EXTI_Init + 160
        0x08002cb0:    7a84        .z      LDRB     r4,[r0,#0xa]
        0x08002cb2:    b154        T.      CBZ      r4,0x8002cca ; LL_EXTI_Init + 66
        0x08002cb4:    495f        _I      LDR      r1,[pc,#380] ; [0x8002e34] = 0x4001040c
        0x08002cb6:    1f0a        ..      SUBS     r2,r1,#4
        0x08002cb8:    2c01        .,      CMP      r4,#1
        0x08002cba:    d03d        =.      BEQ      0x8002d38 ; LL_EXTI_Init + 176
        0x08002cbc:    2c02        .,      CMP      r4,#2
        0x08002cbe:    d045        E.      BEQ      0x8002d4c ; LL_EXTI_Init + 196
        0x08002cc0:    2c03        .,      CMP      r4,#3
        0x08002cc2:    bf18        ..      IT       NE
        0x08002cc4:    f0450502    E...    ORRNE    r5,r5,#2
        0x08002cc8:    d04a        J.      BEQ      0x8002d60 ; LL_EXTI_Init + 216
        0x08002cca:    6841        Ah      LDR      r1,[r0,#4]
        0x08002ccc:    2900        .)      CMP      r1,#0
        0x08002cce:    d071        q.      BEQ      0x8002db4 ; LL_EXTI_Init + 300
        0x08002cd0:    7a42        Bz      LDRB     r2,[r0,#9]
        0x08002cd2:    2a00        .*      CMP      r2,#0
        0x08002cd4:    d04d        M.      BEQ      0x8002d72 ; LL_EXTI_Init + 234
        0x08002cd6:    2a01        .*      CMP      r2,#1
        0x08002cd8:    d057        W.      BEQ      0x8002d8a ; LL_EXTI_Init + 258
        0x08002cda:    2a02        .*      CMP      r2,#2
        0x08002cdc:    bf18        ..      IT       NE
        0x08002cde:    f0450504    E...    ORRNE    r5,r5,#4
        0x08002ce2:    d05d        ].      BEQ      0x8002da0 ; LL_EXTI_Init + 280
        0x08002ce4:    7a83        .z      LDRB     r3,[r0,#0xa]
        0x08002ce6:    2b00        .+      CMP      r3,#0
        0x08002ce8:    d064        d.      BEQ      0x8002db4 ; LL_EXTI_Init + 300
        0x08002cea:    4953        SI      LDR      r1,[pc,#332] ; [0x8002e38] = 0x4001042c
        0x08002cec:    1f0a        ..      SUBS     r2,r1,#4
        0x08002cee:    2b01        .+      CMP      r3,#1
        0x08002cf0:    d061        a.      BEQ      0x8002db6 ; LL_EXTI_Init + 302
        0x08002cf2:    2b02        .+      CMP      r3,#2
        0x08002cf4:    d06a        j.      BEQ      0x8002dcc ; LL_EXTI_Init + 324
        0x08002cf6:    2b03        .+      CMP      r3,#3
        0x08002cf8:    bf18        ..      IT       NE
        0x08002cfa:    f0450505    E...    ORRNE    r5,r5,#5
        0x08002cfe:    d071        q.      BEQ      0x8002de4 ; LL_EXTI_Init + 348
        0x08002d00:    e090        ..      B        0x8002e24 ; LL_EXTI_Init + 412
        0x08002d02:    e7ff        ..      B        0x8002d04 ; LL_EXTI_Init + 124
        0x08002d04:    6816        .h      LDR      r6,[r2,#0]
        0x08002d06:    ea260101    &...    BIC      r1,r6,r1
        0x08002d0a:    6011        .`      STR      r1,[r2,#0]
        0x08002d0c:    6801        .h      LDR      r1,[r0,#0]
        0x08002d0e:    6822        "h      LDR      r2,[r4,#0]
        0x08002d10:    4311        .C      ORRS     r1,r1,r2
        0x08002d12:    6021        !`      STR      r1,[r4,#0]
        0x08002d14:    e7cc        ..      B        0x8002cb0 ; LL_EXTI_Init + 40
        0x08002d16:    6826        &h      LDR      r6,[r4,#0]
        0x08002d18:    ea260101    &...    BIC      r1,r6,r1
        0x08002d1c:    6021        !`      STR      r1,[r4,#0]
        0x08002d1e:    6801        .h      LDR      r1,[r0,#0]
        0x08002d20:    6814        .h      LDR      r4,[r2,#0]
        0x08002d22:    4321        !C      ORRS     r1,r1,r4
        0x08002d24:    6011        .`      STR      r1,[r2,#0]
        0x08002d26:    e7c3        ..      B        0x8002cb0 ; LL_EXTI_Init + 40
        0x08002d28:    6826        &h      LDR      r6,[r4,#0]
        0x08002d2a:    4331        1C      ORRS     r1,r1,r6
        0x08002d2c:    6021        !`      STR      r1,[r4,#0]
        0x08002d2e:    6801        .h      LDR      r1,[r0,#0]
        0x08002d30:    6814        .h      LDR      r4,[r2,#0]
        0x08002d32:    4321        !C      ORRS     r1,r1,r4
        0x08002d34:    6011        .`      STR      r1,[r2,#0]
        0x08002d36:    e7bb        ..      B        0x8002cb0 ; LL_EXTI_Init + 40
        0x08002d38:    6804        .h      LDR      r4,[r0,#0]
        0x08002d3a:    680e        .h      LDR      r6,[r1,#0]
        0x08002d3c:    ea260404    &...    BIC      r4,r6,r4
        0x08002d40:    600c        .`      STR      r4,[r1,#0]
        0x08002d42:    6801        .h      LDR      r1,[r0,#0]
        0x08002d44:    6814        .h      LDR      r4,[r2,#0]
        0x08002d46:    4321        !C      ORRS     r1,r1,r4
        0x08002d48:    6011        .`      STR      r1,[r2,#0]
        0x08002d4a:    e7be        ..      B        0x8002cca ; LL_EXTI_Init + 66
        0x08002d4c:    6804        .h      LDR      r4,[r0,#0]
        0x08002d4e:    6816        .h      LDR      r6,[r2,#0]
        0x08002d50:    ea260404    &...    BIC      r4,r6,r4
        0x08002d54:    6014        .`      STR      r4,[r2,#0]
        0x08002d56:    6802        .h      LDR      r2,[r0,#0]
        0x08002d58:    680c        .h      LDR      r4,[r1,#0]
        0x08002d5a:    4322        "C      ORRS     r2,r2,r4
        0x08002d5c:    600a        .`      STR      r2,[r1,#0]
        0x08002d5e:    e7b4        ..      B        0x8002cca ; LL_EXTI_Init + 66
        0x08002d60:    6804        .h      LDR      r4,[r0,#0]
        0x08002d62:    6816        .h      LDR      r6,[r2,#0]
        0x08002d64:    4334        4C      ORRS     r4,r4,r6
        0x08002d66:    6014        .`      STR      r4,[r2,#0]
        0x08002d68:    6802        .h      LDR      r2,[r0,#0]
        0x08002d6a:    680c        .h      LDR      r4,[r1,#0]
        0x08002d6c:    4322        "C      ORRS     r2,r2,r4
        0x08002d6e:    600a        .`      STR      r2,[r1,#0]
        0x08002d70:    e7ab        ..      B        0x8002cca ; LL_EXTI_Init + 66
        0x08002d72:    681a        .h      LDR      r2,[r3,#0]
        0x08002d74:    ea220101    "...    BIC      r1,r2,r1
        0x08002d78:    6019        .`      STR      r1,[r3,#0]
        0x08002d7a:    6841        Ah      LDR      r1,[r0,#4]
        0x08002d7c:    f8dc2000    ...     LDR      r2,[r12,#0]
        0x08002d80:    4311        .C      ORRS     r1,r1,r2
        0x08002d82:    f8cc1000    ....    STR      r1,[r12,#0]
        0x08002d86:    e7ad        ..      B        0x8002ce4 ; LL_EXTI_Init + 92
        0x08002d88:    e037        7.      B        0x8002dfa ; LL_EXTI_Init + 370
        0x08002d8a:    f8dc2000    ...     LDR      r2,[r12,#0]
        0x08002d8e:    ea220101    "...    BIC      r1,r2,r1
        0x08002d92:    f8cc1000    ....    STR      r1,[r12,#0]
        0x08002d96:    6841        Ah      LDR      r1,[r0,#4]
        0x08002d98:    681a        .h      LDR      r2,[r3,#0]
        0x08002d9a:    4311        .C      ORRS     r1,r1,r2
        0x08002d9c:    6019        .`      STR      r1,[r3,#0]
        0x08002d9e:    e7a1        ..      B        0x8002ce4 ; LL_EXTI_Init + 92
        0x08002da0:    f8dc2000    ...     LDR      r2,[r12,#0]
        0x08002da4:    4311        .C      ORRS     r1,r1,r2
        0x08002da6:    f8cc1000    ....    STR      r1,[r12,#0]
        0x08002daa:    6841        Ah      LDR      r1,[r0,#4]
        0x08002dac:    681a        .h      LDR      r2,[r3,#0]
        0x08002dae:    4311        .C      ORRS     r1,r1,r2
        0x08002db0:    6019        .`      STR      r1,[r3,#0]
        0x08002db2:    e797        ..      B        0x8002ce4 ; LL_EXTI_Init + 92
        0x08002db4:    e036        6.      B        0x8002e24 ; LL_EXTI_Init + 412
        0x08002db6:    6843        Ch      LDR      r3,[r0,#4]
        0x08002db8:    f8d1c000    ....    LDR      r12,[r1,#0]
        0x08002dbc:    ea2c0303    ,...    BIC      r3,r12,r3
        0x08002dc0:    600b        .`      STR      r3,[r1,#0]
        0x08002dc2:    6840        @h      LDR      r0,[r0,#4]
        0x08002dc4:    6811        .h      LDR      r1,[r2,#0]
        0x08002dc6:    4308        .C      ORRS     r0,r0,r1
        0x08002dc8:    6010        .`      STR      r0,[r2,#0]
        0x08002dca:    e02b        +.      B        0x8002e24 ; LL_EXTI_Init + 412
        0x08002dcc:    6843        Ch      LDR      r3,[r0,#4]
        0x08002dce:    f8d2c000    ....    LDR      r12,[r2,#0]
        0x08002dd2:    ea2c0303    ,...    BIC      r3,r12,r3
        0x08002dd6:    6013        .`      STR      r3,[r2,#0]
        0x08002dd8:    6840        @h      LDR      r0,[r0,#4]
        0x08002dda:    680a        .h      LDR      r2,[r1,#0]
        0x08002ddc:    4310        .C      ORRS     r0,r0,r2
        0x08002dde:    6008        .`      STR      r0,[r1,#0]
        0x08002de0:    e020         .      B        0x8002e24 ; LL_EXTI_Init + 412
        0x08002de2:    e7ff        ..      B        0x8002de4 ; LL_EXTI_Init + 348
        0x08002de4:    6843        Ch      LDR      r3,[r0,#4]
        0x08002de6:    f8d2c000    ....    LDR      r12,[r2,#0]
        0x08002dea:    ea4c0303    L...    ORR      r3,r12,r3
        0x08002dee:    6013        .`      STR      r3,[r2,#0]
        0x08002df0:    6840        @h      LDR      r0,[r0,#4]
        0x08002df2:    680a        .h      LDR      r2,[r1,#0]
        0x08002df4:    4310        .C      ORRS     r0,r0,r2
        0x08002df6:    6008        .`      STR      r0,[r1,#0]
        0x08002df8:    e014        ..      B        0x8002e24 ; LL_EXTI_Init + 412
        0x08002dfa:    6826        &h      LDR      r6,[r4,#0]
        0x08002dfc:    ea260101    &...    BIC      r1,r6,r1
        0x08002e00:    6021        !`      STR      r1,[r4,#0]
        0x08002e02:    6801        .h      LDR      r1,[r0,#0]
        0x08002e04:    6814        .h      LDR      r4,[r2,#0]
        0x08002e06:    ea240101    $...    BIC      r1,r4,r1
        0x08002e0a:    6011        .`      STR      r1,[r2,#0]
        0x08002e0c:    6841        Ah      LDR      r1,[r0,#4]
        0x08002e0e:    f8dc2000    ...     LDR      r2,[r12,#0]
        0x08002e12:    ea220101    "...    BIC      r1,r2,r1
        0x08002e16:    f8cc1000    ....    STR      r1,[r12,#0]
        0x08002e1a:    6840        @h      LDR      r0,[r0,#4]
        0x08002e1c:    6819        .h      LDR      r1,[r3,#0]
        0x08002e1e:    ea210000    !...    BIC      r0,r1,r0
        0x08002e22:    6018        .`      STR      r0,[r3,#0]
        0x08002e24:    4628        (F      MOV      r0,r5
        0x08002e26:    bc70        p.      POP      {r4-r6}
        0x08002e28:    4770        pG      BX       lr
    $d
        0x08002e2a:    0000        ..      DCW    0
        0x08002e2c:    40010404    ...@    DCD    1073808388
        0x08002e30:    40010424    $..@    DCD    1073808420
        0x08002e34:    4001040c    ...@    DCD    1073808396
        0x08002e38:    4001042c    ,..@    DCD    1073808428
    $t
    i.LL_GPIO_Init
    LL_GPIO_Init
        0x08002e3c:    e92d03f0    -...    PUSH     {r4-r9}
        0x08002e40:    680a        .h      LDR      r2,[r1,#0]
        0x08002e42:    fa92f3a2    ....    RBIT     r3,r2
        0x08002e46:    fab3f383    ....    CLZ      r3,r3
        0x08002e4a:    40da        .@      LSRS     r2,r2,r3
        0x08002e4c:    d07e        ~.      BEQ      0x8002f4c ; LL_GPIO_Init + 272
        0x08002e4e:    2501        .%      MOVS     r5,#1
        0x08002e50:    240f        .$      MOVS     r4,#0xf
        0x08002e52:    f04f0c03    O...    MOV      r12,#3
        0x08002e56:    bf00        ..      NOP      
        0x08002e58:    680e        .h      LDR      r6,[r1,#0]
        0x08002e5a:    fa05f203    ....    LSL      r2,r5,r3
        0x08002e5e:    4032        2@      ANDS     r2,r2,r6
        0x08002e60:    d075        u.      BEQ      0x8002f4e ; LL_GPIO_Init + 274
        0x08002e62:    684e        Nh      LDR      r6,[r1,#4]
        0x08002e64:    2e01        ..      CMP      r6,#1
        0x08002e66:    bf18        ..      IT       NE
        0x08002e68:    2e02        ..      CMPNE    r6,#2
        0x08002e6a:    d122        ".      BNE      0x8002eb2 ; LL_GPIO_Init + 118
        0x08002e6c:    688f        .h      LDR      r7,[r1,#8]
        0x08002e6e:    f8d08008    ....    LDR      r8,[r0,#8]
        0x08002e72:    fa92f6a2    ....    RBIT     r6,r2
        0x08002e76:    fab6f686    ....    CLZ      r6,r6
        0x08002e7a:    ea4f0646    O.F.    LSL      r6,r6,#1
        0x08002e7e:    fa0cf606    ....    LSL      r6,r12,r6
        0x08002e82:    ea280606    (...    BIC      r6,r8,r6
        0x08002e86:    fa92f8a2    ....    RBIT     r8,r2
        0x08002e8a:    fab8f888    ....    CLZ      r8,r8
        0x08002e8e:    ea4f0848    O.H.    LSL      r8,r8,#1
        0x08002e92:    fa07f708    ....    LSL      r7,r7,r8
        0x08002e96:    ea460607    F...    ORR      r6,r6,r7
        0x08002e9a:    6086        .`      STR      r6,[r0,#8]
        0x08002e9c:    68cf        .h      LDR      r7,[r1,#0xc]
        0x08002e9e:    680e        .h      LDR      r6,[r1,#0]
        0x08002ea0:    f8d08004    ....    LDR      r8,[r0,#4]
        0x08002ea4:    ea280806    (...    BIC      r8,r8,r6
        0x08002ea8:    fb06f607    ....    MUL      r6,r6,r7
        0x08002eac:    ea480606    H...    ORR      r6,r8,r6
        0x08002eb0:    6046        F`      STR      r6,[r0,#4]
        0x08002eb2:    690e        .i      LDR      r6,[r1,#0x10]
        0x08002eb4:    f8d0800c    ....    LDR      r8,[r0,#0xc]
        0x08002eb8:    fa92f7a2    ....    RBIT     r7,r2
        0x08002ebc:    fab7f787    ....    CLZ      r7,r7
        0x08002ec0:    ea4f0747    O.G.    LSL      r7,r7,#1
        0x08002ec4:    fa0cf707    ....    LSL      r7,r12,r7
        0x08002ec8:    ea280707    (...    BIC      r7,r8,r7
        0x08002ecc:    fa92f8a2    ....    RBIT     r8,r2
        0x08002ed0:    fab8f888    ....    CLZ      r8,r8
        0x08002ed4:    ea4f0848    O.H.    LSL      r8,r8,#1
        0x08002ed8:    fa06f608    ....    LSL      r6,r6,r8
        0x08002edc:    ea470606    G...    ORR      r6,r7,r6
        0x08002ee0:    60c6        .`      STR      r6,[r0,#0xc]
        0x08002ee2:    684e        Nh      LDR      r6,[r1,#4]
        0x08002ee4:    2e02        ..      CMP      r6,#2
        0x08002ee6:    d134        4.      BNE      0x8002f52 ; LL_GPIO_Init + 278
        0x08002ee8:    f5b27f80    ....    CMP      r2,#0x100
        0x08002eec:    d216        ..      BCS      0x8002f1c ; LL_GPIO_Init + 224
        0x08002eee:    694e        Ni      LDR      r6,[r1,#0x14]
        0x08002ef0:    6a07        .j      LDR      r7,[r0,#0x20]
        0x08002ef2:    fa92f8a2    ....    RBIT     r8,r2
        0x08002ef6:    fab8f888    ....    CLZ      r8,r8
        0x08002efa:    ea4f0888    O...    LSL      r8,r8,#2
        0x08002efe:    fa04f808    ....    LSL      r8,r4,r8
        0x08002f02:    ea270708    '...    BIC      r7,r7,r8
        0x08002f06:    fa92f8a2    ....    RBIT     r8,r2
        0x08002f0a:    fab8f888    ....    CLZ      r8,r8
        0x08002f0e:    ea4f0888    O...    LSL      r8,r8,#2
        0x08002f12:    fa06f608    ....    LSL      r6,r6,r8
        0x08002f16:    433e        >C      ORRS     r6,r6,r7
        0x08002f18:    6206        .b      STR      r6,[r0,#0x20]
        0x08002f1a:    e01a        ..      B        0x8002f52 ; LL_GPIO_Init + 278
        0x08002f1c:    694f        Oi      LDR      r7,[r1,#0x14]
        0x08002f1e:    f8d08024    ..$.    LDR      r8,[r0,#0x24]
        0x08002f22:    0a16        ..      LSRS     r6,r2,#8
        0x08002f24:    fa96f9a6    ....    RBIT     r9,r6
        0x08002f28:    fab9f989    ....    CLZ      r9,r9
        0x08002f2c:    ea4f0989    O...    LSL      r9,r9,#2
        0x08002f30:    fa04f909    ....    LSL      r9,r4,r9
        0x08002f34:    fa96f6a6    ....    RBIT     r6,r6
        0x08002f38:    fab6f686    ....    CLZ      r6,r6
        0x08002f3c:    00b6        ..      LSLS     r6,r6,#2
        0x08002f3e:    ea280809    (...    BIC      r8,r8,r9
        0x08002f42:    fa07f606    ....    LSL      r6,r7,r6
        0x08002f46:    ea480606    H...    ORR      r6,r8,r6
        0x08002f4a:    e001        ..      B        0x8002f50 ; LL_GPIO_Init + 276
        0x08002f4c:    e01b        ..      B        0x8002f86 ; LL_GPIO_Init + 330
        0x08002f4e:    e015        ..      B        0x8002f7c ; LL_GPIO_Init + 320
        0x08002f50:    6246        Fb      STR      r6,[r0,#0x24]
        0x08002f52:    684f        Oh      LDR      r7,[r1,#4]
        0x08002f54:    f8d08000    ....    LDR      r8,[r0,#0]
        0x08002f58:    fa92f6a2    ....    RBIT     r6,r2
        0x08002f5c:    fab6f686    ....    CLZ      r6,r6
        0x08002f60:    0076        v.      LSLS     r6,r6,#1
        0x08002f62:    fa0cf606    ....    LSL      r6,r12,r6
        0x08002f66:    fa92f2a2    ....    RBIT     r2,r2
        0x08002f6a:    fab2f282    ....    CLZ      r2,r2
        0x08002f6e:    0052        R.      LSLS     r2,r2,#1
        0x08002f70:    ea280606    (...    BIC      r6,r8,r6
        0x08002f74:    fa07f202    ....    LSL      r2,r7,r2
        0x08002f78:    4332        2C      ORRS     r2,r2,r6
        0x08002f7a:    6002        .`      STR      r2,[r0,#0]
        0x08002f7c:    680a        .h      LDR      r2,[r1,#0]
        0x08002f7e:    1c5b        [.      ADDS     r3,r3,#1
        0x08002f80:    40da        .@      LSRS     r2,r2,r3
        0x08002f82:    f47faf69    ..i.    BNE      0x8002e58 ; LL_GPIO_Init + 28
        0x08002f86:    e8bd03f0    ....    POP      {r4-r9}
        0x08002f8a:    2000        .       MOVS     r0,#0
        0x08002f8c:    4770        pG      BX       lr
    i.LL_I2C_Init
    LL_I2C_Init
        0x08002f8e:    6802        .h      LDR      r2,[r0,#0]
        0x08002f90:    f0220201    "...    BIC      r2,r2,#1
        0x08002f94:    6002        .`      STR      r2,[r0,#0]
        0x08002f96:    e9d13202    ...2    LDRD     r3,r2,[r1,#8]
        0x08002f9a:    f8d0c000    ....    LDR      r12,[r0,#0]
        0x08002f9e:    ea432202    C.."    ORR      r2,r3,r2,LSL #8
        0x08002fa2:    f42c5cf8    ,..\    BIC      r12,r12,#0x1f00
        0x08002fa6:    ea4c0202    L...    ORR      r2,r12,r2
        0x08002faa:    6002        .`      STR      r2,[r0,#0]
        0x08002fac:    684a        Jh      LDR      r2,[r1,#4]
        0x08002fae:    6102        .a      STR      r2,[r0,#0x10]
        0x08002fb0:    6802        .h      LDR      r2,[r0,#0]
        0x08002fb2:    f0420201    B...    ORR      r2,r2,#1
        0x08002fb6:    6002        .`      STR      r2,[r0,#0]
        0x08002fb8:    6882        .h      LDR      r2,[r0,#8]
        0x08002fba:    f4224200    "..B    BIC      r2,r2,#0x8000
        0x08002fbe:    6082        .`      STR      r2,[r0,#8]
        0x08002fc0:    690b        .i      LDR      r3,[r1,#0x10]
        0x08002fc2:    698a        .i      LDR      r2,[r1,#0x18]
        0x08002fc4:    f8d0c008    ....    LDR      r12,[r0,#8]
        0x08002fc8:    431a        .C      ORRS     r2,r2,r3
        0x08002fca:    f36f0c0a    o...    BFC      r12,#0,#11
        0x08002fce:    ea4c0202    L...    ORR      r2,r12,r2
        0x08002fd2:    6082        .`      STR      r2,[r0,#8]
        0x08002fd4:    690a        .i      LDR      r2,[r1,#0x10]
        0x08002fd6:    b11a        ..      CBZ      r2,0x8002fe0 ; LL_I2C_Init + 82
        0x08002fd8:    6882        .h      LDR      r2,[r0,#8]
        0x08002fda:    f4424200    B..B    ORR      r2,r2,#0x8000
        0x08002fde:    6082        .`      STR      r2,[r0,#8]
        0x08002fe0:    680a        .h      LDR      r2,[r1,#0]
        0x08002fe2:    6803        .h      LDR      r3,[r0,#0]
        0x08002fe4:    f4231340    #.@.    BIC      r3,r3,#0x300000
        0x08002fe8:    431a        .C      ORRS     r2,r2,r3
        0x08002fea:    6002        .`      STR      r2,[r0,#0]
        0x08002fec:    6949        Ii      LDR      r1,[r1,#0x14]
        0x08002fee:    6842        Bh      LDR      r2,[r0,#4]
        0x08002ff0:    f4224200    "..B    BIC      r2,r2,#0x8000
        0x08002ff4:    4311        .C      ORRS     r1,r1,r2
        0x08002ff6:    6041        A`      STR      r1,[r0,#4]
        0x08002ff8:    2000        .       MOVS     r0,#0
        0x08002ffa:    4770        pG      BX       lr
    i.LL_RCC_GetUARTClockFreq
    LL_RCC_GetUARTClockFreq
        0x08002ffc:    4601        .F      MOV      r1,r0
        0x08002ffe:    b510        ..      PUSH     {r4,lr}
        0x08003000:    2000        .       MOVS     r0,#0
        0x08003002:    29c0        .)      CMP      r1,#0xc0
        0x08003004:    bf18        ..      IT       NE
        0x08003006:    bd10        ..      POPNE    {r4,pc}
        0x08003008:    4c1a        .L      LDR      r4,[pc,#104] ; [0x8003074] = 0x40021000
        0x0800300a:    f8d41088    ....    LDR      r1,[r4,#0x88]
        0x0800300e:    f00101c0    ....    AND      r1,r1,#0xc0
        0x08003012:    f4410140    A.@.    ORR      r1,r1,#0xc00000
        0x08003016:    3940        @9      SUBS     r1,r1,#0x40
        0x08003018:    f5b10140    ..@.    SUBS     r1,r1,#0xc00000
        0x0800301c:    d017        ..      BEQ      0x800304e ; LL_RCC_GetUARTClockFreq + 82
        0x0800301e:    2940        @)      CMP      r1,#0x40
        0x08003020:    d019        ..      BEQ      0x8003056 ; LL_RCC_GetUARTClockFreq + 90
        0x08003022:    2980        .)      CMP      r1,#0x80
        0x08003024:    d01e        ..      BEQ      0x8003064 ; LL_RCC_GetUARTClockFreq + 104
        0x08003026:    f001fded    ....    BL       RCC_GetSystemClockFreq ; 0x8004c04
        0x0800302a:    68a1        .h      LDR      r1,[r4,#8]
        0x0800302c:    4a12        .J      LDR      r2,[pc,#72] ; [0x8003078] = 0x8008a04
        0x0800302e:    f00101f0    ....    AND      r1,r1,#0xf0
        0x08003032:    0909        ..      LSRS     r1,r1,#4
        0x08003034:    5c51        Q\      LDRB     r1,[r2,r1]
        0x08003036:    f001011f    ....    AND      r1,r1,#0x1f
        0x0800303a:    40c8        .@      LSRS     r0,r0,r1
        0x0800303c:    68a1        .h      LDR      r1,[r4,#8]
        0x0800303e:    4a0f        .J      LDR      r2,[pc,#60] ; [0x800307c] = 0x8008a14
        0x08003040:    f3c12102    ...!    UBFX     r1,r1,#8,#3
        0x08003044:    5c51        Q\      LDRB     r1,[r2,r1]
        0x08003046:    f001011f    ....    AND      r1,r1,#0x1f
        0x0800304a:    40c8        .@      LSRS     r0,r0,r1
        0x0800304c:    bd10        ..      POP      {r4,pc}
        0x0800304e:    e8bd4010    ...@    POP      {r4,lr}
        0x08003052:    f001bdd7    ....    B.W      RCC_GetSystemClockFreq ; 0x8004c04
        0x08003056:    6821        !h      LDR      r1,[r4,#0]
        0x08003058:    f3c12180    ...!    UBFX     r1,r1,#10,#1
        0x0800305c:    2900        .)      CMP      r1,#0
        0x0800305e:    bf18        ..      IT       NE
        0x08003060:    4807        .H      LDRNE    r0,[pc,#28] ; [0x8003080] = 0xf42400
        0x08003062:    bd10        ..      POP      {r4,pc}
        0x08003064:    f8d41090    ....    LDR      r1,[r4,#0x90]
        0x08003068:    f0110f02    ....    TST      r1,#2
        0x0800306c:    bf18        ..      IT       NE
        0x0800306e:    f44f4000    O..@    MOVNE    r0,#0x8000
        0x08003072:    bd10        ..      POP      {r4,pc}
    $d
        0x08003074:    40021000    ...@    DCD    1073876992
        0x08003078:    08008a04    ....    DCD    134253060
        0x0800307c:    08008a14    ....    DCD    134253076
        0x08003080:    00f42400    .$..    DCD    16000000
    $t
    i.LL_RCC_GetUSARTClockFreq
    LL_RCC_GetUSARTClockFreq
        0x08003084:    b570        p.      PUSH     {r4-r6,lr}
        0x08003086:    4602        .F      MOV      r2,r0
        0x08003088:    2000        .       MOVS     r0,#0
        0x0800308a:    4944        DI      LDR      r1,[pc,#272] ; [0x800319c] = 0xf42400
        0x0800308c:    4d44        DM      LDR      r5,[pc,#272] ; [0x80031a0] = 0x8008a04
        0x0800308e:    4e45        EN      LDR      r6,[pc,#276] ; [0x80031a4] = 0x8008a14
        0x08003090:    4c45        EL      LDR      r4,[pc,#276] ; [0x80031a8] = 0x40021000
        0x08003092:    2a03        .*      CMP      r2,#3
        0x08003094:    d013        ..      BEQ      0x80030be ; LL_RCC_GetUSARTClockFreq + 58
        0x08003096:    2a0c        .*      CMP      r2,#0xc
        0x08003098:    d043        C.      BEQ      0x8003122 ; LL_RCC_GetUSARTClockFreq + 158
        0x0800309a:    2a30        0*      CMP      r2,#0x30
        0x0800309c:    bf18        ..      IT       NE
        0x0800309e:    bd70        p.      POPNE    {r4-r6,pc}
        0x080030a0:    f8d42088    ...     LDR      r2,[r4,#0x88]
        0x080030a4:    f0020230    ..0.    AND      r2,r2,#0x30
        0x080030a8:    f4421240    B.@.    ORR      r2,r2,#0x300000
        0x080030ac:    3a10        .:      SUBS     r2,r2,#0x10
        0x080030ae:    f5b21240    ..@.    SUBS     r2,r2,#0x300000
        0x080030b2:    d062        b.      BEQ      0x800317a ; LL_RCC_GetUSARTClockFreq + 246
        0x080030b4:    2a10        .*      CMP      r2,#0x10
        0x080030b6:    d064        d.      BEQ      0x8003182 ; LL_RCC_GetUSARTClockFreq + 254
        0x080030b8:    2a20         *      CMP      r2,#0x20
        0x080030ba:    d068        h.      BEQ      0x800318e ; LL_RCC_GetUSARTClockFreq + 266
        0x080030bc:    e03f        ?.      B        0x800313e ; LL_RCC_GetUSARTClockFreq + 186
        0x080030be:    f8d42088    ...     LDR      r2,[r4,#0x88]
        0x080030c2:    f46f3340    o.@3    MVN      r3,#0x30000
        0x080030c6:    f0020203    ....    AND      r2,r2,#3
        0x080030ca:    f4423240    B.@2    ORR      r2,r2,#0x30000
        0x080030ce:    18d2        ..      ADDS     r2,r2,r3
        0x080030d0:    d053        S.      BEQ      0x800317a ; LL_RCC_GetUSARTClockFreq + 246
        0x080030d2:    2a01        .*      CMP      r2,#1
        0x080030d4:    d013        ..      BEQ      0x80030fe ; LL_RCC_GetUSARTClockFreq + 122
        0x080030d6:    2a02        .*      CMP      r2,#2
        0x080030d8:    d019        ..      BEQ      0x800310e ; LL_RCC_GetUSARTClockFreq + 138
        0x080030da:    f001fd93    ....    BL       RCC_GetSystemClockFreq ; 0x8004c04
        0x080030de:    68a1        .h      LDR      r1,[r4,#8]
        0x080030e0:    f00101f0    ....    AND      r1,r1,#0xf0
        0x080030e4:    0909        ..      LSRS     r1,r1,#4
        0x080030e6:    5c69        i\      LDRB     r1,[r5,r1]
        0x080030e8:    f001011f    ....    AND      r1,r1,#0x1f
        0x080030ec:    40c8        .@      LSRS     r0,r0,r1
        0x080030ee:    68a1        .h      LDR      r1,[r4,#8]
        0x080030f0:    f3c121c2    ...!    UBFX     r1,r1,#11,#3
        0x080030f4:    5c71        q\      LDRB     r1,[r6,r1]
        0x080030f6:    f001011f    ....    AND      r1,r1,#0x1f
        0x080030fa:    40c8        .@      LSRS     r0,r0,r1
        0x080030fc:    bd70        p.      POP      {r4-r6,pc}
        0x080030fe:    6822        "h      LDR      r2,[r4,#0]
        0x08003100:    f3c22280    ..."    UBFX     r2,r2,#10,#1
        0x08003104:    2a00        .*      CMP      r2,#0
        0x08003106:    bf08        ..      IT       EQ
        0x08003108:    bd70        p.      POPEQ    {r4-r6,pc}
        0x0800310a:    4608        .F      MOV      r0,r1
        0x0800310c:    bd70        p.      POP      {r4-r6,pc}
        0x0800310e:    f8d41090    ....    LDR      r1,[r4,#0x90]
        0x08003112:    f0110f02    ....    TST      r1,#2
        0x08003116:    bf08        ..      IT       EQ
        0x08003118:    bd70        p.      POPEQ    {r4-r6,pc}
        0x0800311a:    bf00        ..      NOP      
        0x0800311c:    f44f4000    O..@    MOV      r0,#0x8000
        0x08003120:    bd70        p.      POP      {r4-r6,pc}
        0x08003122:    f8d42088    ...     LDR      r2,[r4,#0x88]
        0x08003126:    f002020c    ....    AND      r2,r2,#0xc
        0x0800312a:    f4422240    B.@"    ORR      r2,r2,#0xc0000
        0x0800312e:    1f12        ..      SUBS     r2,r2,#4
        0x08003130:    f5b22240    ..@"    SUBS     r2,r2,#0xc0000
        0x08003134:    d021        !.      BEQ      0x800317a ; LL_RCC_GetUSARTClockFreq + 246
        0x08003136:    2a04        .*      CMP      r2,#4
        0x08003138:    d013        ..      BEQ      0x8003162 ; LL_RCC_GetUSARTClockFreq + 222
        0x0800313a:    2a08        .*      CMP      r2,#8
        0x0800313c:    d017        ..      BEQ      0x800316e ; LL_RCC_GetUSARTClockFreq + 234
        0x0800313e:    f001fd61    ..a.    BL       RCC_GetSystemClockFreq ; 0x8004c04
        0x08003142:    68a1        .h      LDR      r1,[r4,#8]
        0x08003144:    f00101f0    ....    AND      r1,r1,#0xf0
        0x08003148:    0909        ..      LSRS     r1,r1,#4
        0x0800314a:    5c69        i\      LDRB     r1,[r5,r1]
        0x0800314c:    f001011f    ....    AND      r1,r1,#0x1f
        0x08003150:    40c8        .@      LSRS     r0,r0,r1
        0x08003152:    68a1        .h      LDR      r1,[r4,#8]
        0x08003154:    f3c12102    ...!    UBFX     r1,r1,#8,#3
        0x08003158:    5c71        q\      LDRB     r1,[r6,r1]
        0x0800315a:    f001011f    ....    AND      r1,r1,#0x1f
        0x0800315e:    40c8        .@      LSRS     r0,r0,r1
        0x08003160:    bd70        p.      POP      {r4-r6,pc}
        0x08003162:    6822        "h      LDR      r2,[r4,#0]
        0x08003164:    f3c22280    ..."    UBFX     r2,r2,#10,#1
        0x08003168:    2a00        .*      CMP      r2,#0
        0x0800316a:    d1ce        ..      BNE      0x800310a ; LL_RCC_GetUSARTClockFreq + 134
        0x0800316c:    bd70        p.      POP      {r4-r6,pc}
        0x0800316e:    f8d41090    ....    LDR      r1,[r4,#0x90]
        0x08003172:    f0110f02    ....    TST      r1,#2
        0x08003176:    d1d1        ..      BNE      0x800311c ; LL_RCC_GetUSARTClockFreq + 152
        0x08003178:    bd70        p.      POP      {r4-r6,pc}
        0x0800317a:    e8bd4070    ..p@    POP      {r4-r6,lr}
        0x0800317e:    f001bd41    ..A.    B.W      RCC_GetSystemClockFreq ; 0x8004c04
        0x08003182:    6822        "h      LDR      r2,[r4,#0]
        0x08003184:    f3c22280    ..."    UBFX     r2,r2,#10,#1
        0x08003188:    2a00        .*      CMP      r2,#0
        0x0800318a:    d1be        ..      BNE      0x800310a ; LL_RCC_GetUSARTClockFreq + 134
        0x0800318c:    bd70        p.      POP      {r4-r6,pc}
        0x0800318e:    f8d41090    ....    LDR      r1,[r4,#0x90]
        0x08003192:    f0110f02    ....    TST      r1,#2
        0x08003196:    d1c1        ..      BNE      0x800311c ; LL_RCC_GetUSARTClockFreq + 152
        0x08003198:    bd70        p.      POP      {r4-r6,pc}
    $d
        0x0800319a:    0000        ..      DCW    0
        0x0800319c:    00f42400    .$..    DCD    16000000
        0x080031a0:    08008a04    ....    DCD    134253060
        0x080031a4:    08008a14    ....    DCD    134253076
        0x080031a8:    40021000    ...@    DCD    1073876992
    $t
    i.LL_SPI_Init
    LL_SPI_Init
        0x080031ac:    6803        .h      LDR      r3,[r0,#0]
        0x080031ae:    2201        ."      MOVS     r2,#1
        0x080031b0:    f0130f40    ..@.    TST      r3,#0x40
        0x080031b4:    d131        1.      BNE      0x800321a ; LL_SPI_Init + 110
        0x080031b6:    e9d12300    ...#    LDRD     r2,r3,[r1,#0]
        0x080031ba:    431a        .C      ORRS     r2,r2,r3
        0x080031bc:    e9d13c03    ...<    LDRD     r3,r12,[r1,#0xc]
        0x080031c0:    ea43030c    C...    ORR      r3,r3,r12
        0x080031c4:    431a        .C      ORRS     r2,r2,r3
        0x080031c6:    694b        Ki      LDR      r3,[r1,#0x14]
        0x080031c8:    431a        .C      ORRS     r2,r2,r3
        0x080031ca:    698b        .i      LDR      r3,[r1,#0x18]
        0x080031cc:    431a        .C      ORRS     r2,r2,r3
        0x080031ce:    69cb        .i      LDR      r3,[r1,#0x1c]
        0x080031d0:    431a        .C      ORRS     r2,r2,r3
        0x080031d2:    6a0b        .j      LDR      r3,[r1,#0x20]
        0x080031d4:    431a        .C      ORRS     r2,r2,r3
        0x080031d6:    6803        .h      LDR      r3,[r0,#0]
        0x080031d8:    f02303bf    #...    BIC      r3,r3,#0xbf
        0x080031dc:    f423437f    #..C    BIC      r3,r3,#0xff00
        0x080031e0:    431a        .C      ORRS     r2,r2,r3
        0x080031e2:    6002        .`      STR      r2,[r0,#0]
        0x080031e4:    6842        Bh      LDR      r2,[r0,#4]
        0x080031e6:    694b        Ki      LDR      r3,[r1,#0x14]
        0x080031e8:    f4227241    ".Ar    BIC      r2,r2,#0x304
        0x080031ec:    f4226240    ".@b    BIC      r2,r2,#0xc00
        0x080031f0:    ea424213    B..B    ORR      r2,r2,r3,LSR #16
        0x080031f4:    688b        .h      LDR      r3,[r1,#8]
        0x080031f6:    431a        .C      ORRS     r2,r2,r3
        0x080031f8:    6042        B`      STR      r2,[r0,#4]
        0x080031fa:    688a        .h      LDR      r2,[r1,#8]
        0x080031fc:    f5b26f00    ...o    CMP      r2,#0x800
        0x08003200:    d203        ..      BCS      0x800320a ; LL_SPI_Init + 94
        0x08003202:    6842        Bh      LDR      r2,[r0,#4]
        0x08003204:    f4425280    B..R    ORR      r2,r2,#0x1000
        0x08003208:    6042        B`      STR      r2,[r0,#4]
        0x0800320a:    6a0a        .j      LDR      r2,[r1,#0x20]
        0x0800320c:    f5b25f00    ..._    CMP      r2,#0x2000
        0x08003210:    d102        ..      BNE      0x8003218 ; LL_SPI_Init + 108
        0x08003212:    8c89        ..      LDRH     r1,[r1,#0x24]
        0x08003214:    b289        ..      UXTH     r1,r1
        0x08003216:    6101        .a      STR      r1,[r0,#0x10]
        0x08003218:    2200        ."      MOVS     r2,#0
        0x0800321a:    69c1        .i      LDR      r1,[r0,#0x1c]
        0x0800321c:    f4216100    !..a    BIC      r1,r1,#0x800
        0x08003220:    61c1        .a      STR      r1,[r0,#0x1c]
        0x08003222:    4610        .F      MOV      r0,r2
        0x08003224:    4770        pG      BX       lr
        0x08003226:    0000        ..      MOVS     r0,r0
    i.LL_SetSystemCoreClock
    LL_SetSystemCoreClock
        0x08003228:    4901        .I      LDR      r1,[pc,#4] ; [0x8003230] = 0x20000004
        0x0800322a:    6008        .`      STR      r0,[r1,#0]
        0x0800322c:    4770        pG      BX       lr
    $d
        0x0800322e:    0000        ..      DCW    0
        0x08003230:    20000004    ...     DCD    536870916
    $t
    i.LL_TIM_BDTR_Init
    LL_TIM_BDTR_Init
        0x08003234:    7b0a        .{      LDRB     r2,[r1,#0xc]
        0x08003236:    688b        .h      LDR      r3,[r1,#8]
        0x08003238:    431a        .C      ORRS     r2,r2,r3
        0x0800323a:    684b        Kh      LDR      r3,[r1,#4]
        0x0800323c:    f4226280    "..b    BIC      r2,r2,#0x400
        0x08003240:    431a        .C      ORRS     r2,r2,r3
        0x08003242:    680b        .h      LDR      r3,[r1,#0]
        0x08003244:    f4226200    "..b    BIC      r2,r2,#0x800
        0x08003248:    431a        .C      ORRS     r2,r2,r3
        0x0800324a:    89cb        ..      LDRH     r3,[r1,#0xe]
        0x0800324c:    f4225280    "..R    BIC      r2,r2,#0x1000
        0x08003250:    431a        .C      ORRS     r2,r2,r3
        0x08003252:    690b        .i      LDR      r3,[r1,#0x10]
        0x08003254:    f4225200    "..R    BIC      r2,r2,#0x2000
        0x08003258:    431a        .C      ORRS     r2,r2,r3
        0x0800325a:    6acb        .j      LDR      r3,[r1,#0x2c]
        0x0800325c:    f4224280    "..B    BIC      r2,r2,#0x4000
        0x08003260:    431a        .C      ORRS     r2,r2,r3
        0x08003262:    694b        Ki      LDR      r3,[r1,#0x14]
        0x08003264:    f4222270    ".p"    BIC      r2,r2,#0xf0000
        0x08003268:    431a        .C      ORRS     r2,r2,r3
        0x0800326a:    698b        .i      LDR      r3,[r1,#0x18]
        0x0800326c:    f0225280    "..R    BIC      r2,r2,#0x10000000
        0x08003270:    431a        .C      ORRS     r2,r2,r3
        0x08003272:    f1a04380    ...C    SUB      r3,r0,#0x40000000
        0x08003276:    f5b33396    ...3    SUBS     r3,r3,#0x12c00
        0x0800327a:    bf1c        ..      ITT      NE
        0x0800327c:    f1a04380    ...C    SUBNE    r3,r0,#0x40000000
        0x08003280:    f5b3339a    ...3    SUBSNE   r3,r3,#0x13400
        0x08003284:    d10f        ..      BNE      0x80032a6 ; LL_TIM_BDTR_Init + 114
        0x08003286:    6a4b        Kj      LDR      r3,[r1,#0x24]
        0x08003288:    f4220270    ".p.    BIC      r2,r2,#0xf00000
        0x0800328c:    431a        .C      ORRS     r2,r2,r3
        0x0800328e:    69cb        .i      LDR      r3,[r1,#0x1c]
        0x08003290:    f0227280    "..r    BIC      r2,r2,#0x1000000
        0x08003294:    431a        .C      ORRS     r2,r2,r3
        0x08003296:    6a0b        .j      LDR      r3,[r1,#0x20]
        0x08003298:    f0227200    "..r    BIC      r2,r2,#0x2000000
        0x0800329c:    431a        .C      ORRS     r2,r2,r3
        0x0800329e:    6a89        .j      LDR      r1,[r1,#0x28]
        0x080032a0:    f0225200    "..R    BIC      r2,r2,#0x20000000
        0x080032a4:    430a        .C      ORRS     r2,r2,r1
        0x080032a6:    6442        Bd      STR      r2,[r0,#0x44]
        0x080032a8:    2000        .       MOVS     r0,#0
        0x080032aa:    4770        pG      BX       lr
    i.LL_TIM_Init
    LL_TIM_Init
        0x080032ac:    e92d01f0    -...    PUSH     {r4-r8}
        0x080032b0:    6802        .h      LDR      r2,[r0,#0]
        0x080032b2:    4b23        #K      LDR      r3,[pc,#140] ; [0x8003340] = 0x40012c00
        0x080032b4:    4c23        #L      LDR      r4,[pc,#140] ; [0x8003344] = 0x40000400
        0x080032b6:    f8df8090    ....    LDR      r8,[pc,#144] ; [0x8003348] = 0x40000800
        0x080032ba:    f8dfc090    ....    LDR      r12,[pc,#144] ; [0x800334c] = 0x40013400
        0x080032be:    4298        .B      CMP      r0,r3
        0x080032c0:    bf18        ..      IT       NE
        0x080032c2:    f1b04f80    ...O    CMPNE    r0,#0x40000000
        0x080032c6:    d004        ..      BEQ      0x80032d2 ; LL_TIM_Init + 38
        0x080032c8:    42a0        .B      CMP      r0,r4
        0x080032ca:    bf1c        ..      ITT      NE
        0x080032cc:    4540        @E      CMPNE    r0,r8
        0x080032ce:    4560        `E      CMPNE    r0,r12
        0x080032d0:    d104        ..      BNE      0x80032dc ; LL_TIM_Init + 48
        0x080032d2:    684d        Mh      LDR      r5,[r1,#4]
        0x080032d4:    f0220270    ".p.    BIC      r2,r2,#0x70
        0x080032d8:    ea420205    B...    ORR      r2,r2,r5
        0x080032dc:    4d1c        .M      LDR      r5,[pc,#112] ; [0x8003350] = 0x40014000
        0x080032de:    4e1d        .N      LDR      r6,[pc,#116] ; [0x8003354] = 0x40014400
        0x080032e0:    4f1d        .O      LDR      r7,[pc,#116] ; [0x8003358] = 0x40014800
        0x080032e2:    4298        .B      CMP      r0,r3
        0x080032e4:    bf18        ..      IT       NE
        0x080032e6:    f1b04f80    ...O    CMPNE    r0,#0x40000000
        0x080032ea:    d00b        ..      BEQ      0x8003304 ; LL_TIM_Init + 88
        0x080032ec:    42a0        .B      CMP      r0,r4
        0x080032ee:    bf18        ..      IT       NE
        0x080032f0:    4540        @E      CMPNE    r0,r8
        0x080032f2:    d007        ..      BEQ      0x8003304 ; LL_TIM_Init + 88
        0x080032f4:    4560        `E      CMP      r0,r12
        0x080032f6:    bf18        ..      IT       NE
        0x080032f8:    42a8        .B      CMPNE    r0,r5
        0x080032fa:    d003        ..      BEQ      0x8003304 ; LL_TIM_Init + 88
        0x080032fc:    42b0        .B      CMP      r0,r6
        0x080032fe:    bf18        ..      IT       NE
        0x08003300:    42b8        .B      CMPNE    r0,r7
        0x08003302:    d104        ..      BNE      0x800330e ; LL_TIM_Init + 98
        0x08003304:    68cc        .h      LDR      r4,[r1,#0xc]
        0x08003306:    f4227240    ".@r    BIC      r2,r2,#0x300
        0x0800330a:    ea420204    B...    ORR      r2,r2,r4
        0x0800330e:    6002        .`      STR      r2,[r0,#0]
        0x08003310:    688a        .h      LDR      r2,[r1,#8]
        0x08003312:    62c2        .b      STR      r2,[r0,#0x2c]
        0x08003314:    880a        ..      LDRH     r2,[r1,#0]
        0x08003316:    6282        .b      STR      r2,[r0,#0x28]
        0x08003318:    4298        .B      CMP      r0,r3
        0x0800331a:    bf18        ..      IT       NE
        0x0800331c:    4560        `E      CMPNE    r0,r12
        0x0800331e:    d004        ..      BEQ      0x800332a ; LL_TIM_Init + 126
        0x08003320:    42a8        .B      CMP      r0,r5
        0x08003322:    bf1c        ..      ITT      NE
        0x08003324:    42b0        .B      CMPNE    r0,r6
        0x08003326:    42b8        .B      CMPNE    r0,r7
        0x08003328:    d101        ..      BNE      0x800332e ; LL_TIM_Init + 130
        0x0800332a:    6909        .i      LDR      r1,[r1,#0x10]
        0x0800332c:    6301        .c      STR      r1,[r0,#0x30]
        0x0800332e:    6941        Ai      LDR      r1,[r0,#0x14]
        0x08003330:    f0410101    A...    ORR      r1,r1,#1
        0x08003334:    6141        Aa      STR      r1,[r0,#0x14]
        0x08003336:    e8bd01f0    ....    POP      {r4-r8}
        0x0800333a:    f04f0000    O...    MOV      r0,#0
        0x0800333e:    4770        pG      BX       lr
    $d
        0x08003340:    40012c00    .,.@    DCD    1073818624
        0x08003344:    40000400    ...@    DCD    1073742848
        0x08003348:    40000800    ...@    DCD    1073743872
        0x0800334c:    40013400    .4.@    DCD    1073820672
        0x08003350:    40014000    .@.@    DCD    1073823744
        0x08003354:    40014400    .D.@    DCD    1073824768
        0x08003358:    40014800    .H.@    DCD    1073825792
    $t
    i.LL_TIM_OC_Init
    LL_TIM_OC_Init
        0x0800335c:    e92d07f0    -...    PUSH     {r4-r10}
        0x08003360:    2300        .#      MOVS     r3,#0
        0x08003362:    f8dfc338    ..8.    LDR      r12,[pc,#824] ; [0x800369c] = 0x40012c00
        0x08003366:    4cce        .L      LDR      r4,[pc,#824] ; [0x80036a0] = 0x40013400
        0x08003368:    4dce        .M      LDR      r5,[pc,#824] ; [0x80036a4] = 0x40014000
        0x0800336a:    4ecf        .N      LDR      r6,[pc,#828] ; [0x80036a8] = 0x40014400
        0x0800336c:    4fcf        .O      LDR      r7,[pc,#828] ; [0x80036ac] = 0x40014800
        0x0800336e:    f04f0801    O...    MOV      r8,#1
        0x08003372:    f5b15f80    ..._    CMP      r1,#0x1000
        0x08003376:    f00080e0    ....    BEQ.W    0x800353a ; LL_TIM_OC_Init + 478
        0x0800337a:    dc08        ..      BGT      0x800338e ; LL_TIM_OC_Init + 50
        0x0800337c:    2901        .)      CMP      r1,#1
        0x0800337e:    d010        ..      BEQ      0x80033a2 ; LL_TIM_OC_Init + 70
        0x08003380:    2910        .)      CMP      r1,#0x10
        0x08003382:    d052        R.      BEQ      0x800342a ; LL_TIM_OC_Init + 206
        0x08003384:    f5b17f80    ....    CMP      r1,#0x100
        0x08003388:    d07e        ~.      BEQ      0x8003488 ; LL_TIM_OC_Init + 300
        0x0800338a:    f000b983    ....    B.W      0x8003694 ; LL_TIM_OC_Init + 824
        0x0800338e:    f5b13f80    ...?    CMP      r1,#0x10000
        0x08003392:    f0008117    ....    BEQ.W    0x80035c4 ; LL_TIM_OC_Init + 616
        0x08003396:    f5b11f80    ....    CMP      r1,#0x100000
        0x0800339a:    f0008148    ..H.    BEQ.W    0x800362e ; LL_TIM_OC_Init + 722
        0x0800339e:    f000b979    ..y.    B.W      0x8003694 ; LL_TIM_OC_Init + 824
        0x080033a2:    6a01        .j      LDR      r1,[r0,#0x20]
        0x080033a4:    f0210101    !...    BIC      r1,r1,#1
        0x080033a8:    6201        .b      STR      r1,[r0,#0x20]
        0x080033aa:    6a01        .j      LDR      r1,[r0,#0x20]
        0x080033ac:    f8d08004    ....    LDR      r8,[r0,#4]
        0x080033b0:    f8d09018    ....    LDR      r9,[r0,#0x18]
        0x080033b4:    f8d2a000    ....    LDR      r10,[r2,#0]
        0x080033b8:    f0290973    ).s.    BIC      r9,r9,#0x73
        0x080033bc:    f4293980    )..9    BIC      r9,r9,#0x10000
        0x080033c0:    ea49090a    I...    ORR      r9,r9,r10
        0x080033c4:    f8d2a010    ....    LDR      r10,[r2,#0x10]
        0x080033c8:    f0210102    !...    BIC      r1,r1,#2
        0x080033cc:    ea41010a    A...    ORR      r1,r1,r10
        0x080033d0:    f8d2a004    ....    LDR      r10,[r2,#4]
        0x080033d4:    f0210101    !...    BIC      r1,r1,#1
        0x080033d8:    ea41010a    A...    ORR      r1,r1,r10
        0x080033dc:    4560        `E      CMP      r0,r12
        0x080033de:    bf18        ..      IT       NE
        0x080033e0:    42a0        .B      CMPNE    r0,r4
        0x080033e2:    d004        ..      BEQ      0x80033ee ; LL_TIM_OC_Init + 146
        0x080033e4:    42a8        .B      CMP      r0,r5
        0x080033e6:    bf1c        ..      ITT      NE
        0x080033e8:    42b0        .B      CMPNE    r0,r6
        0x080033ea:    42b8        .B      CMPNE    r0,r7
        0x080033ec:    d115        ..      BNE      0x800341a ; LL_TIM_OC_Init + 190
        0x080033ee:    f8d2c014    ....    LDR      r12,[r2,#0x14]
        0x080033f2:    f0210108    !...    BIC      r1,r1,#8
        0x080033f6:    ea41018c    A...    ORR      r1,r1,r12,LSL #2
        0x080033fa:    f8d2c008    ....    LDR      r12,[r2,#8]
        0x080033fe:    f0210104    !...    BIC      r1,r1,#4
        0x08003402:    ea41018c    A...    ORR      r1,r1,r12,LSL #2
        0x08003406:    6994        .i      LDR      r4,[r2,#0x18]
        0x08003408:    f4287c80    (..|    BIC      r12,r8,#0x100
        0x0800340c:    ea4c0c04    L...    ORR      r12,r12,r4
        0x08003410:    69d4        .i      LDR      r4,[r2,#0x1c]
        0x08003412:    f42c7c00    ,..|    BIC      r12,r12,#0x200
        0x08003416:    ea4c0844    L.D.    ORR      r8,r12,r4,LSL #1
        0x0800341a:    f8c08004    ....    STR      r8,[r0,#4]
        0x0800341e:    f8c09018    ....    STR      r9,[r0,#0x18]
        0x08003422:    68d2        .h      LDR      r2,[r2,#0xc]
        0x08003424:    6342        Bc      STR      r2,[r0,#0x34]
        0x08003426:    f000b933    ..3.    B.W      0x8003690 ; LL_TIM_OC_Init + 820
        0x0800342a:    6a01        .j      LDR      r1,[r0,#0x20]
        0x0800342c:    f0210110    !...    BIC      r1,r1,#0x10
        0x08003430:    6201        .b      STR      r1,[r0,#0x20]
        0x08003432:    f8d08020    .. .    LDR      r8,[r0,#0x20]
        0x08003436:    6841        Ah      LDR      r1,[r0,#4]
        0x08003438:    f8d09018    ....    LDR      r9,[r0,#0x18]
        0x0800343c:    f8d2a000    ....    LDR      r10,[r2,#0]
        0x08003440:    f42949e6    )..I    BIC      r9,r9,#0x7300
        0x08003444:    f0297980    )..y    BIC      r9,r9,#0x1000000
        0x08003448:    ea49290a    I..)    ORR      r9,r9,r10,LSL #8
        0x0800344c:    f8d2a010    ....    LDR      r10,[r2,#0x10]
        0x08003450:    f0280820    (. .    BIC      r8,r8,#0x20
        0x08003454:    ea48180a    H...    ORR      r8,r8,r10,LSL #4
        0x08003458:    f8d2a004    ....    LDR      r10,[r2,#4]
        0x0800345c:    f0280810    (...    BIC      r8,r8,#0x10
        0x08003460:    ea48180a    H...    ORR      r8,r8,r10,LSL #4
        0x08003464:    4560        `E      CMP      r0,r12
        0x08003466:    bf18        ..      IT       NE
        0x08003468:    42a0        .B      CMPNE    r0,r4
        0x0800346a:    d004        ..      BEQ      0x8003476 ; LL_TIM_OC_Init + 282
        0x0800346c:    42a8        .B      CMP      r0,r5
        0x0800346e:    bf1c        ..      ITT      NE
        0x08003470:    42b0        .B      CMPNE    r0,r6
        0x08003472:    42b8        .B      CMPNE    r0,r7
        0x08003474:    d117        ..      BNE      0x80034a6 ; LL_TIM_OC_Init + 330
        0x08003476:    6954        Ti      LDR      r4,[r2,#0x14]
        0x08003478:    f0280c80    (...    BIC      r12,r8,#0x80
        0x0800347c:    ea4c1c84    L...    ORR      r12,r12,r4,LSL #6
        0x08003480:    f02c0c40    ,.@.    BIC      r12,r12,#0x40
        0x08003484:    6894        .h      LDR      r4,[r2,#8]
        0x08003486:    e000        ..      B        0x800348a ; LL_TIM_OC_Init + 302
        0x08003488:    e013        ..      B        0x80034b2 ; LL_TIM_OC_Init + 342
        0x0800348a:    ea4c1884    L...    ORR      r8,r12,r4,LSL #6
        0x0800348e:    f8d2c018    ....    LDR      r12,[r2,#0x18]
        0x08003492:    f4216180    !..a    BIC      r1,r1,#0x400
        0x08003496:    ea41018c    A...    ORR      r1,r1,r12,LSL #2
        0x0800349a:    f8d2c01c    ....    LDR      r12,[r2,#0x1c]
        0x0800349e:    f4216100    !..a    BIC      r1,r1,#0x800
        0x080034a2:    ea4101cc    A...    ORR      r1,r1,r12,LSL #3
        0x080034a6:    6041        A`      STR      r1,[r0,#4]
        0x080034a8:    f8c09018    ....    STR      r9,[r0,#0x18]
        0x080034ac:    68d1        .h      LDR      r1,[r2,#0xc]
        0x080034ae:    6381        .c      STR      r1,[r0,#0x38]
        0x080034b0:    e040        @.      B        0x8003534 ; LL_TIM_OC_Init + 472
        0x080034b2:    6a01        .j      LDR      r1,[r0,#0x20]
        0x080034b4:    f4217180    !..q    BIC      r1,r1,#0x100
        0x080034b8:    6201        .b      STR      r1,[r0,#0x20]
        0x080034ba:    f8d08020    .. .    LDR      r8,[r0,#0x20]
        0x080034be:    6841        Ah      LDR      r1,[r0,#4]
        0x080034c0:    f8d0901c    ....    LDR      r9,[r0,#0x1c]
        0x080034c4:    f8d2a000    ....    LDR      r10,[r2,#0]
        0x080034c8:    f0290973    ).s.    BIC      r9,r9,#0x73
        0x080034cc:    f4293980    )..9    BIC      r9,r9,#0x10000
        0x080034d0:    ea49090a    I...    ORR      r9,r9,r10
        0x080034d4:    f8d2a010    ....    LDR      r10,[r2,#0x10]
        0x080034d8:    f4287800    (..x    BIC      r8,r8,#0x200
        0x080034dc:    ea48280a    H..(    ORR      r8,r8,r10,LSL #8
        0x080034e0:    f8d2a004    ....    LDR      r10,[r2,#4]
        0x080034e4:    f4287880    (..x    BIC      r8,r8,#0x100
        0x080034e8:    ea48280a    H..(    ORR      r8,r8,r10,LSL #8
        0x080034ec:    4560        `E      CMP      r0,r12
        0x080034ee:    bf18        ..      IT       NE
        0x080034f0:    42a0        .B      CMPNE    r0,r4
        0x080034f2:    d004        ..      BEQ      0x80034fe ; LL_TIM_OC_Init + 418
        0x080034f4:    42a8        .B      CMP      r0,r5
        0x080034f6:    bf1c        ..      ITT      NE
        0x080034f8:    42b0        .B      CMPNE    r0,r6
        0x080034fa:    42b8        .B      CMPNE    r0,r7
        0x080034fc:    d115        ..      BNE      0x800352a ; LL_TIM_OC_Init + 462
        0x080034fe:    6954        Ti      LDR      r4,[r2,#0x14]
        0x08003500:    f4286c00    (..l    BIC      r12,r8,#0x800
        0x08003504:    ea4c2c84    L..,    ORR      r12,r12,r4,LSL #10
        0x08003508:    6894        .h      LDR      r4,[r2,#8]
        0x0800350a:    f42c6c80    ,..l    BIC      r12,r12,#0x400
        0x0800350e:    ea4c2884    L..(    ORR      r8,r12,r4,LSL #10
        0x08003512:    f8d2c018    ....    LDR      r12,[r2,#0x18]
        0x08003516:    f4215180    !..Q    BIC      r1,r1,#0x1000
        0x0800351a:    ea41110c    A...    ORR      r1,r1,r12,LSL #4
        0x0800351e:    f8d2c01c    ....    LDR      r12,[r2,#0x1c]
        0x08003522:    f4215100    !..Q    BIC      r1,r1,#0x2000
        0x08003526:    ea41114c    A.L.    ORR      r1,r1,r12,LSL #5
        0x0800352a:    6041        A`      STR      r1,[r0,#4]
        0x0800352c:    f8c0901c    ....    STR      r9,[r0,#0x1c]
        0x08003530:    68d1        .h      LDR      r1,[r2,#0xc]
        0x08003532:    63c1        .c      STR      r1,[r0,#0x3c]
        0x08003534:    f8c08020    .. .    STR      r8,[r0,#0x20]
        0x08003538:    e0ab        ..      B        0x8003692 ; LL_TIM_OC_Init + 822
        0x0800353a:    6a01        .j      LDR      r1,[r0,#0x20]
        0x0800353c:    f4215180    !..Q    BIC      r1,r1,#0x1000
        0x08003540:    6201        .b      STR      r1,[r0,#0x20]
        0x08003542:    f8d08020    .. .    LDR      r8,[r0,#0x20]
        0x08003546:    6841        Ah      LDR      r1,[r0,#4]
        0x08003548:    f8d0901c    ....    LDR      r9,[r0,#0x1c]
        0x0800354c:    f8d2a000    ....    LDR      r10,[r2,#0]
        0x08003550:    f42949e6    )..I    BIC      r9,r9,#0x7300
        0x08003554:    f0297980    )..y    BIC      r9,r9,#0x1000000
        0x08003558:    ea49290a    I..)    ORR      r9,r9,r10,LSL #8
        0x0800355c:    f8d2a010    ....    LDR      r10,[r2,#0x10]
        0x08003560:    f4285800    (..X    BIC      r8,r8,#0x2000
        0x08003564:    ea48380a    H..8    ORR      r8,r8,r10,LSL #12
        0x08003568:    f8d2a004    ....    LDR      r10,[r2,#4]
        0x0800356c:    f4285880    (..X    BIC      r8,r8,#0x1000
        0x08003570:    ea48380a    H..8    ORR      r8,r8,r10,LSL #12
        0x08003574:    4560        `E      CMP      r0,r12
        0x08003576:    bf18        ..      IT       NE
        0x08003578:    42a0        .B      CMPNE    r0,r4
        0x0800357a:    d004        ..      BEQ      0x8003586 ; LL_TIM_OC_Init + 554
        0x0800357c:    42a8        .B      CMP      r0,r5
        0x0800357e:    bf1c        ..      ITT      NE
        0x08003580:    42b0        .B      CMPNE    r0,r6
        0x08003582:    42b8        .B      CMPNE    r0,r7
        0x08003584:    d115        ..      BNE      0x80035b2 ; LL_TIM_OC_Init + 598
        0x08003586:    6954        Ti      LDR      r4,[r2,#0x14]
        0x08003588:    f4284c00    (..L    BIC      r12,r8,#0x8000
        0x0800358c:    ea4c3c84    L..<    ORR      r12,r12,r4,LSL #14
        0x08003590:    6894        .h      LDR      r4,[r2,#8]
        0x08003592:    f42c4c80    ,..L    BIC      r12,r12,#0x4000
        0x08003596:    ea4c3884    L..8    ORR      r8,r12,r4,LSL #14
        0x0800359a:    f8d2c018    ....    LDR      r12,[r2,#0x18]
        0x0800359e:    f4214180    !..A    BIC      r1,r1,#0x4000
        0x080035a2:    ea41118c    A...    ORR      r1,r1,r12,LSL #6
        0x080035a6:    f8d2c01c    ....    LDR      r12,[r2,#0x1c]
        0x080035aa:    f4214100    !..A    BIC      r1,r1,#0x8000
        0x080035ae:    ea4111cc    A...    ORR      r1,r1,r12,LSL #7
        0x080035b2:    6041        A`      STR      r1,[r0,#4]
        0x080035b4:    f8c0901c    ....    STR      r9,[r0,#0x1c]
        0x080035b8:    68d1        .h      LDR      r1,[r2,#0xc]
        0x080035ba:    6401        .d      STR      r1,[r0,#0x40]
        0x080035bc:    f8c08020    .. .    STR      r8,[r0,#0x20]
        0x080035c0:    4698        .F      MOV      r8,r3
        0x080035c2:    e067        g.      B        0x8003694 ; LL_TIM_OC_Init + 824
        0x080035c4:    6a01        .j      LDR      r1,[r0,#0x20]
        0x080035c6:    f4213180    !..1    BIC      r1,r1,#0x10000
        0x080035ca:    6201        .b      STR      r1,[r0,#0x20]
        0x080035cc:    f8d08020    .. .    LDR      r8,[r0,#0x20]
        0x080035d0:    6d01        .m      LDR      r1,[r0,#0x50]
        0x080035d2:    f8d29000    ....    LDR      r9,[r2,#0]
        0x080035d6:    f0210170    !.p.    BIC      r1,r1,#0x70
        0x080035da:    f4213180    !..1    BIC      r1,r1,#0x10000
        0x080035de:    ea410109    A...    ORR      r1,r1,r9
        0x080035e2:    f8b29010    ....    LDRH     r9,[r2,#0x10]
        0x080035e6:    f4283800    (..8    BIC      r8,r8,#0x20000
        0x080035ea:    ea484809    H..H    ORR      r8,r8,r9,LSL #16
        0x080035ee:    f8b29004    ....    LDRH     r9,[r2,#4]
        0x080035f2:    f4283880    (..8    BIC      r8,r8,#0x10000
        0x080035f6:    ea484809    H..H    ORR      r8,r8,r9,LSL #16
        0x080035fa:    4560        `E      CMP      r0,r12
        0x080035fc:    bf18        ..      IT       NE
        0x080035fe:    42a0        .B      CMPNE    r0,r4
        0x08003600:    d004        ..      BEQ      0x800360c ; LL_TIM_OC_Init + 688
        0x08003602:    42a8        .B      CMP      r0,r5
        0x08003604:    bf1c        ..      ITT      NE
        0x08003606:    42b0        .B      CMPNE    r0,r6
        0x08003608:    42b8        .B      CMPNE    r0,r7
        0x0800360a:    d108        ..      BNE      0x800361e ; LL_TIM_OC_Init + 706
        0x0800360c:    f8d0c004    ....    LDR      r12,[r0,#4]
        0x08003610:    6994        .i      LDR      r4,[r2,#0x18]
        0x08003612:    f42c3c80    ,..<    BIC      r12,r12,#0x10000
        0x08003616:    ea4c2c04    L..,    ORR      r12,r12,r4,LSL #8
        0x0800361a:    f8c0c004    ....    STR      r12,[r0,#4]
        0x0800361e:    6501        .e      STR      r1,[r0,#0x50]
        0x08003620:    68d1        .h      LDR      r1,[r2,#0xc]
        0x08003622:    6c82        .l      LDR      r2,[r0,#0x48]
        0x08003624:    6481        .d      STR      r1,[r0,#0x48]
        0x08003626:    f8c08020    .. .    STR      r8,[r0,#0x20]
        0x0800362a:    4698        .F      MOV      r8,r3
        0x0800362c:    e032        2.      B        0x8003694 ; LL_TIM_OC_Init + 824
        0x0800362e:    6a01        .j      LDR      r1,[r0,#0x20]
        0x08003630:    f4211180    !...    BIC      r1,r1,#0x100000
        0x08003634:    6201        .b      STR      r1,[r0,#0x20]
        0x08003636:    6a01        .j      LDR      r1,[r0,#0x20]
        0x08003638:    f8d08050    ..P.    LDR      r8,[r0,#0x50]
        0x0800363c:    f8d29000    ....    LDR      r9,[r2,#0]
        0x08003640:    f42848e0    (..H    BIC      r8,r8,#0x7000
        0x08003644:    f0287880    (..x    BIC      r8,r8,#0x1000000
        0x08003648:    ea482809    H..(    ORR      r8,r8,r9,LSL #8
        0x0800364c:    f8b29010    ....    LDRH     r9,[r2,#0x10]
        0x08003650:    f4211100    !...    BIC      r1,r1,#0x200000
        0x08003654:    ea415109    A..Q    ORR      r1,r1,r9,LSL #20
        0x08003658:    f8b29004    ....    LDRH     r9,[r2,#4]
        0x0800365c:    f4211180    !...    BIC      r1,r1,#0x100000
        0x08003660:    ea415109    A..Q    ORR      r1,r1,r9,LSL #20
        0x08003664:    4560        `E      CMP      r0,r12
        0x08003666:    bf18        ..      IT       NE
        0x08003668:    42a0        .B      CMPNE    r0,r4
        0x0800366a:    d004        ..      BEQ      0x8003676 ; LL_TIM_OC_Init + 794
        0x0800366c:    42a8        .B      CMP      r0,r5
        0x0800366e:    bf1c        ..      ITT      NE
        0x08003670:    42b0        .B      CMPNE    r0,r6
        0x08003672:    42b8        .B      CMPNE    r0,r7
        0x08003674:    d108        ..      BNE      0x8003688 ; LL_TIM_OC_Init + 812
        0x08003676:    f8d0c004    ....    LDR      r12,[r0,#4]
        0x0800367a:    6994        .i      LDR      r4,[r2,#0x18]
        0x0800367c:    f42c2c80    ,..,    BIC      r12,r12,#0x40000
        0x08003680:    ea4c2c84    L..,    ORR      r12,r12,r4,LSL #10
        0x08003684:    f8c0c004    ....    STR      r12,[r0,#4]
        0x08003688:    f8c08050    ..P.    STR      r8,[r0,#0x50]
        0x0800368c:    68d2        .h      LDR      r2,[r2,#0xc]
        0x0800368e:    64c2        .d      STR      r2,[r0,#0x4c]
        0x08003690:    6201        .b      STR      r1,[r0,#0x20]
        0x08003692:    4698        .F      MOV      r8,r3
        0x08003694:    4640        @F      MOV      r0,r8
        0x08003696:    e8bd07f0    ....    POP      {r4-r10}
        0x0800369a:    4770        pG      BX       lr
    $d
        0x0800369c:    40012c00    .,.@    DCD    1073818624
        0x080036a0:    40013400    .4.@    DCD    1073820672
        0x080036a4:    40014000    .@.@    DCD    1073823744
        0x080036a8:    40014400    .D.@    DCD    1073824768
        0x080036ac:    40014800    .H.@    DCD    1073825792
    $t
    i.LL_USART_Init
    LL_USART_Init
        0x080036b0:    b570        p.      PUSH     {r4-r6,lr}
        0x080036b2:    4604        .F      MOV      r4,r0
        0x080036b4:    6800        .h      LDR      r0,[r0,#0]
        0x080036b6:    460d        .F      MOV      r5,r1
        0x080036b8:    2601        .&      MOVS     r6,#1
        0x080036ba:    f0100f01    ....    TST      r0,#1
        0x080036be:    d15c        \.      BNE      0x800377a ; LL_USART_Init + 202
        0x080036c0:    6929        )i      LDR      r1,[r5,#0x10]
        0x080036c2:    68a8        .h      LDR      r0,[r5,#8]
        0x080036c4:    69ea        .i      LDR      r2,[r5,#0x1c]
        0x080036c6:    4308        .C      ORRS     r0,r0,r1
        0x080036c8:    6969        ii      LDR      r1,[r5,#0x14]
        0x080036ca:    4311        .C      ORRS     r1,r1,r2
        0x080036cc:    4308        .C      ORRS     r0,r0,r1
        0x080036ce:    6821        !h      LDR      r1,[r4,#0]
        0x080036d0:    4a31        1J      LDR      r2,[pc,#196] ; [0x8003798] = 0xefff69f3
        0x080036d2:    4011        .@      ANDS     r1,r1,r2
        0x080036d4:    4308        .C      ORRS     r0,r0,r1
        0x080036d6:    6020         `      STR      r0,[r4,#0]
        0x080036d8:    68e8        .h      LDR      r0,[r5,#0xc]
        0x080036da:    6861        ah      LDR      r1,[r4,#4]
        0x080036dc:    f4215140    !.@Q    BIC      r1,r1,#0x3000
        0x080036e0:    4308        .C      ORRS     r0,r0,r1
        0x080036e2:    6060        ``      STR      r0,[r4,#4]
        0x080036e4:    69a8        .i      LDR      r0,[r5,#0x18]
        0x080036e6:    68a1        .h      LDR      r1,[r4,#8]
        0x080036e8:    f4217140    !.@q    BIC      r1,r1,#0x300
        0x080036ec:    4308        .C      ORRS     r0,r0,r1
        0x080036ee:    60a0        .`      STR      r0,[r4,#8]
        0x080036f0:    f1a44080    ...@    SUB      r0,r4,#0x40000000
        0x080036f4:    f5b0309c    ...0    SUBS     r0,r0,#0x13800
        0x080036f8:    d013        ..      BEQ      0x8003722 ; LL_USART_Init + 114
        0x080036fa:    f1a44080    ...@    SUB      r0,r4,#0x40000000
        0x080036fe:    f5b04088    ...@    SUBS     r0,r0,#0x4400
        0x08003702:    bf08        ..      IT       EQ
        0x08003704:    200c        .       MOVEQ    r0,#0xc
        0x08003706:    d010        ..      BEQ      0x800372a ; LL_USART_Init + 122
        0x08003708:    f1a44080    ...@    SUB      r0,r4,#0x40000000
        0x0800370c:    f5b04090    ...@    SUBS     r0,r0,#0x4800
        0x08003710:    bf08        ..      IT       EQ
        0x08003712:    2030        0       MOVEQ    r0,#0x30
        0x08003714:    d009        ..      BEQ      0x800372a ; LL_USART_Init + 122
        0x08003716:    f1a44080    ...@    SUB      r0,r4,#0x40000000
        0x0800371a:    f5b04098    ...@    SUBS     r0,r0,#0x4c00
        0x0800371e:    d007        ..      BEQ      0x8003730 ; LL_USART_Init + 128
        0x08003720:    e024        $.      B        0x800376c ; LL_USART_Init + 188
        0x08003722:    2003        .       MOVS     r0,#3
        0x08003724:    f7fffcae    ....    BL       LL_RCC_GetUSARTClockFreq ; 0x8003084
        0x08003728:    e005        ..      B        0x8003736 ; LL_USART_Init + 134
        0x0800372a:    f7fffcab    ....    BL       LL_RCC_GetUSARTClockFreq ; 0x8003084
        0x0800372e:    e002        ..      B        0x8003736 ; LL_USART_Init + 134
        0x08003730:    20c0        .       MOVS     r0,#0xc0
        0x08003732:    f7fffc63    ..c.    BL       LL_RCC_GetUARTClockFreq ; 0x8002ffc
        0x08003736:    2800        .(      CMP      r0,#0
        0x08003738:    bf1c        ..      ITT      NE
        0x0800373a:    6869        ih      LDRNE    r1,[r5,#4]
        0x0800373c:    2900        .)      CMPNE    r1,#0
        0x0800373e:    d015        ..      BEQ      0x800376c ; LL_USART_Init + 188
        0x08003740:    682a        *h      LDR      r2,[r5,#0]
        0x08003742:    69eb        .i      LDR      r3,[r5,#0x1c]
        0x08003744:    f04f0600    O...    MOV      r6,#0
        0x08003748:    2a0b        .*      CMP      r2,#0xb
        0x0800374a:    d80f        ..      BHI      0x800376c ; LL_USART_Init + 188
        0x0800374c:    f8dfc04c    ..L.    LDR      r12,[pc,#76] ; [0x800379c] = 0x8008e2c
        0x08003750:    b2d2        ..      UXTB     r2,r2
        0x08003752:    f5b34f00    ...O    CMP      r3,#0x8000
        0x08003756:    f85c2022    \."     LDR      r2,[r12,r2,LSL #2]
        0x0800375a:    fbb0f0f2    ....    UDIV     r0,r0,r2
        0x0800375e:    d00e        ..      BEQ      0x800377e ; LL_USART_Init + 206
        0x08003760:    eb000051    ..Q.    ADD      r0,r0,r1,LSR #1
        0x08003764:    fbb0f0f1    ....    UDIV     r0,r0,r1
        0x08003768:    b280        ..      UXTH     r0,r0
        0x0800376a:    60e0        .`      STR      r0,[r4,#0xc]
        0x0800376c:    8828        (.      LDRH     r0,[r5,#0]
        0x0800376e:    6ae1        .j      LDR      r1,[r4,#0x2c]
        0x08003770:    b280        ..      UXTH     r0,r0
        0x08003772:    f021010f    !...    BIC      r1,r1,#0xf
        0x08003776:    4308        .C      ORRS     r0,r0,r1
        0x08003778:    62e0        .b      STR      r0,[r4,#0x2c]
        0x0800377a:    4630        0F      MOV      r0,r6
        0x0800377c:    bd70        p.      POP      {r4-r6,pc}
        0x0800377e:    0040        @.      LSLS     r0,r0,#1
        0x08003780:    eb000051    ..Q.    ADD      r0,r0,r1,LSR #1
        0x08003784:    fbb0f0f1    ....    UDIV     r0,r0,r1
        0x08003788:    b280        ..      UXTH     r0,r0
        0x0800378a:    f64f71f0    O..q    MOV      r1,#0xfff0
        0x0800378e:    4001        .@      ANDS     r1,r1,r0
        0x08003790:    f3c00042    ..B.    UBFX     r0,r0,#1,#3
        0x08003794:    4308        .C      ORRS     r0,r0,r1
        0x08003796:    e7e8        ..      B        0x800376a ; LL_USART_Init + 186
    $d
        0x08003798:    efff69f3    .i..    DCD    4026493427
        0x0800379c:    08008e2c    ,...    DCD    134254124
    $t
    i.LPF_2stOrder_1in_1out_Calculate
    LPF_2stOrder_1in_1out_Calculate
        0x080037a0:    eef00a40    ..@.    VMOV.F32 s1,s0
        0x080037a4:    ed900a00    ....    VLDR     s0,[r0,#0]
        0x080037a8:    ed901a04    ....    VLDR     s2,[r0,#0x10]
        0x080037ac:    edd01a01    ....    VLDR     s3,[r0,#4]
        0x080037b0:    ed902a05    ...*    VLDR     s4,[r0,#0x14]
        0x080037b4:    ee200a01     ...    VMUL.F32 s0,s0,s2
        0x080037b8:    ee010a82    ....    VMLA.F32 s0,s3,s4
        0x080037bc:    edd01a02    ....    VLDR     s3,[r0,#8]
        0x080037c0:    ed902a06    ...*    VLDR     s4,[r0,#0x18]
        0x080037c4:    ee010aa0    ....    VMLA.F32 s0,s3,s1
        0x080037c8:    edd01a03    ....    VLDR     s3,[r0,#0xc]
        0x080037cc:    ed801a05    ....    VSTR     s2,[r0,#0x14]
        0x080037d0:    ee010a82    ....    VMLA.F32 s0,s3,s4
        0x080037d4:    ed800a04    ....    VSTR     s0,[r0,#0x10]
        0x080037d8:    edc00a06    ....    VSTR     s1,[r0,#0x18]
        0x080037dc:    4770        pG      BX       lr
        0x080037de:    0000        ..      MOVS     r0,r0
    i.LPF_2stOrder_1in_1out_SetPar
    LPF_2stOrder_1in_1out_SetPar
        0x080037e0:    ec800a04    ....    VSTM     r0,{s0-s3}
        0x080037e4:    ed9f0a04    ....    VLDR     s0,[pc,#16] ; [0x80037f8] = 0
        0x080037e8:    ed800a06    ....    VSTR     s0,[r0,#0x18]
        0x080037ec:    ed800a05    ....    VSTR     s0,[r0,#0x14]
        0x080037f0:    ed800a04    ....    VSTR     s0,[r0,#0x10]
        0x080037f4:    4770        pG      BX       lr
    $d
        0x080037f6:    0000        ..      DCW    0
        0x080037f8:    00000000    ....    DCD    0
    $t
    i.MCParIdentify_Rs_Ls
    MCParIdentify_Rs_Ls
        0x080037fc:    e92d41f0    -..A    PUSH     {r4-r8,lr}
        0x08003800:    4d92        .M      LDR      r5,[pc,#584] ; [0x8003a4c] = 0x20000008
        0x08003802:    4604        .F      MOV      r4,r0
        0x08003804:    ed2d8b04    -...    VPUSH    {d8-d9}
        0x08003808:    edd58a00    ....    VLDR     s17,[r5,#0]
        0x0800380c:    eddf0a90    ....    VLDR     s1,[pc,#576] ; [0x8003a50] = 0x3ffa1cac
        0x08003810:    ed951a01    ....    VLDR     s2,[r5,#4]
        0x08003814:    ee680aa0    h...    VMUL.F32 s1,s17,s1
        0x08003818:    eddf1a8e    ....    VLDR     s3,[pc,#568] ; [0x8003a54] = 0x3f7816f0
        0x0800381c:    ee410a61    A.a.    VMLS.F32 s1,s2,s3
        0x08003820:    ed9f1a8d    ....    VLDR     s2,[pc,#564] ; [0x8003a58] = 0x3cfcb924
        0x08003824:    edd51a02    ....    VLDR     s3,[r5,#8]
        0x08003828:    edc58a01    ....    VSTR     s17,[r5,#4]
        0x0800382c:    ee400a01    @...    VMLA.F32 s1,s0,s2
        0x08003830:    ee410ac1    A...    VMLS.F32 s1,s3,s2
        0x08003834:    edc50a00    ....    VSTR     s1,[r5,#0]
        0x08003838:    ed850a02    ....    VSTR     s0,[r5,#8]
        0x0800383c:    ed900a02    ....    VLDR     s0,[r0,#8]
        0x08003840:    edd00a00    ....    VLDR     s1,[r0,#0]
        0x08003844:    ed9f8a85    ....    VLDR     s16,[pc,#532] ; [0x8003a5c] = 0x40c90fdb
        0x08003848:    4885        .H      LDR      r0,[pc,#532] ; [0x8003a60] = 0x20000060
        0x0800384a:    4f86        .O      LDR      r7,[pc,#536] ; [0x8003a64] = 0x40490fdb
        0x0800384c:    ee600a88    `...    VMUL.F32 s1,s1,s16
        0x08003850:    6800        .h      LDR      r0,[r0,#0]
        0x08003852:    f8df8214    ....    LDR      r8,[pc,#532] ; [0x8003a68] = 0xc0490fdb
        0x08003856:    ed901a06    ....    VLDR     s2,[r0,#0x18]
        0x0800385a:    ee000a81    ....    VMLA.F32 s0,s1,s2
        0x0800385e:    ee100a10    ....    VMOV     r0,s0
        0x08003862:    ed840a02    ....    VSTR     s0,[r4,#8]
        0x08003866:    42b8        .B      CMP      r0,r7
        0x08003868:    bfc8        ..      IT       GT
        0x0800386a:    ee300a48    0.H.    VSUBGT.F32 s0,s0,s16
        0x0800386e:    dc06        ..      BGT      0x800387e ; MCParIdentify_Rs_Ls + 130
        0x08003870:    ee100a10    ....    VMOV     r0,s0
        0x08003874:    4540        @E      CMP      r0,r8
        0x08003876:    bf88        ..      IT       HI
        0x08003878:    ee300a08    0...    VADDHI.F32 s0,s0,s16
        0x0800387c:    d901        ..      BLS      0x8003882 ; MCParIdentify_Rs_Ls + 134
        0x0800387e:    ed840a02    ....    VSTR     s0,[r4,#8]
        0x08003882:    edd40a04    ....    VLDR     s1,[r4,#0x10]
        0x08003886:    ee300a20    0. .    VADD.F32 s0,s0,s1
        0x0800388a:    ee100a10    ....    VMOV     r0,s0
        0x0800388e:    42b8        .B      CMP      r0,r7
        0x08003890:    bfc8        ..      IT       GT
        0x08003892:    ee300a48    0.H.    VSUBGT.F32 s0,s0,s16
        0x08003896:    dc05        ..      BGT      0x80038a4 ; MCParIdentify_Rs_Ls + 168
        0x08003898:    ee100a10    ....    VMOV     r0,s0
        0x0800389c:    4540        @E      CMP      r0,r8
        0x0800389e:    bf88        ..      IT       HI
        0x080038a0:    ee300a08    0...    VADDHI.F32 s0,s0,s16
        0x080038a4:    f7fcfed8    ....    BL       CalculateSinCosValue ; 0x8000658
        0x080038a8:    ed941a03    ....    VLDR     s2,[r4,#0xc]
        0x080038ac:    486f        oH      LDR      r0,[pc,#444] ; [0x8003a6c] = 0x20000020
        0x080038ae:    ee210a00    !...    VMUL.F32 s0,s2,s0
        0x080038b2:    ee610a20    a. .    VMUL.F32 s1,s2,s1
        0x080038b6:    ed840a05    ....    VSTR     s0,[r4,#0x14]
        0x080038ba:    edc40a06    ....    VSTR     s1,[r4,#0x18]
        0x080038be:    ee200a28     .(.    VMUL.F32 s0,s0,s17
        0x080038c2:    ee600aa8    `...    VMUL.F32 s1,s1,s17
        0x080038c6:    ed840a07    ....    VSTR     s0,[r4,#0x1c]
        0x080038ca:    edc40a08    ....    VSTR     s1,[r4,#0x20]
        0x080038ce:    ed900a00    ....    VLDR     s0,[r0,#0]
        0x080038d2:    eddf2a67    ..g*    VLDR     s5,[pc,#412] ; [0x8003a70] = 0x3ffa5e35
        0x080038d6:    f1000108    ....    ADD      r1,r0,#8
        0x080038da:    ee200a22     .".    VMUL.F32 s0,s0,s5
        0x080038de:    edd10a00    ....    VLDR     s1,[r1,#0]
        0x080038e2:    eddf1a64    ..d.    VLDR     s3,[pc,#400] ; [0x8003a74] = 0x3f74dd2f
        0x080038e6:    f1000210    ....    ADD      r2,r0,#0x10
        0x080038ea:    ee000ae1    ....    VMLS.F32 s0,s1,s3
        0x080038ee:    edd20a00    ....    VLDR     s1,[r2,#0]
        0x080038f2:    ed9f2a61    ..a*    VLDR     s4,[pc,#388] ; [0x8003a78] = 0x39fee8a9
        0x080038f6:    ee000a82    ....    VMLA.F32 s0,s1,s4
        0x080038fa:    edd40a07    ....    VLDR     s1,[r4,#0x1c]
        0x080038fe:    ed9f1a5f    .._.    VLDR     s2,[pc,#380] ; [0x8003a7c] = 0x39fb2fb7
        0x08003902:    f1a00308    ....    SUB      r3,r0,#8
        0x08003906:    f1000618    ....    ADD      r6,r0,#0x18
        0x0800390a:    eeb79a00    ....    VMOV.F32 s18,#1.00000000
        0x0800390e:    ee000a81    ....    VMLA.F32 s0,s1,s2
        0x08003912:    ed830a00    ....    VSTR     s0,[r3,#0]
        0x08003916:    edc20a00    ....    VSTR     s1,[r2,#0]
        0x0800391a:    ed800a00    ....    VSTR     s0,[r0,#0]
        0x0800391e:    ed810a00    ....    VSTR     s0,[r1,#0]
        0x08003922:    edd00a01    ....    VLDR     s1,[r0,#4]
        0x08003926:    ee600aa2    `...    VMUL.F32 s1,s1,s5
        0x0800392a:    edd12a01    ...*    VLDR     s5,[r1,#4]
        0x0800392e:    ee420ae1    B...    VMLS.F32 s1,s5,s3
        0x08003932:    edd21a01    ....    VLDR     s3,[r2,#4]
        0x08003936:    ee410a82    A...    VMLA.F32 s1,s3,s4
        0x0800393a:    edd41a08    ....    VLDR     s3,[r4,#0x20]
        0x0800393e:    ee410a81    A...    VMLA.F32 s1,s3,s2
        0x08003942:    edc30a01    ....    VSTR     s1,[r3,#4]
        0x08003946:    edc21a01    ....    VSTR     s3,[r2,#4]
        0x0800394a:    edc00a01    ....    VSTR     s1,[r0,#4]
        0x0800394e:    edc10a01    ....    VSTR     s1,[r1,#4]
        0x08003952:    ed840a09    ....    VSTR     s0,[r4,#0x24]
        0x08003956:    edc40a0a    ....    VSTR     s1,[r4,#0x28]
        0x0800395a:    ed961a00    ....    VLDR     s2,[r6,#0]
        0x0800395e:    ee001a00    ....    VMLA.F32 s2,s0,s0
        0x08003962:    ed861a00    ....    VSTR     s2,[r6,#0]
        0x08003966:    ed960a01    ....    VLDR     s0,[r6,#4]
        0x0800396a:    ee000aa0    ....    VMLA.F32 s0,s1,s1
        0x0800396e:    ed860a01    ....    VSTR     s0,[r6,#4]
        0x08003972:    ed950a03    ....    VLDR     s0,[r5,#0xc]
        0x08003976:    ee700a09    p...    VADD.F32 s1,s0,s18
        0x0800397a:    ee810a20    .. .    VDIV.F32 s0,s2,s1
        0x0800397e:    f7fdfeed    ....    BL       FastSquareRoot ; 0x800175c
        0x08003982:    eef08a40    ..@.    VMOV.F32 s17,s0
        0x08003986:    ed950a03    ....    VLDR     s0,[r5,#0xc]
        0x0800398a:    edd60a01    ....    VLDR     s1,[r6,#4]
        0x0800398e:    ee301a09    0...    VADD.F32 s2,s0,s18
        0x08003992:    ee800a81    ....    VDIV.F32 s0,s1,s2
        0x08003996:    f7fdfee1    ....    BL       FastSquareRoot ; 0x800175c
        0x0800399a:    eef00a40    ..@.    VMOV.F32 s1,s0
        0x0800399e:    ed950a03    ....    VLDR     s0,[r5,#0xc]
        0x080039a2:    ee300a09    0...    VADD.F32 s0,s0,s18
        0x080039a6:    ed850a03    ....    VSTR     s0,[r5,#0xc]
        0x080039aa:    ee280aa8    (...    VMUL.F32 s0,s17,s17
        0x080039ae:    edc48a0b    ....    VSTR     s17,[r4,#0x2c]
        0x080039b2:    edc40a0c    ....    VSTR     s1,[r4,#0x30]
        0x080039b6:    ee000aa0    ....    VMLA.F32 s0,s1,s1
        0x080039ba:    f7fdfecf    ....    BL       FastSquareRoot ; 0x800175c
        0x080039be:    eef00a00    ....    VMOV.F32 s1,#2.00000000
        0x080039c2:    ee608a20    `. .    VMUL.F32 s17,s0,s1
        0x080039c6:    edd40a0b    ....    VLDR     s1,[r4,#0x2c]
        0x080039ca:    ed940a0c    ....    VLDR     s0,[r4,#0x30]
        0x080039ce:    f003fa75    ..u.    BL       atan2Rad ; 0x8006ebc
        0x080039d2:    edd40a01    ....    VLDR     s1,[r4,#4]
        0x080039d6:    ed9f1a2a    ..*.    VLDR     s2,[pc,#168] ; [0x8003a80] = 0x3fa2f1aa
        0x080039da:    492b        +I      LDR      r1,[pc,#172] ; [0x8003a88] = 0x41200000
        0x080039dc:    ee600a81    `...    VMUL.F32 s1,s1,s2
        0x080039e0:    ee801aa8    ....    VDIV.F32 s2,s1,s17
        0x080039e4:    eddf0a27    ..'.    VLDR     s1,[pc,#156] ; [0x8003a84] = 0x3fd06823
        0x080039e8:    ee618a20    a. .    VMUL.F32 s17,s2,s1
        0x080039ec:    ee180a90    ....    VMOV     r0,s17
        0x080039f0:    4288        .B      CMP      r0,r1
        0x080039f2:    bfc8        ..      IT       GT
        0x080039f4:    eddf8a25    ..%.    VLDRGT   s17,[pc,#148] ; [0x8003a8c] = 0
        0x080039f8:    eeb10a40    ..@.    VNEG.F32 s0,s0
        0x080039fc:    ee100a10    ....    VMOV     r0,s0
        0x08003a00:    42b8        .B      CMP      r0,r7
        0x08003a02:    bfc8        ..      IT       GT
        0x08003a04:    ee300a48    0.H.    VSUBGT.F32 s0,s0,s16
        0x08003a08:    dc05        ..      BGT      0x8003a16 ; MCParIdentify_Rs_Ls + 538
        0x08003a0a:    ee100a10    ....    VMOV     r0,s0
        0x08003a0e:    4540        @E      CMP      r0,r8
        0x08003a10:    bf88        ..      IT       HI
        0x08003a12:    ee300a08    0...    VADDHI.F32 s0,s0,s16
        0x08003a16:    f7fcfe1f    ....    BL       CalculateSinCosValue ; 0x8000658
        0x08003a1a:    ee600aa8    `...    VMUL.F32 s1,s1,s17
        0x08003a1e:    ee200a28     .(.    VMUL.F32 s0,s0,s17
        0x08003a22:    ed9f1a1b    ....    VLDR     s2,[pc,#108] ; [0x8003a90] = 0x40490fdb
        0x08003a26:    edc40a0f    ....    VSTR     s1,[r4,#0x3c]
        0x08003a2a:    eefe0a00    ....    VMOV.F32 s1,#-0.50000000
        0x08003a2e:    ee600a20    `. .    VMUL.F32 s1,s0,s1
        0x08003a32:    ee800a81    ....    VDIV.F32 s0,s1,s2
        0x08003a36:    edd40a00    ....    VLDR     s1,[r4,#0]
        0x08003a3a:    ee801a20    .. .    VDIV.F32 s2,s0,s1
        0x08003a3e:    ed841a10    ....    VSTR     s2,[r4,#0x40]
        0x08003a42:    ecbd8b04    ....    VPOP     {d8-d9}
        0x08003a46:    e8bd81f0    ....    POP      {r4-r8,pc}
    $d
        0x08003a4a:    0000        ..      DCW    0
        0x08003a4c:    20000008    ...     DCD    536870920
        0x08003a50:    3ffa1cac    ...?    DCD    1073355948
        0x08003a54:    3f7816f0    ..x?    DCD    1064834800
        0x08003a58:    3cfcb924    $..<    DCD    1023195428
        0x08003a5c:    40c90fdb    ...@    DCD    1086918619
        0x08003a60:    20000060    `..     DCD    536871008
        0x08003a64:    40490fdb    ..I@    DCD    1078530011
        0x08003a68:    c0490fdb    ..I.    DCD    3226013659
        0x08003a6c:    20000020     ..     DCD    536870944
        0x08003a70:    3ffa5e35    5^.?    DCD    1073372725
        0x08003a74:    3f74dd2f    /.t?    DCD    1064623407
        0x08003a78:    39fee8a9    ...9    DCD    973007017
        0x08003a7c:    39fb2fb7    ./.9    DCD    972763063
        0x08003a80:    3fa2f1aa    ...?    DCD    1067643306
        0x08003a84:    3fd06823    #h.?    DCD    1070622755
        0x08003a88:    41200000    .. A    DCD    1092616192
        0x08003a8c:    00000000    ....    DCD    0
        0x08003a90:    40490fdb    ..I@    DCD    1078530011
    $t
    i.MX_ADC1_Init
    MX_ADC1_Init
        0x08003a94:    e92d41f0    -..A    PUSH     {r4-r8,lr}
        0x08003a98:    b098        ..      SUB      sp,sp,#0x60
        0x08003a9a:    2400        .$      MOVS     r4,#0
        0x08003a9c:    9416        ..      STR      r4,[sp,#0x58]
        0x08003a9e:    9414        ..      STR      r4,[sp,#0x50]
        0x08003aa0:    9415        ..      STR      r4,[sp,#0x54]
        0x08003aa2:    9407        ..      STR      r4,[sp,#0x1c]
        0x08003aa4:    9408        ..      STR      r4,[sp,#0x20]
        0x08003aa6:    9409        ..      STR      r4,[sp,#0x24]
        0x08003aa8:    9406        ..      STR      r4,[sp,#0x18]
        0x08003aaa:    940a        ..      STR      r4,[sp,#0x28]
        0x08003aac:    9411        ..      STR      r4,[sp,#0x44]
        0x08003aae:    9412        ..      STR      r4,[sp,#0x48]
        0x08003ab0:    9413        ..      STR      r4,[sp,#0x4c]
        0x08003ab2:    4899        .H      LDR      r0,[pc,#612] ; [0x8003d18] = 0x40021000
        0x08003ab4:    940b        ..      STR      r4,[sp,#0x2c]
        0x08003ab6:    940c        ..      STR      r4,[sp,#0x30]
        0x08003ab8:    940d        ..      STR      r4,[sp,#0x34]
        0x08003aba:    940e        ..      STR      r4,[sp,#0x38]
        0x08003abc:    940f        ..      STR      r4,[sp,#0x3c]
        0x08003abe:    9410        ..      STR      r4,[sp,#0x40]
        0x08003ac0:    9402        ..      STR      r4,[sp,#8]
        0x08003ac2:    9403        ..      STR      r4,[sp,#0xc]
        0x08003ac4:    9404        ..      STR      r4,[sp,#0x10]
        0x08003ac6:    9405        ..      STR      r4,[sp,#0x14]
        0x08003ac8:    f8501f88    P...    LDR      r1,[r0,#0x88]!
        0x08003acc:    2603        .&      MOVS     r6,#3
        0x08003ace:    f0215140    !.@Q    BIC      r1,r1,#0x30000000
        0x08003ad2:    f0415100    A..Q    ORR      r1,r1,#0x20000000
        0x08003ad6:    2702        .'      MOVS     r7,#2
        0x08003ad8:    f840193c    @.<.    STR      r1,[r0],#-0x3c
        0x08003adc:    6801        .h      LDR      r1,[r0,#0]
        0x08003ade:    f4415100    A..Q    ORR      r1,r1,#0x2000
        0x08003ae2:    6001        .`      STR      r1,[r0,#0]
        0x08003ae4:    6801        .h      LDR      r1,[r0,#0]
        0x08003ae6:    f4015100    ...Q    AND      r1,r1,#0x2000
        0x08003aea:    9117        ..      STR      r1,[sp,#0x5c]
        0x08003aec:    6801        .h      LDR      r1,[r0,#0]
        0x08003aee:    f0410104    A...    ORR      r1,r1,#4
        0x08003af2:    6001        .`      STR      r1,[r0,#0]
        0x08003af4:    6801        .h      LDR      r1,[r0,#0]
        0x08003af6:    f0010104    ....    AND      r1,r1,#4
        0x08003afa:    9117        ..      STR      r1,[sp,#0x5c]
        0x08003afc:    6801        .h      LDR      r1,[r0,#0]
        0x08003afe:    f0410102    A...    ORR      r1,r1,#2
        0x08003b02:    6001        .`      STR      r1,[r0,#0]
        0x08003b04:    6800        .h      LDR      r0,[r0,#0]
        0x08003b06:    4d85        .M      LDR      r5,[pc,#532] ; [0x8003d1c] = 0x48000800
        0x08003b08:    f0000002    ....    AND      r0,r0,#2
        0x08003b0c:    e9cd7600    ...v    STRD     r7,r6,[sp,#0]
        0x08003b10:    9017        ..      STR      r0,[sp,#0x5c]
        0x08003b12:    4669        iF      MOV      r1,sp
        0x08003b14:    4628        (F      MOV      r0,r5
        0x08003b16:    f7fff991    ....    BL       LL_GPIO_Init ; 0x8002e3c
        0x08003b1a:    2004        .       MOVS     r0,#4
        0x08003b1c:    e9cd0600    ....    STRD     r0,r6,[sp,#0]
        0x08003b20:    4669        iF      MOV      r1,sp
        0x08003b22:    9404        ..      STR      r4,[sp,#0x10]
        0x08003b24:    4628        (F      MOV      r0,r5
        0x08003b26:    f7fff989    ....    BL       LL_GPIO_Init ; 0x8002e3c
        0x08003b2a:    2501        .%      MOVS     r5,#1
        0x08003b2c:    f8df81f0    ....    LDR      r8,[pc,#496] ; [0x8003d20] = 0x48000400
        0x08003b30:    e9cd5600    ...V    STRD     r5,r6,[sp,#0]
        0x08003b34:    4669        iF      MOV      r1,sp
        0x08003b36:    4640        @F      MOV      r0,r8
        0x08003b38:    9404        ..      STR      r4,[sp,#0x10]
        0x08003b3a:    f7fff97f    ....    BL       LL_GPIO_Init ; 0x8002e3c
        0x08003b3e:    e9cd7600    ...v    STRD     r7,r6,[sp,#0]
        0x08003b42:    4669        iF      MOV      r1,sp
        0x08003b44:    4640        @F      MOV      r0,r8
        0x08003b46:    9404        ..      STR      r4,[sp,#0x10]
        0x08003b48:    f7fff978    ..x.    BL       LL_GPIO_Init ; 0x8002e3c
        0x08003b4c:    4875        uH      LDR      r0,[pc,#468] ; [0x8003d24] = 0xe000ed0c
        0x08003b4e:    6800        .h      LDR      r0,[r0,#0]
        0x08003b50:    f3c02002    ...     UBFX     r0,r0,#8,#3
        0x08003b54:    f1c00107    ....    RSB      r1,r0,#7
        0x08003b58:    2904        .)      CMP      r1,#4
        0x08003b5a:    bf88        ..      IT       HI
        0x08003b5c:    2104        .!      MOVHI    r1,#4
        0x08003b5e:    1d02        ..      ADDS     r2,r0,#4
        0x08003b60:    2a07        .*      CMP      r2,#7
        0x08003b62:    bf34        4.      ITE      CC
        0x08003b64:    2000        .       MOVCC    r0,#0
        0x08003b66:    1ec0        ..      SUBCS    r0,r0,#3
        0x08003b68:    fa05f101    ....    LSL      r1,r5,r1
        0x08003b6c:    1e49        I.      SUBS     r1,r1,#1
        0x08003b6e:    f0010105    ....    AND      r1,r1,#5
        0x08003b72:    fa01f000    ....    LSL      r0,r1,r0
        0x08003b76:    496c        lI      LDR      r1,[pc,#432] ; [0x8003d28] = 0xe000e012
        0x08003b78:    0100        ..      LSLS     r0,r0,#4
        0x08003b7a:    f8810400    ....    STRB     r0,[r1,#0x400]
        0x08003b7e:    f04f21e0    O..!    MOV      r1,#0xe000e000
        0x08003b82:    f44f2080    O..     MOV      r0,#0x40000
        0x08003b86:    f8c10100    ....    STR      r0,[r1,#0x100]
        0x08003b8a:    10c0        ..      ASRS     r0,r0,#3
        0x08003b8c:    e9cd4014    ...@    STRD     r4,r0,[sp,#0x50]
        0x08003b90:    a914        ..      ADD      r1,sp,#0x50
        0x08003b92:    f04f40a0    O..@    MOV      r0,#0x50000000
        0x08003b96:    9416        ..      STR      r4,[sp,#0x58]
        0x08003b98:    f7feff9b    ....    BL       LL_ADC_Init ; 0x8002ad2
        0x08003b9c:    e9cd4506    ...E    STRD     r4,r5,[sp,#0x18]
        0x08003ba0:    9408        ..      STR      r4,[sp,#0x20]
        0x08003ba2:    9409        ..      STR      r4,[sp,#0x24]
        0x08003ba4:    940a        ..      STR      r4,[sp,#0x28]
        0x08003ba6:    a906        ..      ADD      r1,sp,#0x18
        0x08003ba8:    f04f40a0    O..@    MOV      r0,#0x50000000
        0x08003bac:    940b        ..      STR      r4,[sp,#0x2c]
        0x08003bae:    f7feffa9    ....    BL       LL_ADC_REG_Init ; 0x8002b04
        0x08003bb2:    f04f45a0    O..E    MOV      r5,#0x50000000
        0x08003bb6:    f8d500c0    ....    LDR      r0,[r5,#0xc0]
        0x08003bba:    f36f000d    o...    BFC      r0,#0,#14
        0x08003bbe:    f8c500c0    ....    STR      r0,[r5,#0xc0]
        0x08003bc2:    6928        (i      LDR      r0,[r5,#0x10]
        0x08003bc4:    f4203080     ..0    BIC      r0,r0,#0x10000
        0x08003bc8:    6128        (a      STR      r0,[r5,#0x10]
        0x08003bca:    6928        (i      LDR      r0,[r5,#0x10]
        0x08003bcc:    f0200003     ...    BIC      r0,r0,#3
        0x08003bd0:    f4206080     ..`    BIC      r0,r0,#0x400
        0x08003bd4:    6128        (a      STR      r0,[r5,#0x10]
        0x08003bd6:    f44f3040    O.@0    MOV      r0,#0x30000
        0x08003bda:    e9cd0410    ....    STRD     r0,r4,[sp,#0x40]
        0x08003bde:    4e53        SN      LDR      r6,[pc,#332] ; [0x8003d2c] = 0x50000300
        0x08003be0:    a910        ..      ADD      r1,sp,#0x40
        0x08003be2:    4630        0F      MOV      r0,r6
        0x08003be4:    f7feff22    ..".    BL       LL_ADC_CommonInit ; 0x8002a2c
        0x08003be8:    2080        .       MOVS     r0,#0x80
        0x08003bea:    900c        ..      STR      r0,[sp,#0x30]
        0x08003bec:    e9cd740d    ...t    STRD     r7,r4,[sp,#0x34]
        0x08003bf0:    a90c        ..      ADD      r1,sp,#0x30
        0x08003bf2:    4628        (F      MOV      r0,r5
        0x08003bf4:    940f        ..      STR      r4,[sp,#0x3c]
        0x08003bf6:    f7feff43    ..C.    BL       LL_ADC_INJ_Init ; 0x8002a80
        0x08003bfa:    68e8        .h      LDR      r0,[r5,#0xc]
        0x08003bfc:    f4201000     ...    BIC      r0,r0,#0x200000
        0x08003c00:    f0204000     ..@    BIC      r0,r0,#0x80000000
        0x08003c04:    f0404000    @..@    ORR      r0,r0,#0x80000000
        0x08003c08:    60e8        .`      STR      r0,[r5,#0xc]
        0x08003c0a:    6ce8        .l      LDR      r0,[r5,#0x4c]
        0x08003c0c:    f42070c0     ..p    BIC      r0,r0,#0x180
        0x08003c10:    f0400080    @...    ORR      r0,r0,#0x80
        0x08003c14:    64e8        .d      STR      r0,[r5,#0x4c]
        0x08003c16:    68a8        .h      LDR      r0,[r5,#8]
        0x08003c18:    f020003f     .?.    BIC      r0,r0,#0x3f
        0x08003c1c:    f0204020     . @    BIC      r0,r0,#0xa0000000
        0x08003c20:    60a8        .`      STR      r0,[r5,#8]
        0x08003c22:    68a8        .h      LDR      r0,[r5,#8]
        0x08003c24:    f020003f     .?.    BIC      r0,r0,#0x3f
        0x08003c28:    f0204000     ..@    BIC      r0,r0,#0x80000000
        0x08003c2c:    f0405080    @..P    ORR      r0,r0,#0x10000000
        0x08003c30:    60a8        .`      STR      r0,[r5,#8]
        0x08003c32:    483f        ?H      LDR      r0,[pc,#252] ; [0x8003d30] = 0x20000004
        0x08003c34:    493f        ?I      LDR      r1,[pc,#252] ; [0x8003d34] = 0x30d40
        0x08003c36:    6800        .h      LDR      r0,[r0,#0]
        0x08003c38:    fbb0f0f1    ....    UDIV     r0,r0,r1
        0x08003c3c:    eb000080    ....    ADD      r0,r0,r0,LSL #2
        0x08003c40:    493d        =I      LDR      r1,[pc,#244] ; [0x8003d38] = 0xcccccccd
        0x08003c42:    0080        ..      LSLS     r0,r0,#2
        0x08003c44:    fba11000    ....    UMULL    r1,r0,r1,r0
        0x08003c48:    08c1        ..      LSRS     r1,r0,#3
        0x08003c4a:    d002        ..      BEQ      0x8003c52 ; MX_ADC1_Init + 446
        0x08003c4c:    f1b14f00    ...O    CMP      r1,#0x80000000
        0x08003c50:    d25e        ^.      BCS      0x8003d10 ; MX_ADC1_Init + 636
        0x08003c52:    493a        :I      LDR      r1,[pc,#232] ; [0x8003d3c] = 0x50000030
        0x08003c54:    6808        .h      LDR      r0,[r1,#0]
        0x08003c56:    f42060f8     ..`    BIC      r0,r0,#0x7c0
        0x08003c5a:    f4407040    @.@p    ORR      r0,r0,#0x300
        0x08003c5e:    6008        .`      STR      r0,[r1,#0]
        0x08003c60:    4837        7H      LDR      r0,[pc,#220] ; [0x8003d40] = 0x50000018
        0x08003c62:    6802        .h      LDR      r2,[r0,#0]
        0x08003c64:    f42272e0    "..r    BIC      r2,r2,#0x1c0
        0x08003c68:    f0420240    B.@.    ORR      r2,r2,#0x40
        0x08003c6c:    6002        .`      STR      r2,[r0,#0]
        0x08003c6e:    f8d520b0    ...     LDR      r2,[r5,#0xb0]
        0x08003c72:    f4225280    "..R    BIC      r2,r2,#0x1000
        0x08003c76:    f8c520b0    ...     STR      r2,[r5,#0xb0]
        0x08003c7a:    6cea        .l      LDR      r2,[r5,#0x4c]
        0x08003c7c:    f4225278    ".xR    BIC      r2,r2,#0x3e00
        0x08003c80:    f4426260    B.`b    ORR      r2,r2,#0xe00
        0x08003c84:    64ea        .d      STR      r2,[r5,#0x4c]
        0x08003c86:    1f02        ..      SUBS     r2,r0,#4
        0x08003c88:    6813        .h      LDR      r3,[r2,#0]
        0x08003c8a:    f4230360    #.`.    BIC      r3,r3,#0xe00000
        0x08003c8e:    6013        .`      STR      r3,[r2,#0]
        0x08003c90:    f8d530b0    ...0    LDR      r3,[r5,#0xb0]
        0x08003c94:    f0230380    #...    BIC      r3,r3,#0x80
        0x08003c98:    f8c530b0    ...0    STR      r3,[r5,#0xb0]
        0x08003c9c:    680b        .h      LDR      r3,[r1,#0]
        0x08003c9e:    f42333f8    #..3    BIC      r3,r3,#0x1f000
        0x08003ca2:    f4433390    C..3    ORR      r3,r3,#0x12000
        0x08003ca6:    600b        .`      STR      r3,[r1,#0]
        0x08003ca8:    6801        .h      LDR      r1,[r0,#0]
        0x08003caa:    f02161e0    !..a    BIC      r1,r1,#0x7000000
        0x08003cae:    6001        .`      STR      r1,[r0,#0]
        0x08003cb0:    f8d510b0    ....    LDR      r1,[r5,#0xb0]
        0x08003cb4:    f4212180    !..!    BIC      r1,r1,#0x40000
        0x08003cb8:    f8c510b0    ....    STR      r1,[r5,#0xb0]
        0x08003cbc:    68b1        .h      LDR      r1,[r6,#8]
        0x08003cbe:    4b1b        .K      LDR      r3,[pc,#108] ; [0x8003d2c] = 0x50000300
        0x08003cc0:    f02171e0    !..q    BIC      r1,r1,#0x1c00000
        0x08003cc4:    f4410180    A...    ORR      r1,r1,#0x400000
        0x08003cc8:    6099        .`      STR      r1,[r3,#8]
        0x08003cca:    6ce9        .l      LDR      r1,[r5,#0x4c]
        0x08003ccc:    f4212178    !.x!    BIC      r1,r1,#0xf8000
        0x08003cd0:    f4412180    A..!    ORR      r1,r1,#0x40000
        0x08003cd4:    64e9        .d      STR      r1,[r5,#0x4c]
        0x08003cd6:    6811        .h      LDR      r1,[r2,#0]
        0x08003cd8:    f02161e0    !..a    BIC      r1,r1,#0x7000000
        0x08003cdc:    6011        .`      STR      r1,[r2,#0]
        0x08003cde:    f8d510b0    ....    LDR      r1,[r5,#0xb0]
        0x08003ce2:    f4217180    !..q    BIC      r1,r1,#0x100
        0x08003ce6:    f8c510b0    ....    STR      r1,[r5,#0xb0]
        0x08003cea:    6ce9        .l      LDR      r1,[r5,#0x4c]
        0x08003cec:    f0217178    !.xq    BIC      r1,r1,#0x3e00000
        0x08003cf0:    f04171f0    A..q    ORR      r1,r1,#0x1e00000
        0x08003cf4:    64e9        .d      STR      r1,[r5,#0x4c]
        0x08003cf6:    6801        .h      LDR      r1,[r0,#0]
        0x08003cf8:    f4213160    !.`1    BIC      r1,r1,#0x38000
        0x08003cfc:    6001        .`      STR      r1,[r0,#0]
        0x08003cfe:    f8d500b0    ....    LDR      r0,[r5,#0xb0]
        0x08003d02:    f4204000     ..@    BIC      r0,r0,#0x8000
        0x08003d06:    f8c500b0    ....    STR      r0,[r5,#0xb0]
        0x08003d0a:    b018        ..      ADD      sp,sp,#0x60
        0x08003d0c:    e8bd81f0    ....    POP      {r4-r8,pc}
        0x08003d10:    1e49        I.      SUBS     r1,r1,#1
        0x08003d12:    d1fd        ..      BNE      0x8003d10 ; MX_ADC1_Init + 636
        0x08003d14:    e79d        ..      B        0x8003c52 ; MX_ADC1_Init + 446
    $d
        0x08003d16:    0000        ..      DCW    0
        0x08003d18:    40021000    ...@    DCD    1073876992
        0x08003d1c:    48000800    ...H    DCD    1207961600
        0x08003d20:    48000400    ...H    DCD    1207960576
        0x08003d24:    e000ed0c    ....    DCD    3758157068
        0x08003d28:    e000e012    ....    DCD    3758153746
        0x08003d2c:    50000300    ...P    DCD    1342178048
        0x08003d30:    20000004    ...     DCD    536870916
        0x08003d34:    00030d40    @...    DCD    200000
        0x08003d38:    cccccccd    ....    DCD    3435973837
        0x08003d3c:    50000030    0..P    DCD    1342177328
        0x08003d40:    50000018    ...P    DCD    1342177304
    $t
    i.MX_TIM1_Init
    MX_TIM1_Init
        0x08003d44:    e92d4ff0    -..O    PUSH     {r4-r11,lr}
        0x08003d48:    b0a1        ..      SUB      sp,sp,#0x84
        0x08003d4a:    2400        .$      MOVS     r4,#0
        0x08003d4c:    941c        ..      STR      r4,[sp,#0x70]
        0x08003d4e:    940a        ..      STR      r4,[sp,#0x28]
        0x08003d50:    9406        ..      STR      r4,[sp,#0x18]
        0x08003d52:    9407        ..      STR      r4,[sp,#0x1c]
        0x08003d54:    9408        ..      STR      r4,[sp,#0x20]
        0x08003d56:    9409        ..      STR      r4,[sp,#0x24]
        0x08003d58:    940f        ..      STR      r4,[sp,#0x3c]
        0x08003d5a:    940b        ..      STR      r4,[sp,#0x2c]
        0x08003d5c:    940c        ..      STR      r4,[sp,#0x30]
        0x08003d5e:    940d        ..      STR      r4,[sp,#0x34]
        0x08003d60:    940e        ..      STR      r4,[sp,#0x38]
        0x08003d62:    9414        ..      STR      r4,[sp,#0x50]
        0x08003d64:    9410        ..      STR      r4,[sp,#0x40]
        0x08003d66:    9411        ..      STR      r4,[sp,#0x44]
        0x08003d68:    9412        ..      STR      r4,[sp,#0x48]
        0x08003d6a:    9413        ..      STR      r4,[sp,#0x4c]
        0x08003d6c:    9419        ..      STR      r4,[sp,#0x64]
        0x08003d6e:    4eaa        .N      LDR      r6,[pc,#680] ; [0x8004018] = 0x40021000
        0x08003d70:    9415        ..      STR      r4,[sp,#0x54]
        0x08003d72:    9416        ..      STR      r4,[sp,#0x58]
        0x08003d74:    9417        ..      STR      r4,[sp,#0x5c]
        0x08003d76:    9418        ..      STR      r4,[sp,#0x60]
        0x08003d78:    9400        ..      STR      r4,[sp,#0]
        0x08003d7a:    9401        ..      STR      r4,[sp,#4]
        0x08003d7c:    9402        ..      STR      r4,[sp,#8]
        0x08003d7e:    9403        ..      STR      r4,[sp,#0xc]
        0x08003d80:    9404        ..      STR      r4,[sp,#0x10]
        0x08003d82:    9405        ..      STR      r4,[sp,#0x14]
        0x08003d84:    6e30        0n      LDR      r0,[r6,#0x60]
        0x08003d86:    f4406000    @..`    ORR      r0,r0,#0x800
        0x08003d8a:    6630        0f      STR      r0,[r6,#0x60]
        0x08003d8c:    6e30        0n      LDR      r0,[r6,#0x60]
        0x08003d8e:    4da3        .M      LDR      r5,[pc,#652] ; [0x800401c] = 0x40012c00
        0x08003d90:    f4006000    ...`    AND      r0,r0,#0x800
        0x08003d94:    901a        ..      STR      r0,[sp,#0x68]
        0x08003d96:    2040        @       MOVS     r0,#0x40
        0x08003d98:    901d        ..      STR      r0,[sp,#0x74]
        0x08003d9a:    f2421033    B.3.    MOV      r0,#0x2133
        0x08003d9e:    901e        ..      STR      r0,[sp,#0x78]
        0x08003da0:    15b0        ..      ASRS     r0,r6,#22
        0x08003da2:    901f        ..      STR      r0,[sp,#0x7c]
        0x08003da4:    2001        .       MOVS     r0,#1
        0x08003da6:    9020         .      STR      r0,[sp,#0x80]
        0x08003da8:    f8ad4070    ..p@    STRH     r4,[sp,#0x70]
        0x08003dac:    a91c        ..      ADD      r1,sp,#0x70
        0x08003dae:    4628        (F      MOV      r0,r5
        0x08003db0:    f7fffa7c    ..|.    BL       LL_TIM_Init ; 0x80032ac
        0x08003db4:    6828        (h      LDR      r0,[r5,#0]
        0x08003db6:    f0200080     ...    BIC      r0,r0,#0x80
        0x08003dba:    6028        (`      STR      r0,[r5,#0]
        0x08003dbc:    68a8        .h      LDR      r0,[r5,#8]
        0x08003dbe:    f0200007     ...    BIC      r0,r0,#7
        0x08003dc2:    f42030a0     ..0    BIC      r0,r0,#0x14000
        0x08003dc6:    60a8        .`      STR      r0,[r5,#8]
        0x08003dc8:    f8dfb254    ..T.    LDR      r11,[pc,#596] ; [0x8004020] = 0x80089dc
        0x08003dcc:    4895        .H      LDR      r0,[pc,#596] ; [0x8004024] = 0x40012c18
        0x08003dce:    f89b1000    ....    LDRB     r1,[r11,#0]
        0x08003dd2:    180f        ..      ADDS     r7,r1,r0
        0x08003dd4:    6838        8h      LDR      r0,[r7,#0]
        0x08003dd6:    f10b090a    ....    ADD      r9,r11,#0xa
        0x08003dda:    f04f0a08    O...    MOV      r10,#8
        0x08003dde:    f8991000    ....    LDRB     r1,[r9,#0]
        0x08003de2:    fa0af101    ....    LSL      r1,r10,r1
        0x08003de6:    4308        .C      ORRS     r0,r0,r1
        0x08003de8:    6038        8`      STR      r0,[r7,#0]
        0x08003dea:    2070        p       MOVS     r0,#0x70
        0x08003dec:    e9cd0406    ....    STRD     r0,r4,[sp,#0x18]
        0x08003df0:    9408        ..      STR      r4,[sp,#0x20]
        0x08003df2:    9409        ..      STR      r4,[sp,#0x24]
        0x08003df4:    940a        ..      STR      r4,[sp,#0x28]
        0x08003df6:    940b        ..      STR      r4,[sp,#0x2c]
        0x08003df8:    940c        ..      STR      r4,[sp,#0x30]
        0x08003dfa:    aa06        ..      ADD      r2,sp,#0x18
        0x08003dfc:    2101        .!      MOVS     r1,#1
        0x08003dfe:    4628        (F      MOV      r0,r5
        0x08003e00:    940d        ..      STR      r4,[sp,#0x34]
        0x08003e02:    f7fffaab    ....    BL       LL_TIM_OC_Init ; 0x800335c
        0x08003e06:    6838        8h      LDR      r0,[r7,#0]
        0x08003e08:    f8991000    ....    LDRB     r1,[r9,#0]
        0x08003e0c:    f04f0804    O...    MOV      r8,#4
        0x08003e10:    fa08f101    ....    LSL      r1,r8,r1
        0x08003e14:    4388        .C      BICS     r0,r0,r1
        0x08003e16:    6038        8`      STR      r0,[r7,#0]
        0x08003e18:    f89b1002    ....    LDRB     r1,[r11,#2]
        0x08003e1c:    4881        .H      LDR      r0,[pc,#516] ; [0x8004024] = 0x40012c18
        0x08003e1e:    180f        ..      ADDS     r7,r1,r0
        0x08003e20:    6838        8h      LDR      r0,[r7,#0]
        0x08003e22:    f8991002    ....    LDRB     r1,[r9,#2]
        0x08003e26:    fa0af101    ....    LSL      r1,r10,r1
        0x08003e2a:    4308        .C      ORRS     r0,r0,r1
        0x08003e2c:    6038        8`      STR      r0,[r7,#0]
        0x08003e2e:    aa06        ..      ADD      r2,sp,#0x18
        0x08003e30:    2110        .!      MOVS     r1,#0x10
        0x08003e32:    4628        (F      MOV      r0,r5
        0x08003e34:    f7fffa92    ....    BL       LL_TIM_OC_Init ; 0x800335c
        0x08003e38:    6838        8h      LDR      r0,[r7,#0]
        0x08003e3a:    f8991002    ....    LDRB     r1,[r9,#2]
        0x08003e3e:    fa08f101    ....    LSL      r1,r8,r1
        0x08003e42:    4388        .C      BICS     r0,r0,r1
        0x08003e44:    6038        8`      STR      r0,[r7,#0]
        0x08003e46:    f89b1004    ....    LDRB     r1,[r11,#4]
        0x08003e4a:    4876        vH      LDR      r0,[pc,#472] ; [0x8004024] = 0x40012c18
        0x08003e4c:    180f        ..      ADDS     r7,r1,r0
        0x08003e4e:    6838        8h      LDR      r0,[r7,#0]
        0x08003e50:    f8991004    ....    LDRB     r1,[r9,#4]
        0x08003e54:    fa0af101    ....    LSL      r1,r10,r1
        0x08003e58:    4308        .C      ORRS     r0,r0,r1
        0x08003e5a:    6038        8`      STR      r0,[r7,#0]
        0x08003e5c:    aa06        ..      ADD      r2,sp,#0x18
        0x08003e5e:    15a9        ..      ASRS     r1,r5,#22
        0x08003e60:    4628        (F      MOV      r0,r5
        0x08003e62:    f7fffa7b    ..{.    BL       LL_TIM_OC_Init ; 0x800335c
        0x08003e66:    6838        8h      LDR      r0,[r7,#0]
        0x08003e68:    f8991004    ....    LDRB     r1,[r9,#4]
        0x08003e6c:    fa08f101    ....    LSL      r1,r8,r1
        0x08003e70:    4388        .C      BICS     r0,r0,r1
        0x08003e72:    6038        8`      STR      r0,[r7,#0]
        0x08003e74:    6868        hh      LDR      r0,[r5,#4]
        0x08003e76:    f0200070     .p.    BIC      r0,r0,#0x70
        0x08003e7a:    f0207000     ..p    BIC      r0,r0,#0x2000000
        0x08003e7e:    f0400020    @. .    ORR      r0,r0,#0x20
        0x08003e82:    6068        h`      STR      r0,[r5,#4]
        0x08003e84:    6868        hh      LDR      r0,[r5,#4]
        0x08003e86:    f4200070     .p.    BIC      r0,r0,#0xf00000
        0x08003e8a:    6068        h`      STR      r0,[r5,#4]
        0x08003e8c:    68a8        .h      LDR      r0,[r5,#8]
        0x08003e8e:    f0200080     ...    BIC      r0,r0,#0x80
        0x08003e92:    60a8        .`      STR      r0,[r5,#8]
        0x08003e94:    4964        dI      LDR      r1,[pc,#400] ; [0x8004028] = 0x40012c60
        0x08003e96:    6808        .h      LDR      r0,[r1,#0]
        0x08003e98:    fa98f2a8    ....    RBIT     r2,r8
        0x08003e9c:    fab2f282    ....    CLZ      r2,r2
        0x08003ea0:    f002021f    ....    AND      r2,r2,#0x1f
        0x08003ea4:    154f        O.      ASRS     r7,r1,#21
        0x08003ea6:    fa07f202    ....    LSL      r2,r7,r2
        0x08003eaa:    4390        .C      BICS     r0,r0,r2
        0x08003eac:    fa98f2a8    ....    RBIT     r2,r8
        0x08003eb0:    fab2f282    ....    CLZ      r2,r2
        0x08003eb4:    f002021f    ....    AND      r2,r2,#0x1f
        0x08003eb8:    fa04f202    ....    LSL      r2,r4,r2
        0x08003ebc:    4310        .C      ORRS     r0,r0,r2
        0x08003ebe:    6008        .`      STR      r0,[r1,#0]
        0x08003ec0:    6808        .h      LDR      r0,[r1,#0]
        0x08003ec2:    f0400004    @...    ORR      r0,r0,#4
        0x08003ec6:    6008        .`      STR      r0,[r1,#0]
        0x08003ec8:    6808        .h      LDR      r0,[r1,#0]
        0x08003eca:    fa9af2aa    ....    RBIT     r2,r10
        0x08003ece:    fab2f282    ....    CLZ      r2,r2
        0x08003ed2:    f002021f    ....    AND      r2,r2,#0x1f
        0x08003ed6:    fa07f202    ....    LSL      r2,r7,r2
        0x08003eda:    4390        .C      BICS     r0,r0,r2
        0x08003edc:    fa9af2aa    ....    RBIT     r2,r10
        0x08003ee0:    fab2f282    ....    CLZ      r2,r2
        0x08003ee4:    f002021f    ....    AND      r2,r2,#0x1f
        0x08003ee8:    fa04f202    ....    LSL      r2,r4,r2
        0x08003eec:    4310        .C      ORRS     r0,r0,r2
        0x08003eee:    6008        .`      STR      r0,[r1,#0]
        0x08003ef0:    6808        .h      LDR      r0,[r1,#0]
        0x08003ef2:    f0400008    @...    ORR      r0,r0,#8
        0x08003ef6:    6008        .`      STR      r0,[r1,#0]
        0x08003ef8:    680a        .h      LDR      r2,[r1,#0]
        0x08003efa:    2010        .       MOVS     r0,#0x10
        0x08003efc:    fa90f3a0    ....    RBIT     r3,r0
        0x08003f00:    fab3f383    ....    CLZ      r3,r3
        0x08003f04:    fa90f0a0    ....    RBIT     r0,r0
        0x08003f08:    f003031f    ....    AND      r3,r3,#0x1f
        0x08003f0c:    fab0f080    ....    CLZ      r0,r0
        0x08003f10:    fa07f303    ....    LSL      r3,r7,r3
        0x08003f14:    f000001f    ....    AND      r0,r0,#0x1f
        0x08003f18:    439a        .C      BICS     r2,r2,r3
        0x08003f1a:    fa04f000    ....    LSL      r0,r4,r0
        0x08003f1e:    4310        .C      ORRS     r0,r0,r2
        0x08003f20:    6008        .`      STR      r0,[r1,#0]
        0x08003f22:    6808        .h      LDR      r0,[r1,#0]
        0x08003f24:    f0400010    @...    ORR      r0,r0,#0x10
        0x08003f28:    6008        .`      STR      r0,[r1,#0]
        0x08003f2a:    20ff        .       MOVS     r0,#0xff
        0x08003f2c:    f88d0044    ..D.    STRB     r0,[sp,#0x44]
        0x08003f30:    1488        ..      ASRS     r0,r1,#18
        0x08003f32:    f8ad0046    ..F.    STRH     r0,[sp,#0x46]
        0x08003f36:    f44f5900    O..Y    MOV      r9,#0x2000
        0x08003f3a:    940e        ..      STR      r4,[sp,#0x38]
        0x08003f3c:    940f        ..      STR      r4,[sp,#0x3c]
        0x08003f3e:    9410        ..      STR      r4,[sp,#0x40]
        0x08003f40:    0180        ..      LSLS     r0,r0,#6
        0x08003f42:    f8cd9048    ..H.    STR      r9,[sp,#0x48]
        0x08003f46:    e9cd0413    ....    STRD     r0,r4,[sp,#0x4c]
        0x08003f4a:    0180        ..      LSLS     r0,r0,#6
        0x08003f4c:    9015        ..      STR      r0,[sp,#0x54]
        0x08003f4e:    0040        @.      LSLS     r0,r0,#1
        0x08003f50:    e9cd0416    ....    STRD     r0,r4,[sp,#0x58]
        0x08003f54:    9418        ..      STR      r4,[sp,#0x60]
        0x08003f56:    a90e        ..      ADD      r1,sp,#0x38
        0x08003f58:    4628        (F      MOV      r0,r5
        0x08003f5a:    9419        ..      STR      r4,[sp,#0x64]
        0x08003f5c:    f7fff96a    ..j.    BL       LL_TIM_BDTR_Init ; 0x8003234
        0x08003f60:    6cf0        .l      LDR      r0,[r6,#0x4c]
        0x08003f62:    f0400002    @...    ORR      r0,r0,#2
        0x08003f66:    64f0        .d      STR      r0,[r6,#0x4c]
        0x08003f68:    6cf0        .l      LDR      r0,[r6,#0x4c]
        0x08003f6a:    f0000002    ....    AND      r0,r0,#2
        0x08003f6e:    901a        ..      STR      r0,[sp,#0x68]
        0x08003f70:    6cf0        .l      LDR      r0,[r6,#0x4c]
        0x08003f72:    f0400001    @...    ORR      r0,r0,#1
        0x08003f76:    64f0        .d      STR      r0,[r6,#0x4c]
        0x08003f78:    6cf0        .l      LDR      r0,[r6,#0x4c]
        0x08003f7a:    f8cd9000    ....    STR      r9,[sp,#0]
        0x08003f7e:    f0000001    ....    AND      r0,r0,#1
        0x08003f82:    901a        ..      STR      r0,[sp,#0x68]
        0x08003f84:    2502        .%      MOVS     r5,#2
        0x08003f86:    e9cd5401    ...T    STRD     r5,r4,[sp,#4]
        0x08003f8a:    2606        .&      MOVS     r6,#6
        0x08003f8c:    f8df909c    ....    LDR      r9,[pc,#156] ; [0x800402c] = 0x48000400
        0x08003f90:    e9cd4604    ...F    STRD     r4,r6,[sp,#0x10]
        0x08003f94:    4669        iF      MOV      r1,sp
        0x08003f96:    4648        HF      MOV      r0,r9
        0x08003f98:    9403        ..      STR      r4,[sp,#0xc]
        0x08003f9a:    f7feff4f    ..O.    BL       LL_GPIO_Init ; 0x8002e3c
        0x08003f9e:    0368        h.      LSLS     r0,r5,#13
        0x08003fa0:    9000        ..      STR      r0,[sp,#0]
        0x08003fa2:    e9cd5401    ...T    STRD     r5,r4,[sp,#4]
        0x08003fa6:    e9cd4604    ...F    STRD     r4,r6,[sp,#0x10]
        0x08003faa:    4669        iF      MOV      r1,sp
        0x08003fac:    4648        HF      MOV      r0,r9
        0x08003fae:    9403        ..      STR      r4,[sp,#0xc]
        0x08003fb0:    f7feff44    ..D.    BL       LL_GPIO_Init ; 0x8002e3c
        0x08003fb4:    03a8        ..      LSLS     r0,r5,#14
        0x08003fb6:    9000        ..      STR      r0,[sp,#0]
        0x08003fb8:    e9cd5401    ...T    STRD     r5,r4,[sp,#4]
        0x08003fbc:    e9cd4804    ...H    STRD     r4,r8,[sp,#0x10]
        0x08003fc0:    4669        iF      MOV      r1,sp
        0x08003fc2:    4648        HF      MOV      r0,r9
        0x08003fc4:    9403        ..      STR      r4,[sp,#0xc]
        0x08003fc6:    f7feff39    ..9.    BL       LL_GPIO_Init ; 0x8002e3c
        0x08003fca:    01e8        ..      LSLS     r0,r5,#7
        0x08003fcc:    9000        ..      STR      r0,[sp,#0]
        0x08003fce:    e9cd5401    ...T    STRD     r5,r4,[sp,#4]
        0x08003fd2:    e9cd4604    ...F    STRD     r4,r6,[sp,#0x10]
        0x08003fd6:    4669        iF      MOV      r1,sp
        0x08003fd8:    f04f4090    O..@    MOV      r0,#0x48000000
        0x08003fdc:    9403        ..      STR      r4,[sp,#0xc]
        0x08003fde:    f7feff2d    ..-.    BL       LL_GPIO_Init ; 0x8002e3c
        0x08003fe2:    9700        ..      STR      r7,[sp,#0]
        0x08003fe4:    e9cd5401    ...T    STRD     r5,r4,[sp,#4]
        0x08003fe8:    e9cd4604    ...F    STRD     r4,r6,[sp,#0x10]
        0x08003fec:    4669        iF      MOV      r1,sp
        0x08003fee:    f04f4090    O..@    MOV      r0,#0x48000000
        0x08003ff2:    9403        ..      STR      r4,[sp,#0xc]
        0x08003ff4:    f7feff22    ..".    BL       LL_GPIO_Init ; 0x8002e3c
        0x08003ff8:    0268        h.      LSLS     r0,r5,#9
        0x08003ffa:    9000        ..      STR      r0,[sp,#0]
        0x08003ffc:    e9cd5401    ...T    STRD     r5,r4,[sp,#4]
        0x08004000:    e9cd4604    ...F    STRD     r4,r6,[sp,#0x10]
        0x08004004:    4669        iF      MOV      r1,sp
        0x08004006:    f04f4090    O..@    MOV      r0,#0x48000000
        0x0800400a:    9403        ..      STR      r4,[sp,#0xc]
        0x0800400c:    f7feff16    ....    BL       LL_GPIO_Init ; 0x8002e3c
        0x08004010:    b021        !.      ADD      sp,sp,#0x84
        0x08004012:    e8bd8ff0    ....    POP      {r4-r11,pc}
    $d
        0x08004016:    0000        ..      DCW    0
        0x08004018:    40021000    ...@    DCD    1073876992
        0x0800401c:    40012c00    .,.@    DCD    1073818624
        0x08004020:    080089dc    ....    DCD    134253020
        0x08004024:    40012c18    .,.@    DCD    1073818648
        0x08004028:    40012c60    `,.@    DCD    1073818720
        0x0800402c:    48000400    ...H    DCD    1207960576
    $t
    i.MX_USB_Device_Init
    MX_USB_Device_Init
        0x08004030:    b510        ..      PUSH     {r4,lr}
        0x08004032:    2200        ."      MOVS     r2,#0
        0x08004034:    4910        .I      LDR      r1,[pc,#64] ; [0x8004078] = 0x200000ec
        0x08004036:    4811        .H      LDR      r0,[pc,#68] ; [0x800407c] = 0x200012a8
        0x08004038:    f001fbdc    ....    BL       USBD_Init ; 0x80057f4
        0x0800403c:    2800        .(      CMP      r0,#0
        0x0800403e:    bf18        ..      IT       NE
        0x08004040:    f7fcfb44    ..D.    BLNE     Error_Handler ; 0x80006cc
        0x08004044:    490e        .I      LDR      r1,[pc,#56] ; [0x8004080] = 0x20000230
        0x08004046:    480d        .H      LDR      r0,[pc,#52] ; [0x800407c] = 0x200012a8
        0x08004048:    f001fe0b    ....    BL       USBD_RegisterClass ; 0x8005c62
        0x0800404c:    2800        .(      CMP      r0,#0
        0x0800404e:    bf18        ..      IT       NE
        0x08004050:    f7fcfb3c    ..<.    BLNE     Error_Handler ; 0x80006cc
        0x08004054:    490b        .I      LDR      r1,[pc,#44] ; [0x8004084] = 0x20000140
        0x08004056:    4809        .H      LDR      r0,[pc,#36] ; [0x800407c] = 0x200012a8
        0x08004058:    f001fa60    ..`.    BL       USBD_CDC_RegisterInterface ; 0x800551c
        0x0800405c:    2800        .(      CMP      r0,#0
        0x0800405e:    bf18        ..      IT       NE
        0x08004060:    f7fcfb34    ..4.    BLNE     Error_Handler ; 0x80006cc
        0x08004064:    4805        .H      LDR      r0,[pc,#20] ; [0x800407c] = 0x200012a8
        0x08004066:    f001fe19    ....    BL       USBD_Start ; 0x8005c9c
        0x0800406a:    2800        .(      CMP      r0,#0
        0x0800406c:    bf08        ..      IT       EQ
        0x0800406e:    bd10        ..      POPEQ    {r4,pc}
        0x08004070:    e8bd4010    ...@    POP      {r4,lr}
        0x08004074:    f7fcbb2a    ..*.    B        Error_Handler ; 0x80006cc
    $d
        0x08004078:    200000ec    ...     DCD    536871148
        0x0800407c:    200012a8    ...     DCD    536875688
        0x08004080:    20000230    0..     DCD    536871472
        0x08004084:    20000140    @..     DCD    536871232
    $t
    i.MedianFilter
    MedianFilter
        0x08004088:    b410        ..      PUSH     {r4}
        0x0800408a:    ed9f0a17    ....    VLDR     s0,[pc,#92] ; [0x80040e8] = 0
        0x0800408e:    2903        .)      CMP      r1,#3
        0x08004090:    bf3c        <.      ITT      CC
        0x08004092:    bc10        ..      POPCC    {r4}
        0x08004094:    4770        pG      BXCC     lr
        0x08004096:    f04f0c00    O...    MOV      r12,#0
        0x0800409a:    1e4c        L.      SUBS     r4,r1,#1
        0x0800409c:    2c00        .,      CMP      r4,#0
        0x0800409e:    dd1b        ..      BLE      0x80040d8 ; MedianFilter + 80
        0x080040a0:    eba1030c    ....    SUB      r3,r1,r12
        0x080040a4:    1e5a        Z.      SUBS     r2,r3,#1
        0x080040a6:    2a00        .*      CMP      r2,#0
        0x080040a8:    bfc4        ..      ITT      GT
        0x080040aa:    4602        .F      MOVGT    r2,r0
        0x080040ac:    1e5b        [.      SUBGT    r3,r3,#1
        0x080040ae:    dd0f        ..      BLE      0x80040d0 ; MedianFilter + 72
        0x080040b0:    ed920a00    ....    VLDR     s0,[r2,#0]
        0x080040b4:    edd20a01    ....    VLDR     s1,[r2,#4]
        0x080040b8:    eeb40ae0    ....    VCMPE.F32 s0,s1
        0x080040bc:    eef1fa10    ....    VMRS     APSR_nzcv,FPSCR
        0x080040c0:    bfc4        ..      ITT      GT
        0x080040c2:    edc20a00    ....    VSTRGT   s1,[r2,#0]
        0x080040c6:    ed820a01    ....    VSTRGT   s0,[r2,#4]
        0x080040ca:    1d12        ..      ADDS     r2,r2,#4
        0x080040cc:    1e5b        [.      SUBS     r3,r3,#1
        0x080040ce:    d1ef        ..      BNE      0x80040b0 ; MedianFilter + 40
        0x080040d0:    f10c0c01    ....    ADD      r12,r12,#1
        0x080040d4:    4564        dE      CMP      r4,r12
        0x080040d6:    dce3        ..      BGT      0x80040a0 ; MedianFilter + 24
        0x080040d8:    0849        I.      LSRS     r1,r1,#1
        0x080040da:    eb000081    ....    ADD      r0,r0,r1,LSL #2
        0x080040de:    ed900a00    ....    VLDR     s0,[r0,#0]
        0x080040e2:    bc10        ..      POP      {r4}
        0x080040e4:    4770        pG      BX       lr
    $d
        0x080040e6:    0000        ..      DCW    0
        0x080040e8:    00000000    ....    DCD    0
    $t
    i.MemManage_Handler
    MemManage_Handler
        0x080040ec:    e7fe        ..      B        MemManage_Handler ; 0x80040ec
    i.NMI_Handler
    NMI_Handler
        0x080040ee:    e7fe        ..      B        NMI_Handler ; 0x80040ee
    i.NonlinearFluxObsProcess
    NonlinearFluxObsProcess
        0x080040f0:    b510        ..      PUSH     {r4,lr}
        0x080040f2:    4847        GH      LDR      r0,[pc,#284] ; [0x8004210] = 0x20000090
        0x080040f4:    460c        .F      MOV      r4,r1
        0x080040f6:    ed2d8b0c    -...    VPUSH    {d8-d13}
        0x080040fa:    990e        ..      LDR      r1,[sp,#0x38]
        0x080040fc:    6800        .h      LDR      r0,[r0,#0]
        0x080040fe:    ed941a03    ....    VLDR     s2,[r4,#0xc]
        0x08004102:    ed919a00    ....    VLDR     s18,[r1,#0]
        0x08004106:    ed900a04    ....    VLDR     s0,[r0,#0x10]
        0x0800410a:    edd01a06    ....    VLDR     s3,[r0,#0x18]
        0x0800410e:    edd18a01    ....    VLDR     s17,[r1,#4]
        0x08004112:    ee690a00    i...    VMUL.F32 s1,s18,s0
        0x08004116:    ed908a03    ....    VLDR     s16,[r0,#0xc]
        0x0800411a:    ee280a80    (...    VMUL.F32 s0,s17,s0
        0x0800411e:    483d        =H      LDR      r0,[pc,#244] ; [0x8004214] = 0x20000060
        0x08004120:    ee710a60    q.`.    VSUB.F32 s1,s2,s1
        0x08004124:    ed941a04    ....    VLDR     s2,[r4,#0x10]
        0x08004128:    ed942a00    ...*    VLDR     s4,[r4,#0]
        0x0800412c:    6800        .h      LDR      r0,[r0,#0]
        0x0800412e:    ee310a40    1.@.    VSUB.F32 s0,s2,s0
        0x08004132:    ee80caa1    ....    VDIV.F32 s24,s1,s3
        0x08004136:    ee201aa0     ...    VMUL.F32 s2,s1,s1
        0x0800413a:    ee602a82    `..*    VMUL.F32 s5,s1,s4
        0x0800413e:    edd09a06    ....    VLDR     s19,[r0,#0x18]
        0x08004142:    ed93ba00    ....    VLDR     s22,[r3,#0]
        0x08004146:    ee001a00    ....    VMLA.F32 s2,s0,s0
        0x0800414a:    edd3aa01    ....    VLDR     s21,[r3,#4]
        0x0800414e:    ee202a02     ..*    VMUL.F32 s4,s0,s4
        0x08004152:    ee111aa1    ....    VNMLS.F32 s2,s3,s3
        0x08004156:    eec0ca21    ..!.    VDIV.F32 s25,s0,s3
        0x0800415a:    ed84ca06    ....    VSTR     s24,[r4,#0x18]
        0x0800415e:    ee22aa81    "...    VMUL.F32 s20,s5,s2
        0x08004162:    ee62ba01    b...    VMUL.F32 s23,s4,s2
        0x08004166:    edc4ca05    ....    VSTR     s25,[r4,#0x14]
        0x0800416a:    ed90da06    ....    VLDR     s26,[r0,#0x18]
        0x0800416e:    ed940a0d    ....    VLDR     s0,[r4,#0x34]
        0x08004172:    f7fcfa71    ..q.    BL       CalculateSinCosValue ; 0x8000658
        0x08004176:    ee600aac    `...    VMUL.F32 s1,s1,s25
        0x0800417a:    4927        'I      LDR      r1,[pc,#156] ; [0x8004218] = 0x40490fdb
        0x0800417c:    ee4c0a40    L.@.    VMLS.F32 s1,s24,s0
        0x08004180:    edc40a07    ....    VSTR     s1,[r4,#0x1c]
        0x08004184:    ed940a0c    ....    VLDR     s0,[r4,#0x30]
        0x08004188:    ee000a8d    ....    VMLA.F32 s0,s1,s26
        0x0800418c:    ed840a0c    ....    VSTR     s0,[r4,#0x30]
        0x08004190:    ed941a09    ....    VLDR     s2,[r4,#0x24]
        0x08004194:    ee201a01     ...    VMUL.F32 s2,s0,s2
        0x08004198:    ed940a08    ....    VLDR     s0,[r4,#0x20]
        0x0800419c:    ee001a20    .. .    VMLA.F32 s2,s0,s1
        0x080041a0:    ed841a0a    ....    VSTR     s2,[r4,#0x28]
        0x080041a4:    ed940a0d    ....    VLDR     s0,[r4,#0x34]
        0x080041a8:    ee010a0d    ....    VMLA.F32 s0,s2,s26
        0x080041ac:    ee100a10    ....    VMOV     r0,s0
        0x080041b0:    ed840a0d    ....    VSTR     s0,[r4,#0x34]
        0x080041b4:    4288        .B      CMP      r0,r1
        0x080041b6:    dd06        ..      BLE      0x80041c6 ; NonlinearFluxObsProcess + 214
        0x080041b8:    eddf0a18    ....    VLDR     s1,[pc,#96] ; [0x800421c] = 0xc0c90fdb
        0x080041bc:    ee300a20    0. .    VADD.F32 s0,s0,s1
        0x080041c0:    ed840a0d    ....    VSTR     s0,[r4,#0x34]
        0x080041c4:    e00a        ..      B        0x80041dc ; NonlinearFluxObsProcess + 236
        0x080041c6:    ee100a10    ....    VMOV     r0,s0
        0x080041ca:    4915        .I      LDR      r1,[pc,#84] ; [0x8004220] = 0xc0490fdb
        0x080041cc:    4288        .B      CMP      r0,r1
        0x080041ce:    d905        ..      BLS      0x80041dc ; NonlinearFluxObsProcess + 236
        0x080041d0:    eddf0a14    ....    VLDR     s1,[pc,#80] ; [0x8004224] = 0x40c90fdb
        0x080041d4:    ee300a20    0. .    VADD.F32 s0,s0,s1
        0x080041d8:    ed840a0d    ....    VSTR     s0,[r4,#0x34]
        0x080041dc:    ee09aa48    ..H.    VMLS.F32 s20,s18,s16
        0x080041e0:    ed840a0b    ....    VSTR     s0,[r4,#0x2c]
        0x080041e4:    ed940a03    ....    VLDR     s0,[r4,#0xc]
        0x080041e8:    ee48bac8    H...    VMLS.F32 s23,s17,s16
        0x080041ec:    ee7a0a0b    z...    VADD.F32 s1,s20,s22
        0x080041f0:    ee000aa9    ....    VMLA.F32 s0,s1,s19
        0x080041f4:    ee7b0aaa    {...    VADD.F32 s1,s23,s21
        0x080041f8:    ed840a03    ....    VSTR     s0,[r4,#0xc]
        0x080041fc:    ed940a04    ....    VLDR     s0,[r4,#0x10]
        0x08004200:    ee000aa9    ....    VMLA.F32 s0,s1,s19
        0x08004204:    ed840a04    ....    VSTR     s0,[r4,#0x10]
        0x08004208:    ecbd8b0c    ....    VPOP     {d8-d13}
        0x0800420c:    bd10        ..      POP      {r4,pc}
    $d
        0x0800420e:    0000        ..      DCW    0
        0x08004210:    20000090    ...     DCD    536871056
        0x08004214:    20000060    `..     DCD    536871008
        0x08004218:    40490fdb    ..I@    DCD    1078530011
        0x0800421c:    c0c90fdb    ....    DCD    3234402267
        0x08004220:    c0490fdb    ..I.    DCD    3226013659
        0x08004224:    40c90fdb    ...@    DCD    1086918619
    $t
    i.PCD_EP_ISR_Handler
    PCD_EP_ISR_Handler
        0x08004228:    e92d5ff0    -.._    PUSH     {r4-r12,lr}
        0x0800422c:    4605        .F      MOV      r5,r0
        0x0800422e:    6800        .h      LDR      r0,[r0,#0]
        0x08004230:    f8b00044    ..D.    LDRH     r0,[r0,#0x44]
        0x08004234:    f4104f00    ...O    TST      r0,#0x8000
        0x08004238:    f0008424    ..$.    BEQ.W    0x8004a84 ; PCD_EP_ISR_Handler + 2140
        0x0800423c:    f2404902    @..I    MOV      r9,#0x402
        0x08004240:    f2404806    @..H    MOV      r8,#0x406
        0x08004244:    2700        .'      MOVS     r7,#0
        0x08004246:    6828        (h      LDR      r0,[r5,#0]
        0x08004248:    f8b01044    ..D.    LDRH     r1,[r0,#0x44]
        0x0800424c:    f0110a0f    ....    ANDS     r10,r1,#0xf
        0x08004250:    d046        F.      BEQ      0x80042e0 ; PCD_EP_ISR_Handler + 184
        0x08004252:    f830602a    0.*`    LDRH     r6,[r0,r10,LSL #2]
        0x08004256:    f4164f00    ...O    TST      r6,#0x8000
        0x0800425a:    f00081b0    ....    BEQ.W    0x80045be ; PCD_EP_ISR_Handler + 918
        0x0800425e:    f830102a    0.*.    LDRH     r1,[r0,r10,LSL #2]
        0x08004262:    f0210170    !.p.    BIC      r1,r1,#0x70
        0x08004266:    f4214170    !.pA    BIC      r1,r1,#0xf000
        0x0800426a:    f0410180    A...    ORR      r1,r1,#0x80
        0x0800426e:    f820102a     .*.    STRH     r1,[r0,r10,LSL #2]
        0x08004272:    eb0a008a    ....    ADD      r0,r10,r10,LSL #2
        0x08004276:    eb0500c0    ....    ADD      r0,r5,r0,LSL #3
        0x0800427a:    f50074a8    ...t    ADD      r4,r0,#0x150
        0x0800427e:    f890015c    ..\.    LDRB     r0,[r0,#0x15c]
        0x08004282:    2800        .(      CMP      r0,#0
        0x08004284:    f00080f1    ....    BEQ.W    0x800446a ; PCD_EP_ISR_Handler + 578
        0x08004288:    78e0        .x      LDRB     r0,[r4,#3]
        0x0800428a:    2802        .(      CMP      r0,#2
        0x0800428c:    f0008100    ....    BEQ.W    0x8004490 ; PCD_EP_ISR_Handler + 616
        0x08004290:    7821        !x      LDRB     r1,[r4,#0]
        0x08004292:    6828        (h      LDR      r0,[r5,#0]
        0x08004294:    f8302021    0.!     LDRH     r2,[r0,r1,LSL #2]
        0x08004298:    f24803c0    H...    MOV      r3,#0x80c0
        0x0800429c:    f0220270    ".p.    BIC      r2,r2,#0x70
        0x080042a0:    f42242e0    "..B    BIC      r2,r2,#0x7000
        0x080042a4:    431a        .C      ORRS     r2,r2,r3
        0x080042a6:    f8202021     .!     STRH     r2,[r0,r1,LSL #2]
        0x080042aa:    7821        !x      LDRB     r1,[r4,#0]
        0x080042ac:    6828        (h      LDR      r0,[r5,#0]
        0x080042ae:    f8302021    0.!     LDRH     r2,[r0,r1,LSL #2]
        0x080042b2:    f4124f80    ...O    TST      r2,#0x4000
        0x080042b6:    f8b02050    ..P     LDRH     r2,[r0,#0x50]
        0x080042ba:    4402        .D      ADD      r2,r2,r0
        0x080042bc:    f000815e    ..^.    BEQ.W    0x800457c ; PCD_EP_ISR_Handler + 852
        0x080042c0:    eb0901c1    ....    ADD      r1,r9,r1,LSL #3
        0x080042c4:    5a51        QZ      LDRH     r1,[r2,r1]
        0x080042c6:    f3c10b09    ....    UBFX     r11,r1,#0,#10
        0x080042ca:    f1bb0f00    ....    CMP      r11,#0
        0x080042ce:    f0008162    ..b.    BEQ.W    0x8004596 ; PCD_EP_ISR_Handler + 878
        0x080042d2:    8922        ".      LDRH     r2,[r4,#8]
        0x080042d4:    465b        [F      MOV      r3,r11
        0x080042d6:    6961        ai      LDR      r1,[r4,#0x14]
        0x080042d8:    f002fd87    ....    BL       USB_ReadPMA ; 0x8006dea
        0x080042dc:    f000b95b    ..[.    B.W      0x8004596 ; PCD_EP_ISR_Handler + 878
        0x080042e0:    f0110f10    ....    TST      r1,#0x10
        0x080042e4:    d023        #.      BEQ      0x800432e ; PCD_EP_ISR_Handler + 262
        0x080042e6:    8801        ..      LDRH     r1,[r0,#0]
        0x080042e8:    f50574a8    ...t    ADD      r4,r5,#0x150
        0x080042ec:    f4116f00    ...o    TST      r1,#0x800
        0x080042f0:    d04a        J.      BEQ      0x8004388 ; PCD_EP_ISR_Handler + 352
        0x080042f2:    f8b01050    ..P.    LDRH     r1,[r0,#0x50]
        0x080042f6:    4401        .D      ADD      r1,r1,r0
        0x080042f8:    7820         x      LDRB     r0,[r4,#0]
        0x080042fa:    eb0800c0    ....    ADD      r0,r8,r0,LSL #3
        0x080042fe:    5a08        .Z      LDRH     r0,[r1,r0]
        0x08004300:    f5057126    ..&q    ADD      r1,r5,#0x298
        0x08004304:    f3c00309    ....    UBFX     r3,r0,#0,#10
        0x08004308:    61e3        .a      STR      r3,[r4,#0x1c]
        0x0800430a:    88e2        ..      LDRH     r2,[r4,#6]
        0x0800430c:    6828        (h      LDR      r0,[r5,#0]
        0x0800430e:    f002fd6c    ..l.    BL       USB_ReadPMA ; 0x8006dea
        0x08004312:    6829        )h      LDR      r1,[r5,#0]
        0x08004314:    8808        ..      LDRH     r0,[r1,#0]
        0x08004316:    f0200070     .p.    BIC      r0,r0,#0x70
        0x0800431a:    f4204070     .p@    BIC      r0,r0,#0xf000
        0x0800431e:    f0400080    @...    ORR      r0,r0,#0x80
        0x08004322:    8008        ..      STRH     r0,[r1,#0]
        0x08004324:    4628        (F      MOV      r0,r5
        0x08004326:    f7fdfd86    ....    BL       HAL_PCD_SetupStageCallback ; 0x8001e36
        0x0800432a:    f000bba4    ....    B.W      0x8004a76 ; PCD_EP_ISR_Handler + 2126
        0x0800432e:    8801        ..      LDRH     r1,[r0,#0]
        0x08004330:    f02101f0    !...    BIC      r1,r1,#0xf0
        0x08004334:    f42141e0    !..A    BIC      r1,r1,#0x7000
        0x08004338:    f4414100    A..A    ORR      r1,r1,#0x8000
        0x0800433c:    8001        ..      STRH     r1,[r0,#0]
        0x0800433e:    6828        (h      LDR      r0,[r5,#0]
        0x08004340:    f1050410    ....    ADD      r4,r5,#0x10
        0x08004344:    f8b01050    ..P.    LDRH     r1,[r0,#0x50]
        0x08004348:    4401        .D      ADD      r1,r1,r0
        0x0800434a:    7c28        (|      LDRB     r0,[r5,#0x10]
        0x0800434c:    eb0900c0    ....    ADD      r0,r9,r0,LSL #3
        0x08004350:    5a08        .Z      LDRH     r0,[r1,r0]
        0x08004352:    f3c00009    ....    UBFX     r0,r0,#0,#10
        0x08004356:    62e8        .b      STR      r0,[r5,#0x2c]
        0x08004358:    6a69        ij      LDR      r1,[r5,#0x24]
        0x0800435a:    4408        .D      ADD      r0,r0,r1
        0x0800435c:    6268        hb      STR      r0,[r5,#0x24]
        0x0800435e:    2100        .!      MOVS     r1,#0
        0x08004360:    4628        (F      MOV      r0,r5
        0x08004362:    f7fdfafd    ....    BL       HAL_PCD_DataInStageCallback ; 0x8001960
        0x08004366:    7b28        ({      LDRB     r0,[r5,#0xc]
        0x08004368:    2800        .(      CMP      r0,#0
        0x0800436a:    f0008384    ....    BEQ.W    0x8004a76 ; PCD_EP_ISR_Handler + 2126
        0x0800436e:    69a0        .i      LDR      r0,[r4,#0x18]
        0x08004370:    2800        .(      CMP      r0,#0
        0x08004372:    f0408380    @...    BNE.W    0x8004a76 ; PCD_EP_ISR_Handler + 2126
        0x08004376:    7b28        ({      LDRB     r0,[r5,#0xc]
        0x08004378:    6829        )h      LDR      r1,[r5,#0]
        0x0800437a:    f0400080    @...    ORR      r0,r0,#0x80
        0x0800437e:    f8a1004c    ..L.    STRH     r0,[r1,#0x4c]
        0x08004382:    732f        /s      STRB     r7,[r5,#0xc]
        0x08004384:    f000bb77    ..w.    B.W      0x8004a76 ; PCD_EP_ISR_Handler + 2126
        0x08004388:    f4114f00    ...O    TST      r1,#0x8000
        0x0800438c:    f0008373    ..s.    BEQ.W    0x8004a76 ; PCD_EP_ISR_Handler + 2126
        0x08004390:    8801        ..      LDRH     r1,[r0,#0]
        0x08004392:    f0210170    !.p.    BIC      r1,r1,#0x70
        0x08004396:    f4214170    !.pA    BIC      r1,r1,#0xf000
        0x0800439a:    f0410180    A...    ORR      r1,r1,#0x80
        0x0800439e:    8001        ..      STRH     r1,[r0,#0]
        0x080043a0:    6828        (h      LDR      r0,[r5,#0]
        0x080043a2:    f8b01050    ..P.    LDRH     r1,[r0,#0x50]
        0x080043a6:    4408        .D      ADD      r0,r0,r1
        0x080043a8:    7821        !x      LDRB     r1,[r4,#0]
        0x080043aa:    eb0801c1    ....    ADD      r1,r8,r1,LSL #3
        0x080043ae:    5a40        @Z      LDRH     r0,[r0,r1]
        0x080043b0:    0583        ..      LSLS     r3,r0,#22
        0x080043b2:    0d9b        ..      LSRS     r3,r3,#22
        0x080043b4:    61e3        .a      STR      r3,[r4,#0x1c]
        0x080043b6:    bf1c        ..      ITT      NE
        0x080043b8:    6961        ai      LDRNE    r1,[r4,#0x14]
        0x080043ba:    2900        .)      CMPNE    r1,#0
        0x080043bc:    d00b        ..      BEQ      0x80043d6 ; PCD_EP_ISR_Handler + 430
        0x080043be:    88e2        ..      LDRH     r2,[r4,#6]
        0x080043c0:    6828        (h      LDR      r0,[r5,#0]
        0x080043c2:    f002fd12    ....    BL       USB_ReadPMA ; 0x8006dea
        0x080043c6:    69e1        .i      LDR      r1,[r4,#0x1c]
        0x080043c8:    6960        `i      LDR      r0,[r4,#0x14]
        0x080043ca:    4408        .D      ADD      r0,r0,r1
        0x080043cc:    6160        `a      STR      r0,[r4,#0x14]
        0x080043ce:    2100        .!      MOVS     r1,#0
        0x080043d0:    4628        (F      MOV      r0,r5
        0x080043d2:    f7fdface    ....    BL       HAL_PCD_DataOutStageCallback ; 0x8001972
        0x080043d6:    6829        )h      LDR      r1,[r5,#0]
        0x080043d8:    8808        ..      LDRH     r0,[r1,#0]
        0x080043da:    f4106f00    ...o    TST      r0,#0x800
        0x080043de:    f040834a    @.J.    BNE.W    0x8004a76 ; PCD_EP_ISR_Handler + 2126
        0x080043e2:    f44f5240    O.@R    MOV      r2,#0x3000
        0x080043e6:    ea320000    2...    BICS     r0,r2,r0
        0x080043ea:    f0008344    ..D.    BEQ.W    0x8004a76 ; PCD_EP_ISR_Handler + 2126
        0x080043ee:    f8b10050    ..P.    LDRH     r0,[r1,#0x50]
        0x080043f2:    1842        B.      ADDS     r2,r0,r1
        0x080043f4:    f8b20406    ....    LDRH     r0,[r2,#0x406]
        0x080043f8:    f3c00009    ....    UBFX     r0,r0,#0,#10
        0x080043fc:    f8a20406    ....    STRH     r0,[r2,#0x406]
        0x08004400:    6921        !i      LDR      r1,[r4,#0x10]
        0x08004402:    f2024206    ...B    ADD      r2,r2,#0x406
        0x08004406:    293e        >)      CMP      r1,#0x3e
        0x08004408:    d90c        ..      BLS      0x8004424 ; PCD_EP_ISR_Handler + 508
        0x0800440a:    0948        H.      LSRS     r0,r1,#5
        0x0800440c:    f0110f1f    ....    TST      r1,#0x1f
        0x08004410:    bf08        ..      IT       EQ
        0x08004412:    1e40        @.      SUBEQ    r0,r0,#1
        0x08004414:    8813        ..      LDRH     r3,[r2,#0]
        0x08004416:    f44f4100    O..A    MOV      r1,#0x8000
        0x0800441a:    ea412080    A..     ORR      r0,r1,r0,LSL #10
        0x0800441e:    4318        .C      ORRS     r0,r0,r3
        0x08004420:    8010        ..      STRH     r0,[r2,#0]
        0x08004422:    e013        ..      B        0x800444c ; PCD_EP_ISR_Handler + 548
        0x08004424:    2900        .)      CMP      r1,#0
        0x08004426:    bf04        ..      ITT      EQ
        0x08004428:    8810        ..      LDRHEQ   r0,[r2,#0]
        0x0800442a:    f4404000    @..@    ORREQ    r0,r0,#0x8000
        0x0800442e:    d00c        ..      BEQ      0x800444a ; PCD_EP_ISR_Handler + 546
        0x08004430:    ea4f0051    O.Q.    LSR      r0,r1,#1
        0x08004434:    f0110f01    ....    TST      r1,#1
        0x08004438:    bf18        ..      IT       NE
        0x0800443a:    1c40        @.      ADDNE    r0,r0,#1
        0x0800443c:    8813        ..      LDRH     r3,[r2,#0]
        0x0800443e:    f64f71ff    O..q    MOV      r1,#0xffff
        0x08004442:    ea012080    ...     AND      r0,r1,r0,LSL #10
        0x08004446:    ea430000    C...    ORR      r0,r3,r0
        0x0800444a:    8010        ..      STRH     r0,[r2,#0]
        0x0800444c:    6828        (h      LDR      r0,[r5,#0]
        0x0800444e:    8801        ..      LDRH     r1,[r0,#0]
        0x08004450:    f2480280    H...    MOV      r2,#0x8080
        0x08004454:    f0210170    !.p.    BIC      r1,r1,#0x70
        0x08004458:    f4214180    !..A    BIC      r1,r1,#0x4000
        0x0800445c:    f4815140    ..@Q    EOR      r1,r1,#0x3000
        0x08004460:    ea410102    A...    ORR      r1,r1,r2
        0x08004464:    8001        ..      STRH     r1,[r0,#0]
        0x08004466:    f000bb06    ....    B.W      0x8004a76 ; PCD_EP_ISR_Handler + 2126
        0x0800446a:    6828        (h      LDR      r0,[r5,#0]
        0x0800446c:    f8b01050    ..P.    LDRH     r1,[r0,#0x50]
        0x08004470:    7822        "x      LDRB     r2,[r4,#0]
        0x08004472:    4401        .D      ADD      r1,r1,r0
        0x08004474:    eb0802c2    ....    ADD      r2,r8,r2,LSL #3
        0x08004478:    5a89        .Z      LDRH     r1,[r1,r2]
        0x0800447a:    f3c10b09    ....    UBFX     r11,r1,#0,#10
        0x0800447e:    f1bb0f00    ....    CMP      r11,#0
        0x08004482:    d043        C.      BEQ      0x800450c ; PCD_EP_ISR_Handler + 740
        0x08004484:    88e2        ..      LDRH     r2,[r4,#6]
        0x08004486:    465b        [F      MOV      r3,r11
        0x08004488:    6961        ai      LDR      r1,[r4,#0x14]
        0x0800448a:    f002fcae    ....    BL       USB_ReadPMA ; 0x8006dea
        0x0800448e:    e082        ..      B        0x8004596 ; PCD_EP_ISR_Handler + 878
        0x08004490:    6828        (h      LDR      r0,[r5,#0]
        0x08004492:    f4164f80    ...O    TST      r6,#0x4000
        0x08004496:    f8b01050    ..P.    LDRH     r1,[r0,#0x50]
        0x0800449a:    4408        .D      ADD      r0,r0,r1
        0x0800449c:    7821        !x      LDRB     r1,[r4,#0]
        0x0800449e:    d036        6.      BEQ      0x800450e ; PCD_EP_ISR_Handler + 742
        0x080044a0:    eb0901c1    ....    ADD      r1,r9,r1,LSL #3
        0x080044a4:    5a40        @Z      LDRH     r0,[r0,r1]
        0x080044a6:    f3c00b09    ....    UBFX     r11,r0,#0,#10
        0x080044aa:    69a0        .i      LDR      r0,[r4,#0x18]
        0x080044ac:    4583        .E      CMP      r11,r0
        0x080044ae:    bf88        ..      IT       HI
        0x080044b0:    61a7        .a      STRHI    r7,[r4,#0x18]
        0x080044b2:    d803        ..      BHI      0x80044bc ; PCD_EP_ISR_Handler + 660
        0x080044b4:    ebb0000b    ....    SUBS     r0,r0,r11
        0x080044b8:    61a0        .a      STR      r0,[r4,#0x18]
        0x080044ba:    d10e        ..      BNE      0x80044da ; PCD_EP_ISR_Handler + 690
        0x080044bc:    7820         x      LDRB     r0,[r4,#0]
        0x080044be:    6829        )h      LDR      r1,[r5,#0]
        0x080044c0:    f8312020    1.      LDRH     r2,[r1,r0,LSL #2]
        0x080044c4:    f2480380    H...    MOV      r3,#0x8080
        0x080044c8:    f0220270    ".p.    BIC      r2,r2,#0x70
        0x080044cc:    f4224280    "..B    BIC      r2,r2,#0x4000
        0x080044d0:    f4825200    ...R    EOR      r2,r2,#0x2000
        0x080044d4:    431a        .C      ORRS     r2,r2,r3
        0x080044d6:    f8212020    !.      STRH     r2,[r1,r0,LSL #2]
        0x080044da:    f0160f40    ..@.    TST      r6,#0x40
        0x080044de:    d00c        ..      BEQ      0x80044fa ; PCD_EP_ISR_Handler + 722
        0x080044e0:    7821        !x      LDRB     r1,[r4,#0]
        0x080044e2:    6828        (h      LDR      r0,[r5,#0]
        0x080044e4:    f8302021    0.!     LDRH     r2,[r0,r1,LSL #2]
        0x080044e8:    f24803c0    H...    MOV      r3,#0x80c0
        0x080044ec:    f0220270    ".p.    BIC      r2,r2,#0x70
        0x080044f0:    f42242e0    "..B    BIC      r2,r2,#0x7000
        0x080044f4:    431a        .C      ORRS     r2,r2,r3
        0x080044f6:    f8202021     .!     STRH     r2,[r0,r1,LSL #2]
        0x080044fa:    f1bb0f00    ....    CMP      r11,#0
        0x080044fe:    d04a        J.      BEQ      0x8004596 ; PCD_EP_ISR_Handler + 878
        0x08004500:    8922        ".      LDRH     r2,[r4,#8]
        0x08004502:    6961        ai      LDR      r1,[r4,#0x14]
        0x08004504:    465b        [F      MOV      r3,r11
        0x08004506:    6828        (h      LDR      r0,[r5,#0]
        0x08004508:    f002fc6f    ..o.    BL       USB_ReadPMA ; 0x8006dea
        0x0800450c:    e043        C.      B        0x8004596 ; PCD_EP_ISR_Handler + 878
        0x0800450e:    eb0801c1    ....    ADD      r1,r8,r1,LSL #3
        0x08004512:    5a40        @Z      LDRH     r0,[r0,r1]
        0x08004514:    f3c00b09    ....    UBFX     r11,r0,#0,#10
        0x08004518:    69a0        .i      LDR      r0,[r4,#0x18]
        0x0800451a:    4558        XE      CMP      r0,r11
        0x0800451c:    bf38        8.      IT       CC
        0x0800451e:    61a7        .a      STRCC    r7,[r4,#0x18]
        0x08004520:    d303        ..      BCC      0x800452a ; PCD_EP_ISR_Handler + 770
        0x08004522:    ebb0000b    ....    SUBS     r0,r0,r11
        0x08004526:    61a0        .a      STR      r0,[r4,#0x18]
        0x08004528:    d10e        ..      BNE      0x8004548 ; PCD_EP_ISR_Handler + 800
        0x0800452a:    7820         x      LDRB     r0,[r4,#0]
        0x0800452c:    6829        )h      LDR      r1,[r5,#0]
        0x0800452e:    f8312020    1.      LDRH     r2,[r1,r0,LSL #2]
        0x08004532:    f2480380    H...    MOV      r3,#0x8080
        0x08004536:    f0220270    ".p.    BIC      r2,r2,#0x70
        0x0800453a:    f4224280    "..B    BIC      r2,r2,#0x4000
        0x0800453e:    f4825200    ...R    EOR      r2,r2,#0x2000
        0x08004542:    431a        .C      ORRS     r2,r2,r3
        0x08004544:    f8212020    !.      STRH     r2,[r1,r0,LSL #2]
        0x08004548:    f0160f40    ..@.    TST      r6,#0x40
        0x0800454c:    d10c        ..      BNE      0x8004568 ; PCD_EP_ISR_Handler + 832
        0x0800454e:    7822        "x      LDRB     r2,[r4,#0]
        0x08004550:    6828        (h      LDR      r0,[r5,#0]
        0x08004552:    f8301022    0.".    LDRH     r1,[r0,r2,LSL #2]
        0x08004556:    f24803c0    H...    MOV      r3,#0x80c0
        0x0800455a:    f0210170    !.p.    BIC      r1,r1,#0x70
        0x0800455e:    f42141e0    !..A    BIC      r1,r1,#0x7000
        0x08004562:    4319        .C      ORRS     r1,r1,r3
        0x08004564:    f8201022     .".    STRH     r1,[r0,r2,LSL #2]
        0x08004568:    f1bb0f00    ....    CMP      r11,#0
        0x0800456c:    d013        ..      BEQ      0x8004596 ; PCD_EP_ISR_Handler + 878
        0x0800456e:    8962        b.      LDRH     r2,[r4,#0xa]
        0x08004570:    6961        ai      LDR      r1,[r4,#0x14]
        0x08004572:    465b        [F      MOV      r3,r11
        0x08004574:    6828        (h      LDR      r0,[r5,#0]
        0x08004576:    f002fc38    ..8.    BL       USB_ReadPMA ; 0x8006dea
        0x0800457a:    e00c        ..      B        0x8004596 ; PCD_EP_ISR_Handler + 878
        0x0800457c:    eb0801c1    ....    ADD      r1,r8,r1,LSL #3
        0x08004580:    5a51        QZ      LDRH     r1,[r2,r1]
        0x08004582:    f3c10b09    ....    UBFX     r11,r1,#0,#10
        0x08004586:    f1bb0f00    ....    CMP      r11,#0
        0x0800458a:    d004        ..      BEQ      0x8004596 ; PCD_EP_ISR_Handler + 878
        0x0800458c:    8962        b.      LDRH     r2,[r4,#0xa]
        0x0800458e:    465b        [F      MOV      r3,r11
        0x08004590:    6961        ai      LDR      r1,[r4,#0x14]
        0x08004592:    f002fc2a    ..*.    BL       USB_ReadPMA ; 0x8006dea
        0x08004596:    69e0        .i      LDR      r0,[r4,#0x1c]
        0x08004598:    4458        XD      ADD      r0,r0,r11
        0x0800459a:    61e0        .a      STR      r0,[r4,#0x1c]
        0x0800459c:    6960        `i      LDR      r0,[r4,#0x14]
        0x0800459e:    4458        XD      ADD      r0,r0,r11
        0x080045a0:    6160        `a      STR      r0,[r4,#0x14]
        0x080045a2:    69a0        .i      LDR      r0,[r4,#0x18]
        0x080045a4:    b110        ..      CBZ      r0,0x80045ac ; PCD_EP_ISR_Handler + 900
        0x080045a6:    6920         i      LDR      r0,[r4,#0x10]
        0x080045a8:    4558        XE      CMP      r0,r11
        0x080045aa:    d904        ..      BLS      0x80045b6 ; PCD_EP_ISR_Handler + 910
        0x080045ac:    7821        !x      LDRB     r1,[r4,#0]
        0x080045ae:    4628        (F      MOV      r0,r5
        0x080045b0:    f7fdf9df    ....    BL       HAL_PCD_DataOutStageCallback ; 0x8001972
        0x080045b4:    e003        ..      B        0x80045be ; PCD_EP_ISR_Handler + 918
        0x080045b6:    4621        !F      MOV      r1,r4
        0x080045b8:    6828        (h      LDR      r0,[r5,#0]
        0x080045ba:    f002f887    ....    BL       USB_EPStartXfer ; 0x80066cc
        0x080045be:    f0160f80    ....    TST      r6,#0x80
        0x080045c2:    f0008258    ..X.    BEQ.W    0x8004a76 ; PCD_EP_ISR_Handler + 2126
        0x080045c6:    eb0a008a    ....    ADD      r0,r10,r10,LSL #2
        0x080045ca:    6829        )h      LDR      r1,[r5,#0]
        0x080045cc:    eb0500c0    ....    ADD      r0,r5,r0,LSL #3
        0x080045d0:    f1000410    ....    ADD      r4,r0,#0x10
        0x080045d4:    f831002a    1.*.    LDRH     r0,[r1,r10,LSL #2]
        0x080045d8:    f02000f0     ...    BIC      r0,r0,#0xf0
        0x080045dc:    f42040e0     ..@    BIC      r0,r0,#0x7000
        0x080045e0:    f4404000    @..@    ORR      r0,r0,#0x8000
        0x080045e4:    f821002a    !.*.    STRH     r0,[r1,r10,LSL #2]
        0x080045e8:    78e0        .x      LDRB     r0,[r4,#3]
        0x080045ea:    2801        .(      CMP      r0,#1
        0x080045ec:    d02f        /.      BEQ      0x800464e ; PCD_EP_ISR_Handler + 1062
        0x080045ee:    f4167f80    ....    TST      r6,#0x100
        0x080045f2:    d078        x.      BEQ      0x80046e6 ; PCD_EP_ISR_Handler + 1214
        0x080045f4:    6828        (h      LDR      r0,[r5,#0]
        0x080045f6:    f0160f40    ..@.    TST      r6,#0x40
        0x080045fa:    f8b01050    ..P.    LDRH     r1,[r0,#0x50]
        0x080045fe:    f0008152    ..R.    BEQ.W    0x80048a6 ; PCD_EP_ISR_Handler + 1662
        0x08004602:    4401        .D      ADD      r1,r1,r0
        0x08004604:    7820         x      LDRB     r0,[r4,#0]
        0x08004606:    eb0900c0    ....    ADD      r0,r9,r0,LSL #3
        0x0800460a:    5a08        .Z      LDRH     r0,[r1,r0]
        0x0800460c:    f3c00109    ....    UBFX     r1,r0,#0,#10
        0x08004610:    69a0        .i      LDR      r0,[r4,#0x18]
        0x08004612:    4288        .B      CMP      r0,r1
        0x08004614:    bf98        ..      IT       LS
        0x08004616:    61a7        .a      STRLS    r7,[r4,#0x18]
        0x08004618:    d97e        ~.      BLS      0x8004718 ; PCD_EP_ISR_Handler + 1264
        0x0800461a:    1a40        @.      SUBS     r0,r0,r1
        0x0800461c:    61a0        .a      STR      r0,[r4,#0x18]
        0x0800461e:    d07b        {.      BEQ      0x8004718 ; PCD_EP_ISR_Handler + 1264
        0x08004620:    f4164f80    ...O    TST      r6,#0x4000
        0x08004624:    d00d        ..      BEQ      0x8004642 ; PCD_EP_ISR_Handler + 1050
        0x08004626:    7820         x      LDRB     r0,[r4,#0]
        0x08004628:    682a        *h      LDR      r2,[r5,#0]
        0x0800462a:    f8323020    2. 0    LDRH     r3,[r2,r0,LSL #2]
        0x0800462e:    f24c0c80    L...    MOV      r12,#0xc080
        0x08004632:    f0230370    #.p.    BIC      r3,r3,#0x70
        0x08004636:    f42343e0    #..C    BIC      r3,r3,#0x7000
        0x0800463a:    ea43030c    C...    ORR      r3,r3,r12
        0x0800463e:    f8223020    ". 0    STRH     r3,[r2,r0,LSL #2]
        0x08004642:    f8940024    ..$.    LDRB     r0,[r4,#0x24]
        0x08004646:    2801        .(      CMP      r0,#1
        0x08004648:    d067        g.      BEQ      0x800471a ; PCD_EP_ISR_Handler + 1266
        0x0800464a:    f000ba05    ....    B.W      0x8004a58 ; PCD_EP_ISR_Handler + 2096
        0x0800464e:    61a7        .a      STR      r7,[r4,#0x18]
        0x08004650:    7b20         {      LDRB     r0,[r4,#0xc]
        0x08004652:    b320         .      CBZ      r0,0x800469e ; PCD_EP_ISR_Handler + 1142
        0x08004654:    f0160f40    ..@.    TST      r6,#0x40
        0x08004658:    d022        ".      BEQ      0x80046a0 ; PCD_EP_ISR_Handler + 1144
        0x0800465a:    7860        `x      LDRB     r0,[r4,#1]
        0x0800465c:    b110        ..      CBZ      r0,0x8004664 ; PCD_EP_ISR_Handler + 1084
        0x0800465e:    2801        .(      CMP      r0,#1
        0x08004660:    d014        ..      BEQ      0x800468c ; PCD_EP_ISR_Handler + 1124
        0x08004662:    e061        a.      B        0x8004728 ; PCD_EP_ISR_Handler + 1280
        0x08004664:    6828        (h      LDR      r0,[r5,#0]
        0x08004666:    f8b01050    ..P.    LDRH     r1,[r0,#0x50]
        0x0800466a:    4408        .D      ADD      r0,r0,r1
        0x0800466c:    7821        !x      LDRB     r1,[r4,#0]
        0x0800466e:    eb0000c1    ....    ADD      r0,r0,r1,LSL #3
        0x08004672:    f8b01402    ....    LDRH     r1,[r0,#0x402]
        0x08004676:    f3c10109    ....    UBFX     r1,r1,#0,#10
        0x0800467a:    f8a01402    ....    STRH     r1,[r0,#0x402]
        0x0800467e:    f8b01402    ....    LDRH     r1,[r0,#0x402]
        0x08004682:    f4414100    A..A    ORR      r1,r1,#0x8000
        0x08004686:    f8a01402    ....    STRH     r1,[r0,#0x402]
        0x0800468a:    e04d        M.      B        0x8004728 ; PCD_EP_ISR_Handler + 1280
        0x0800468c:    6828        (h      LDR      r0,[r5,#0]
        0x0800468e:    f8b01050    ..P.    LDRH     r1,[r0,#0x50]
        0x08004692:    4408        .D      ADD      r0,r0,r1
        0x08004694:    7821        !x      LDRB     r1,[r4,#0]
        0x08004696:    eb0000c1    ....    ADD      r0,r0,r1,LSL #3
        0x0800469a:    f8a07402    ...t    STRH     r7,[r0,#0x402]
        0x0800469e:    e043        C.      B        0x8004728 ; PCD_EP_ISR_Handler + 1280
        0x080046a0:    7861        ax      LDRB     r1,[r4,#1]
        0x080046a2:    6828        (h      LDR      r0,[r5,#0]
        0x080046a4:    b111        ..      CBZ      r1,0x80046ac ; PCD_EP_ISR_Handler + 1156
        0x080046a6:    2901        .)      CMP      r1,#1
        0x080046a8:    d014        ..      BEQ      0x80046d4 ; PCD_EP_ISR_Handler + 1196
        0x080046aa:    e03d        =.      B        0x8004728 ; PCD_EP_ISR_Handler + 1280
        0x080046ac:    f8b01050    ..P.    LDRH     r1,[r0,#0x50]
        0x080046b0:    4408        .D      ADD      r0,r0,r1
        0x080046b2:    7821        !x      LDRB     r1,[r4,#0]
        0x080046b4:    eb0000c1    ....    ADD      r0,r0,r1,LSL #3
        0x080046b8:    f8b01406    ....    LDRH     r1,[r0,#0x406]
        0x080046bc:    f3c10109    ....    UBFX     r1,r1,#0,#10
        0x080046c0:    f8a01406    ....    STRH     r1,[r0,#0x406]
        0x080046c4:    f8b01406    ....    LDRH     r1,[r0,#0x406]
        0x080046c8:    f4414100    A..A    ORR      r1,r1,#0x8000
        0x080046cc:    f8a01406    ....    STRH     r1,[r0,#0x406]
        0x080046d0:    e02a        *.      B        0x8004728 ; PCD_EP_ISR_Handler + 1280
        0x080046d2:    e008        ..      B        0x80046e6 ; PCD_EP_ISR_Handler + 1214
        0x080046d4:    f8b01050    ..P.    LDRH     r1,[r0,#0x50]
        0x080046d8:    4408        .D      ADD      r0,r0,r1
        0x080046da:    7821        !x      LDRB     r1,[r4,#0]
        0x080046dc:    eb0000c1    ....    ADD      r0,r0,r1,LSL #3
        0x080046e0:    f8a07406    ...t    STRH     r7,[r0,#0x406]
        0x080046e4:    e020         .      B        0x8004728 ; PCD_EP_ISR_Handler + 1280
        0x080046e6:    6828        (h      LDR      r0,[r5,#0]
        0x080046e8:    f8b01050    ..P.    LDRH     r1,[r0,#0x50]
        0x080046ec:    4401        .D      ADD      r1,r1,r0
        0x080046ee:    7820         x      LDRB     r0,[r4,#0]
        0x080046f0:    eb0900c0    ....    ADD      r0,r9,r0,LSL #3
        0x080046f4:    5a08        .Z      LDRH     r0,[r1,r0]
        0x080046f6:    69a1        .i      LDR      r1,[r4,#0x18]
        0x080046f8:    f3c00009    ....    UBFX     r0,r0,#0,#10
        0x080046fc:    4281        .B      CMP      r1,r0
        0x080046fe:    bf98        ..      IT       LS
        0x08004700:    61a7        .a      STRLS    r7,[r4,#0x18]
        0x08004702:    d911        ..      BLS      0x8004728 ; PCD_EP_ISR_Handler + 1280
        0x08004704:    1a09        ..      SUBS     r1,r1,r0
        0x08004706:    61a1        .a      STR      r1,[r4,#0x18]
        0x08004708:    d00e        ..      BEQ      0x8004728 ; PCD_EP_ISR_Handler + 1280
        0x0800470a:    6961        ai      LDR      r1,[r4,#0x14]
        0x0800470c:    4401        .D      ADD      r1,r1,r0
        0x0800470e:    6161        aa      STR      r1,[r4,#0x14]
        0x08004710:    69e1        .i      LDR      r1,[r4,#0x1c]
        0x08004712:    4408        .D      ADD      r0,r0,r1
        0x08004714:    61e0        .a      STR      r0,[r4,#0x1c]
        0x08004716:    e001        ..      B        0x800471c ; PCD_EP_ISR_Handler + 1268
        0x08004718:    e00c        ..      B        0x8004734 ; PCD_EP_ISR_Handler + 1292
        0x0800471a:    e065        e.      B        0x80047e8 ; PCD_EP_ISR_Handler + 1472
        0x0800471c:    4621        !F      MOV      r1,r4
        0x0800471e:    6828        (h      LDR      r0,[r5,#0]
        0x08004720:    f001ffd4    ....    BL       USB_EPStartXfer ; 0x80066cc
        0x08004724:    f000b9a7    ....    B.W      0x8004a76 ; PCD_EP_ISR_Handler + 2126
        0x08004728:    7821        !x      LDRB     r1,[r4,#0]
        0x0800472a:    4628        (F      MOV      r0,r5
        0x0800472c:    f7fdf918    ....    BL       HAL_PCD_DataInStageCallback ; 0x8001960
        0x08004730:    f000b9a1    ....    B.W      0x8004a76 ; PCD_EP_ISR_Handler + 2126
        0x08004734:    7860        `x      LDRB     r0,[r4,#1]
        0x08004736:    b110        ..      CBZ      r0,0x800473e ; PCD_EP_ISR_Handler + 1302
        0x08004738:    2801        .(      CMP      r0,#1
        0x0800473a:    d014        ..      BEQ      0x8004766 ; PCD_EP_ISR_Handler + 1342
        0x0800473c:    e01c        ..      B        0x8004778 ; PCD_EP_ISR_Handler + 1360
        0x0800473e:    6828        (h      LDR      r0,[r5,#0]
        0x08004740:    f8b01050    ..P.    LDRH     r1,[r0,#0x50]
        0x08004744:    4408        .D      ADD      r0,r0,r1
        0x08004746:    7821        !x      LDRB     r1,[r4,#0]
        0x08004748:    eb0000c1    ....    ADD      r0,r0,r1,LSL #3
        0x0800474c:    f8b01402    ....    LDRH     r1,[r0,#0x402]
        0x08004750:    f3c10109    ....    UBFX     r1,r1,#0,#10
        0x08004754:    f8a01402    ....    STRH     r1,[r0,#0x402]
        0x08004758:    f8b01402    ....    LDRH     r1,[r0,#0x402]
        0x0800475c:    f4414100    A..A    ORR      r1,r1,#0x8000
        0x08004760:    f8a01402    ....    STRH     r1,[r0,#0x402]
        0x08004764:    e008        ..      B        0x8004778 ; PCD_EP_ISR_Handler + 1360
        0x08004766:    6828        (h      LDR      r0,[r5,#0]
        0x08004768:    f8b01050    ..P.    LDRH     r1,[r0,#0x50]
        0x0800476c:    4408        .D      ADD      r0,r0,r1
        0x0800476e:    7821        !x      LDRB     r1,[r4,#0]
        0x08004770:    eb0000c1    ....    ADD      r0,r0,r1,LSL #3
        0x08004774:    f8a07402    ...t    STRH     r7,[r0,#0x402]
        0x08004778:    7861        ax      LDRB     r1,[r4,#1]
        0x0800477a:    6828        (h      LDR      r0,[r5,#0]
        0x0800477c:    b111        ..      CBZ      r1,0x8004784 ; PCD_EP_ISR_Handler + 1372
        0x0800477e:    2901        .)      CMP      r1,#1
        0x08004780:    d013        ..      BEQ      0x80047aa ; PCD_EP_ISR_Handler + 1410
        0x08004782:    e01a        ..      B        0x80047ba ; PCD_EP_ISR_Handler + 1426
        0x08004784:    f8b01050    ..P.    LDRH     r1,[r0,#0x50]
        0x08004788:    4408        .D      ADD      r0,r0,r1
        0x0800478a:    7821        !x      LDRB     r1,[r4,#0]
        0x0800478c:    eb0000c1    ....    ADD      r0,r0,r1,LSL #3
        0x08004790:    f8b01406    ....    LDRH     r1,[r0,#0x406]
        0x08004794:    f3c10109    ....    UBFX     r1,r1,#0,#10
        0x08004798:    f8a01406    ....    STRH     r1,[r0,#0x406]
        0x0800479c:    f8b01406    ....    LDRH     r1,[r0,#0x406]
        0x080047a0:    f4414100    A..A    ORR      r1,r1,#0x8000
        0x080047a4:    f8a01406    ....    STRH     r1,[r0,#0x406]
        0x080047a8:    e007        ..      B        0x80047ba ; PCD_EP_ISR_Handler + 1426
        0x080047aa:    f8b01050    ..P.    LDRH     r1,[r0,#0x50]
        0x080047ae:    4408        .D      ADD      r0,r0,r1
        0x080047b0:    7821        !x      LDRB     r1,[r4,#0]
        0x080047b2:    eb0000c1    ....    ADD      r0,r0,r1,LSL #3
        0x080047b6:    f8a07406    ...t    STRH     r7,[r0,#0x406]
        0x080047ba:    7821        !x      LDRB     r1,[r4,#0]
        0x080047bc:    4628        (F      MOV      r0,r5
        0x080047be:    f7fdf8cf    ....    BL       HAL_PCD_DataInStageCallback ; 0x8001960
        0x080047c2:    f4164f80    ...O    TST      r6,#0x4000
        0x080047c6:    f0008147    ..G.    BEQ.W    0x8004a58 ; PCD_EP_ISR_Handler + 2096
        0x080047ca:    7821        !x      LDRB     r1,[r4,#0]
        0x080047cc:    6828        (h      LDR      r0,[r5,#0]
        0x080047ce:    f8302021    0.!     LDRH     r2,[r0,r1,LSL #2]
        0x080047d2:    f0220370    ".p.    BIC      r3,r2,#0x70
        0x080047d6:    f42343e0    #..C    BIC      r3,r3,#0x7000
        0x080047da:    f24c0280    L...    MOV      r2,#0xc080
        0x080047de:    431a        .C      ORRS     r2,r2,r3
        0x080047e0:    f8202021     .!     STRH     r2,[r0,r1,LSL #2]
        0x080047e4:    f000b938    ..8.    B.W      0x8004a58 ; PCD_EP_ISR_Handler + 2096
        0x080047e8:    6960        `i      LDR      r0,[r4,#0x14]
        0x080047ea:    4408        .D      ADD      r0,r0,r1
        0x080047ec:    6160        `a      STR      r0,[r4,#0x14]
        0x080047ee:    69e0        .i      LDR      r0,[r4,#0x1c]
        0x080047f0:    4408        .D      ADD      r0,r0,r1
        0x080047f2:    61e0        .a      STR      r0,[r4,#0x1c]
        0x080047f4:    6923        #i      LDR      r3,[r4,#0x10]
        0x080047f6:    6a20         j      LDR      r0,[r4,#0x20]
        0x080047f8:    4298        .B      CMP      r0,r3
        0x080047fa:    bf24        $.      ITT      CS
        0x080047fc:    1ac0        ..      SUBCS    r0,r0,r3
        0x080047fe:    6220         b      STRCS    r0,[r4,#0x20]
        0x08004800:    d207        ..      BCS      0x8004812 ; PCD_EP_ISR_Handler + 1514
        0x08004802:    2800        .(      CMP      r0,#0
        0x08004804:    bf08        ..      IT       EQ
        0x08004806:    460b        .F      MOVEQ    r3,r1
        0x08004808:    f8847024    ..$p    STRB     r7,[r4,#0x24]
        0x0800480c:    bf1c        ..      ITT      NE
        0x0800480e:    4603        .F      MOVNE    r3,r0
        0x08004810:    6227        'b      STRNE    r7,[r4,#0x20]
        0x08004812:    7860        `x      LDRB     r0,[r4,#1]
        0x08004814:    b110        ..      CBZ      r0,0x800481c ; PCD_EP_ISR_Handler + 1524
        0x08004816:    2801        .(      CMP      r0,#1
        0x08004818:    d035        5.      BEQ      0x8004886 ; PCD_EP_ISR_Handler + 1630
        0x0800481a:    e03d        =.      B        0x8004898 ; PCD_EP_ISR_Handler + 1648
        0x0800481c:    6828        (h      LDR      r0,[r5,#0]
        0x0800481e:    f8b01050    ..P.    LDRH     r1,[r0,#0x50]
        0x08004822:    4408        .D      ADD      r0,r0,r1
        0x08004824:    7821        !x      LDRB     r1,[r4,#0]
        0x08004826:    eb0000c1    ....    ADD      r0,r0,r1,LSL #3
        0x0800482a:    f8b01402    ....    LDRH     r1,[r0,#0x402]
        0x0800482e:    f3c10109    ....    UBFX     r1,r1,#0,#10
        0x08004832:    f8a01402    ....    STRH     r1,[r0,#0x402]
        0x08004836:    f2004002    ...@    ADD      r0,r0,#0x402
        0x0800483a:    2b3e        >+      CMP      r3,#0x3e
        0x0800483c:    d90e        ..      BLS      0x800485c ; PCD_EP_ISR_Handler + 1588
        0x0800483e:    0959        Y.      LSRS     r1,r3,#5
        0x08004840:    f0130f1f    ....    TST      r3,#0x1f
        0x08004844:    bf08        ..      IT       EQ
        0x08004846:    1e49        I.      SUBEQ    r1,r1,#1
        0x08004848:    f8b0c000    ....    LDRH     r12,[r0,#0]
        0x0800484c:    f44f4200    O..B    MOV      r2,#0x8000
        0x08004850:    ea422181    B..!    ORR      r1,r2,r1,LSL #10
        0x08004854:    ea4c0101    L...    ORR      r1,r12,r1
        0x08004858:    8001        ..      STRH     r1,[r0,#0]
        0x0800485a:    e01d        ..      B        0x8004898 ; PCD_EP_ISR_Handler + 1648
        0x0800485c:    2b00        .+      CMP      r3,#0
        0x0800485e:    bf04        ..      ITT      EQ
        0x08004860:    8801        ..      LDRHEQ   r1,[r0,#0]
        0x08004862:    f4414100    A..A    ORREQ    r1,r1,#0x8000
        0x08004866:    d0f7        ..      BEQ      0x8004858 ; PCD_EP_ISR_Handler + 1584
        0x08004868:    085a        Z.      LSRS     r2,r3,#1
        0x0800486a:    f0130f01    ....    TST      r3,#1
        0x0800486e:    bf18        ..      IT       NE
        0x08004870:    1c52        R.      ADDNE    r2,r2,#1
        0x08004872:    f8b0c000    ....    LDRH     r12,[r0,#0]
        0x08004876:    f64f71ff    O..q    MOV      r1,#0xffff
        0x0800487a:    ea012182    ...!    AND      r1,r1,r2,LSL #10
        0x0800487e:    ea4c0101    L...    ORR      r1,r12,r1
        0x08004882:    8001        ..      STRH     r1,[r0,#0]
        0x08004884:    e008        ..      B        0x8004898 ; PCD_EP_ISR_Handler + 1648
        0x08004886:    6828        (h      LDR      r0,[r5,#0]
        0x08004888:    f8b01050    ..P.    LDRH     r1,[r0,#0x50]
        0x0800488c:    4408        .D      ADD      r0,r0,r1
        0x0800488e:    7821        !x      LDRB     r1,[r4,#0]
        0x08004890:    eb0000c1    ....    ADD      r0,r0,r1,LSL #3
        0x08004894:    f8a03402    ...4    STRH     r3,[r0,#0x402]
        0x08004898:    b29b        ..      UXTH     r3,r3
        0x0800489a:    8922        ".      LDRH     r2,[r4,#8]
        0x0800489c:    6961        ai      LDR      r1,[r4,#0x14]
        0x0800489e:    6828        (h      LDR      r0,[r5,#0]
        0x080048a0:    f002fac0    ....    BL       USB_WritePMA ; 0x8006e24
        0x080048a4:    e0d8        ..      B        0x8004a58 ; PCD_EP_ISR_Handler + 2096
        0x080048a6:    4408        .D      ADD      r0,r0,r1
        0x080048a8:    7821        !x      LDRB     r1,[r4,#0]
        0x080048aa:    eb0801c1    ....    ADD      r1,r8,r1,LSL #3
        0x080048ae:    5a40        @Z      LDRH     r0,[r0,r1]
        0x080048b0:    69a1        .i      LDR      r1,[r4,#0x18]
        0x080048b2:    f3c00009    ....    UBFX     r0,r0,#0,#10
        0x080048b6:    4281        .B      CMP      r1,r0
        0x080048b8:    bf38        8.      IT       CC
        0x080048ba:    61a7        .a      STRCC    r7,[r4,#0x18]
        0x080048bc:    d306        ..      BCC      0x80048cc ; PCD_EP_ISR_Handler + 1700
        0x080048be:    1a09        ..      SUBS     r1,r1,r0
        0x080048c0:    61a1        .a      STR      r1,[r4,#0x18]
        0x080048c2:    d003        ..      BEQ      0x80048cc ; PCD_EP_ISR_Handler + 1700
        0x080048c4:    f4164f80    ...O    TST      r6,#0x4000
        0x080048c8:    d058        X.      BEQ      0x800497c ; PCD_EP_ISR_Handler + 1876
        0x080048ca:    e065        e.      B        0x8004998 ; PCD_EP_ISR_Handler + 1904
        0x080048cc:    7860        `x      LDRB     r0,[r4,#1]
        0x080048ce:    b110        ..      CBZ      r0,0x80048d6 ; PCD_EP_ISR_Handler + 1710
        0x080048d0:    2801        .(      CMP      r0,#1
        0x080048d2:    d014        ..      BEQ      0x80048fe ; PCD_EP_ISR_Handler + 1750
        0x080048d4:    e01c        ..      B        0x8004910 ; PCD_EP_ISR_Handler + 1768
        0x080048d6:    6828        (h      LDR      r0,[r5,#0]
        0x080048d8:    f8b01050    ..P.    LDRH     r1,[r0,#0x50]
        0x080048dc:    4408        .D      ADD      r0,r0,r1
        0x080048de:    7821        !x      LDRB     r1,[r4,#0]
        0x080048e0:    eb0000c1    ....    ADD      r0,r0,r1,LSL #3
        0x080048e4:    f8b01402    ....    LDRH     r1,[r0,#0x402]
        0x080048e8:    f3c10109    ....    UBFX     r1,r1,#0,#10
        0x080048ec:    f8a01402    ....    STRH     r1,[r0,#0x402]
        0x080048f0:    f8b01402    ....    LDRH     r1,[r0,#0x402]
        0x080048f4:    f4414100    A..A    ORR      r1,r1,#0x8000
        0x080048f8:    f8a01402    ....    STRH     r1,[r0,#0x402]
        0x080048fc:    e008        ..      B        0x8004910 ; PCD_EP_ISR_Handler + 1768
        0x080048fe:    6828        (h      LDR      r0,[r5,#0]
        0x08004900:    f8b01050    ..P.    LDRH     r1,[r0,#0x50]
        0x08004904:    4408        .D      ADD      r0,r0,r1
        0x08004906:    7821        !x      LDRB     r1,[r4,#0]
        0x08004908:    eb0000c1    ....    ADD      r0,r0,r1,LSL #3
        0x0800490c:    f8a07402    ...t    STRH     r7,[r0,#0x402]
        0x08004910:    7861        ax      LDRB     r1,[r4,#1]
        0x08004912:    6828        (h      LDR      r0,[r5,#0]
        0x08004914:    b111        ..      CBZ      r1,0x800491c ; PCD_EP_ISR_Handler + 1780
        0x08004916:    2901        .)      CMP      r1,#1
        0x08004918:    d013        ..      BEQ      0x8004942 ; PCD_EP_ISR_Handler + 1818
        0x0800491a:    e01a        ..      B        0x8004952 ; PCD_EP_ISR_Handler + 1834
        0x0800491c:    f8b01050    ..P.    LDRH     r1,[r0,#0x50]
        0x08004920:    4408        .D      ADD      r0,r0,r1
        0x08004922:    7821        !x      LDRB     r1,[r4,#0]
        0x08004924:    eb0000c1    ....    ADD      r0,r0,r1,LSL #3
        0x08004928:    f8b01406    ....    LDRH     r1,[r0,#0x406]
        0x0800492c:    f3c10109    ....    UBFX     r1,r1,#0,#10
        0x08004930:    f8a01406    ....    STRH     r1,[r0,#0x406]
        0x08004934:    f8b01406    ....    LDRH     r1,[r0,#0x406]
        0x08004938:    f4414100    A..A    ORR      r1,r1,#0x8000
        0x0800493c:    f8a01406    ....    STRH     r1,[r0,#0x406]
        0x08004940:    e007        ..      B        0x8004952 ; PCD_EP_ISR_Handler + 1834
        0x08004942:    f8b01050    ..P.    LDRH     r1,[r0,#0x50]
        0x08004946:    4408        .D      ADD      r0,r0,r1
        0x08004948:    7821        !x      LDRB     r1,[r4,#0]
        0x0800494a:    eb0000c1    ....    ADD      r0,r0,r1,LSL #3
        0x0800494e:    f8a07406    ...t    STRH     r7,[r0,#0x406]
        0x08004952:    7821        !x      LDRB     r1,[r4,#0]
        0x08004954:    4628        (F      MOV      r0,r5
        0x08004956:    f7fdf803    ....    BL       HAL_PCD_DataInStageCallback ; 0x8001960
        0x0800495a:    f4164f80    ...O    TST      r6,#0x4000
        0x0800495e:    d17b        {.      BNE      0x8004a58 ; PCD_EP_ISR_Handler + 2096
        0x08004960:    7820         x      LDRB     r0,[r4,#0]
        0x08004962:    682a        *h      LDR      r2,[r5,#0]
        0x08004964:    f8321020    2. .    LDRH     r1,[r2,r0,LSL #2]
        0x08004968:    f24c0380    L...    MOV      r3,#0xc080
        0x0800496c:    f0210170    !.p.    BIC      r1,r1,#0x70
        0x08004970:    f42141e0    !..A    BIC      r1,r1,#0x7000
        0x08004974:    4319        .C      ORRS     r1,r1,r3
        0x08004976:    f8221020    ". .    STRH     r1,[r2,r0,LSL #2]
        0x0800497a:    e06d        m.      B        0x8004a58 ; PCD_EP_ISR_Handler + 2096
        0x0800497c:    7822        "x      LDRB     r2,[r4,#0]
        0x0800497e:    6829        )h      LDR      r1,[r5,#0]
        0x08004980:    f8313022    1."0    LDRH     r3,[r1,r2,LSL #2]
        0x08004984:    f0230c70    #.p.    BIC      r12,r3,#0x70
        0x08004988:    f42c4ce0    ,..L    BIC      r12,r12,#0x7000
        0x0800498c:    f24c0380    L...    MOV      r3,#0xc080
        0x08004990:    ea4c0303    L...    ORR      r3,r12,r3
        0x08004994:    f8213022    !."0    STRH     r3,[r1,r2,LSL #2]
        0x08004998:    f8941024    ..$.    LDRB     r1,[r4,#0x24]
        0x0800499c:    2901        .)      CMP      r1,#1
        0x0800499e:    d15b        [.      BNE      0x8004a58 ; PCD_EP_ISR_Handler + 2096
        0x080049a0:    6961        ai      LDR      r1,[r4,#0x14]
        0x080049a2:    4401        .D      ADD      r1,r1,r0
        0x080049a4:    6161        aa      STR      r1,[r4,#0x14]
        0x080049a6:    69e1        .i      LDR      r1,[r4,#0x1c]
        0x080049a8:    4401        .D      ADD      r1,r1,r0
        0x080049aa:    61e1        .a      STR      r1,[r4,#0x1c]
        0x080049ac:    6922        "i      LDR      r2,[r4,#0x10]
        0x080049ae:    6a21        !j      LDR      r1,[r4,#0x20]
        0x080049b0:    4291        .B      CMP      r1,r2
        0x080049b2:    d308        ..      BCC      0x80049c6 ; PCD_EP_ISR_Handler + 1950
        0x080049b4:    4610        .F      MOV      r0,r2
        0x080049b6:    1a09        ..      SUBS     r1,r1,r0
        0x080049b8:    6221        !b      STR      r1,[r4,#0x20]
        0x080049ba:    7862        bx      LDRB     r2,[r4,#1]
        0x080049bc:    6829        )h      LDR      r1,[r5,#0]
        0x080049be:    b14a        J.      CBZ      r2,0x80049d4 ; PCD_EP_ISR_Handler + 1964
        0x080049c0:    2a01        .*      CMP      r2,#1
        0x080049c2:    d03b        ;.      BEQ      0x8004a3c ; PCD_EP_ISR_Handler + 2068
        0x080049c4:    e042        B.      B        0x8004a4c ; PCD_EP_ISR_Handler + 2084
        0x080049c6:    2900        .)      CMP      r1,#0
        0x080049c8:    bf1c        ..      ITT      NE
        0x080049ca:    4608        .F      MOVNE    r0,r1
        0x080049cc:    6227        'b      STRNE    r7,[r4,#0x20]
        0x080049ce:    f8847024    ..$p    STRB     r7,[r4,#0x24]
        0x080049d2:    e7f2        ..      B        0x80049ba ; PCD_EP_ISR_Handler + 1938
        0x080049d4:    f8b12050    ..P     LDRH     r2,[r1,#0x50]
        0x080049d8:    4411        .D      ADD      r1,r1,r2
        0x080049da:    7822        "x      LDRB     r2,[r4,#0]
        0x080049dc:    eb0102c2    ....    ADD      r2,r1,r2,LSL #3
        0x080049e0:    f8b21406    ....    LDRH     r1,[r2,#0x406]
        0x080049e4:    f3c10109    ....    UBFX     r1,r1,#0,#10
        0x080049e8:    f8a21406    ....    STRH     r1,[r2,#0x406]
        0x080049ec:    f2024206    ...B    ADD      r2,r2,#0x406
        0x080049f0:    283e        >(      CMP      r0,#0x3e
        0x080049f2:    d90e        ..      BLS      0x8004a12 ; PCD_EP_ISR_Handler + 2026
        0x080049f4:    0941        A.      LSRS     r1,r0,#5
        0x080049f6:    f0100f1f    ....    TST      r0,#0x1f
        0x080049fa:    bf08        ..      IT       EQ
        0x080049fc:    1e49        I.      SUBEQ    r1,r1,#1
        0x080049fe:    f8b2c000    ....    LDRH     r12,[r2,#0]
        0x08004a02:    f44f4300    O..C    MOV      r3,#0x8000
        0x08004a06:    ea432181    C..!    ORR      r1,r3,r1,LSL #10
        0x08004a0a:    ea4c0101    L...    ORR      r1,r12,r1
        0x08004a0e:    8011        ..      STRH     r1,[r2,#0]
        0x08004a10:    e01c        ..      B        0x8004a4c ; PCD_EP_ISR_Handler + 2084
        0x08004a12:    2800        .(      CMP      r0,#0
        0x08004a14:    bf04        ..      ITT      EQ
        0x08004a16:    8811        ..      LDRHEQ   r1,[r2,#0]
        0x08004a18:    f4414100    A..A    ORREQ    r1,r1,#0x8000
        0x08004a1c:    d0f7        ..      BEQ      0x8004a0e ; PCD_EP_ISR_Handler + 2022
        0x08004a1e:    0841        A.      LSRS     r1,r0,#1
        0x08004a20:    f0100f01    ....    TST      r0,#1
        0x08004a24:    bf18        ..      IT       NE
        0x08004a26:    1c49        I.      ADDNE    r1,r1,#1
        0x08004a28:    f8b2c000    ....    LDRH     r12,[r2,#0]
        0x08004a2c:    f64f73ff    O..s    MOV      r3,#0xffff
        0x08004a30:    ea032181    ...!    AND      r1,r3,r1,LSL #10
        0x08004a34:    ea4c0101    L...    ORR      r1,r12,r1
        0x08004a38:    8011        ..      STRH     r1,[r2,#0]
        0x08004a3a:    e007        ..      B        0x8004a4c ; PCD_EP_ISR_Handler + 2084
        0x08004a3c:    f8b12050    ..P     LDRH     r2,[r1,#0x50]
        0x08004a40:    4411        .D      ADD      r1,r1,r2
        0x08004a42:    7822        "x      LDRB     r2,[r4,#0]
        0x08004a44:    eb0101c2    ....    ADD      r1,r1,r2,LSL #3
        0x08004a48:    f8a10406    ....    STRH     r0,[r1,#0x406]
        0x08004a4c:    b283        ..      UXTH     r3,r0
        0x08004a4e:    8962        b.      LDRH     r2,[r4,#0xa]
        0x08004a50:    6961        ai      LDR      r1,[r4,#0x14]
        0x08004a52:    6828        (h      LDR      r0,[r5,#0]
        0x08004a54:    f002f9e6    ....    BL       USB_WritePMA ; 0x8006e24
        0x08004a58:    7821        !x      LDRB     r1,[r4,#0]
        0x08004a5a:    682a        *h      LDR      r2,[r5,#0]
        0x08004a5c:    f8320021    2.!.    LDRH     r0,[r2,r1,LSL #2]
        0x08004a60:    f4205041     .AP    BIC      r0,r0,#0x3040
        0x08004a64:    f4204080     ..@    BIC      r0,r0,#0x4000
        0x08004a68:    f0800330    ..0.    EOR      r3,r0,#0x30
        0x08004a6c:    f2480080    H...    MOV      r0,#0x8080
        0x08004a70:    4318        .C      ORRS     r0,r0,r3
        0x08004a72:    f8220021    ".!.    STRH     r0,[r2,r1,LSL #2]
        0x08004a76:    6828        (h      LDR      r0,[r5,#0]
        0x08004a78:    f8b00044    ..D.    LDRH     r0,[r0,#0x44]
        0x08004a7c:    f4104f00    ...O    TST      r0,#0x8000
        0x08004a80:    f47fabe1    ....    BNE      0x8004246 ; PCD_EP_ISR_Handler + 30
        0x08004a84:    2000        .       MOVS     r0,#0
        0x08004a86:    e8bd9ff0    ....    POP      {r4-r12,pc}
    i.PendSV_Handler
    PendSV_Handler
        0x08004a8a:    4770        pG      BX       lr
    i.PerformanceCriticalTask
    PerformanceCriticalTask
        0x08004a8c:    b530        0.      PUSH     {r4,r5,lr}
        0x08004a8e:    b083        ..      SUB      sp,sp,#0xc
        0x08004a90:    f7fdfe3e    ..>.    BL       Harware_GetCurrentAB ; 0x8002710
        0x08004a94:    4d56        VM      LDR      r5,[pc,#344] ; [0x8004bf0] = 0x20000098
        0x08004a96:    6828        (h      LDR      r0,[r5,#0]
        0x08004a98:    ed800a0f    ....    VSTR     s0,[r0,#0x3c]
        0x08004a9c:    edc00a10    ....    VSTR     s1,[r0,#0x40]
        0x08004aa0:    f7fdfc72    ..r.    BL       Hardware_GetPhaseVoltage ; 0x8002388
        0x08004aa4:    682c        ,h      LDR      r4,[r5,#0]
        0x08004aa6:    ed940a01    ....    VLDR     s0,[r4,#4]
        0x08004aaa:    ed941a02    ....    VLDR     s2,[r4,#8]
        0x08004aae:    edd40a03    ....    VLDR     s1,[r4,#0xc]
        0x08004ab2:    ee701a01    p...    VADD.F32 s3,s0,s2
        0x08004ab6:    ee711aa0    q...    VADD.F32 s3,s3,s1
        0x08004aba:    ed9f2a4e    ..N*    VLDR     s4,[pc,#312] ; [0x8004bf4] = 0x3eaaaaab
        0x08004abe:    f1040010    ....    ADD      r0,r4,#0x10
        0x08004ac2:    ee611a82    a...    VMUL.F32 s3,s3,s4
        0x08004ac6:    ee300a61    0.a.    VSUB.F32 s0,s0,s3
        0x08004aca:    ed840a04    ....    VSTR     s0,[r4,#0x10]
        0x08004ace:    ee310a61    1.a.    VSUB.F32 s0,s2,s3
        0x08004ad2:    ed840a05    ....    VSTR     s0,[r4,#0x14]
        0x08004ad6:    ee300ae1    0...    VSUB.F32 s0,s1,s3
        0x08004ada:    ed840a06    ....    VSTR     s0,[r4,#0x18]
        0x08004ade:    f7fbfcf7    ....    BL       Abc_AlphaBeta_Trans ; 0x80004d0
        0x08004ae2:    ed8d0a00    ....    VSTR     s0,[sp,#0]
        0x08004ae6:    edcd0a01    ....    VSTR     s1,[sp,#4]
        0x08004aea:    6828        (h      LDR      r0,[r5,#0]
        0x08004aec:    f1000124    ..$.    ADD      r1,r0,#0x24
        0x08004af0:    4668        hF      MOV      r0,sp
        0x08004af2:    f7fbfd37    ..7.    BL       AlphaBeta_Dq_Trans ; 0x8000564
        0x08004af6:    4840        @H      LDR      r0,[pc,#256] ; [0x8004bf8] = 0x20000060
        0x08004af8:    ed840a07    ....    VSTR     s0,[r4,#0x1c]
        0x08004afc:    edc40a08    ....    VSTR     s1,[r4,#0x20]
        0x08004b00:    6800        .h      LDR      r0,[r0,#0]
        0x08004b02:    f9901008    ....    LDRSB    r1,[r0,#8]
        0x08004b06:    2904        .)      CMP      r1,#4
        0x08004b08:    d006        ..      BEQ      0x8004b18 ; PerformanceCriticalTask + 140
        0x08004b0a:    2902        .)      CMP      r1,#2
        0x08004b0c:    bf04        ..      ITT      EQ
        0x08004b0e:    f8901020    .. .    LDRBEQ   r1,[r0,#0x20]
        0x08004b12:    2900        .)      CMPEQ    r1,#0
        0x08004b14:    d04b        K.      BEQ      0x8004bae ; PerformanceCriticalTask + 290
        0x08004b16:    e066        f.      B        0x8004be6 ; PerformanceCriticalTask + 346
        0x08004b18:    6829        )h      LDR      r1,[r5,#0]
        0x08004b1a:    ed910a0f    ....    VLDR     s0,[r1,#0x3c]
        0x08004b1e:    edd10a0d    ....    VLDR     s1,[r1,#0x34]
        0x08004b22:    ee300a60    0.`.    VSUB.F32 s0,s0,s1
        0x08004b26:    ed810a0f    ....    VSTR     s0,[r1,#0x3c]
        0x08004b2a:    ed910a10    ....    VLDR     s0,[r1,#0x40]
        0x08004b2e:    edd10a0e    ....    VLDR     s1,[r1,#0x38]
        0x08004b32:    ee300a60    0.`.    VSUB.F32 s0,s0,s1
        0x08004b36:    ed810a10    ....    VSTR     s0,[r1,#0x40]
        0x08004b3a:    7c00        .|      LDRB     r0,[r0,#0x10]
        0x08004b3c:    2809        .(      CMP      r0,#9
        0x08004b3e:    d21d        ..      BCS      0x8004b7c ; PerformanceCriticalTask + 240
        0x08004b40:    e8dff000    ....    TBB      [pc,r0]
    $d
        0x08004b44:    0b081c05    ....    DCD    185080837
        0x08004b48:    1714110e    ....    DCD    387191054
        0x08004b4c:    001a        ..      DCW    26
    $t
        0x08004b4e:    f7fcfa6b    ..k.    BL       FOC_Method_IncABZ ; 0x8001028
        0x08004b52:    e013        ..      B        0x8004b7c ; PerformanceCriticalTask + 240
        0x08004b54:    f7fcfd50    ..P.    BL       FOC_Method_ParIdentify ; 0x80015f8
        0x08004b58:    e010        ..      B        0x8004b7c ; PerformanceCriticalTask + 240
        0x08004b5a:    f7fcfb6b    ..k.    BL       FOC_Method_NonlinearFlux ; 0x8001234
        0x08004b5e:    e00d        ..      B        0x8004b7c ; PerformanceCriticalTask + 240
        0x08004b60:    f7fcfc18    ....    BL       FOC_Method_NonlinearFlux_Debug ; 0x8001394
        0x08004b64:    e00a        ..      B        0x8004b7c ; PerformanceCriticalTask + 240
        0x08004b66:    f7fbffb9    ....    BL       FOC_Method_IF_Luenberger ; 0x8000adc
        0x08004b6a:    e007        ..      B        0x8004b7c ; PerformanceCriticalTask + 240
        0x08004b6c:    f7fcf8fe    ....    BL       FOC_Method_IF_Luenberger_Debug ; 0x8000d6c
        0x08004b70:    e004        ..      B        0x8004b7c ; PerformanceCriticalTask + 240
        0x08004b72:    f7fbfdad    ....    BL       FOC_Method_HFPI_WithoutNS ; 0x80006d0
        0x08004b76:    e001        ..      B        0x8004b7c ; PerformanceCriticalTask + 240
        0x08004b78:    f7fbfeca    ....    BL       FOC_Method_HFSI_WithoutNS ; 0x8000910
        0x08004b7c:    6828        (h      LDR      r0,[r5,#0]
        0x08004b7e:    4c1f        .L      LDR      r4,[pc,#124] ; [0x8004bfc] = 0x2000008c
        0x08004b80:    f1000124    ..$.    ADD      r1,r0,#0x24
        0x08004b84:    6820         h      LDR      r0,[r4,#0]
        0x08004b86:    3008        .0      ADDS     r0,r0,#8
        0x08004b88:    f7fbfd6d    ..m.    BL       Dq_AlphaBeta_Trans ; 0x8000666
        0x08004b8c:    6820         h      LDR      r0,[r4,#0]
        0x08004b8e:    ed800a04    ....    VSTR     s0,[r0,#0x10]
        0x08004b92:    edc00a05    ....    VSTR     s1,[r0,#0x14]
        0x08004b96:    6829        )h      LDR      r1,[r5,#0]
        0x08004b98:    ed910a0b    ....    VLDR     s0,[r1,#0x2c]
        0x08004b9c:    f000f954    ..T.    BL       SectorCalModeSvpwm ; 0x8004e48
        0x08004ba0:    6820         h      LDR      r0,[r4,#0]
        0x08004ba2:    8c82        ..      LDRH     r2,[r0,#0x24]
        0x08004ba4:    8c41        A.      LDRH     r1,[r0,#0x22]
        0x08004ba6:    8c00        ..      LDRH     r0,[r0,#0x20]
        0x08004ba8:    f7fdfd58    ..X.    BL       Hardware_SetCCR ; 0x800265c
        0x08004bac:    e01b        ..      B        0x8004be6 ; PerformanceCriticalTask + 346
        0x08004bae:    6841        Ah      LDR      r1,[r0,#4]
        0x08004bb0:    1c49        I.      ADDS     r1,r1,#1
        0x08004bb2:    6041        A`      STR      r1,[r0,#4]
        0x08004bb4:    2965        e)      CMP      r1,#0x65
        0x08004bb6:    d011        ..      BEQ      0x8004bdc ; PerformanceCriticalTask + 336
        0x08004bb8:    682a        *h      LDR      r2,[r5,#0]
        0x08004bba:    4b11        .K      LDR      r3,[pc,#68] ; [0x8004c00] = 0x200002f4
        0x08004bbc:    ed920a0f    ....    VLDR     s0,[r2,#0x3c]
        0x08004bc0:    eb030181    ....    ADD      r1,r3,r1,LSL #2
        0x08004bc4:    ed810a00    ....    VSTR     s0,[r1,#0]
        0x08004bc8:    6840        @h      LDR      r0,[r0,#4]
        0x08004bca:    f50371c8    ...q    ADD      r1,r3,#0x190
        0x08004bce:    ed920a10    ....    VLDR     s0,[r2,#0x40]
        0x08004bd2:    eb010080    ....    ADD      r0,r1,r0,LSL #2
        0x08004bd6:    ed800a00    ....    VSTR     s0,[r0,#0]
        0x08004bda:    e004        ..      B        0x8004be6 ; PerformanceCriticalTask + 346
        0x08004bdc:    2100        .!      MOVS     r1,#0
        0x08004bde:    6041        A`      STR      r1,[r0,#4]
        0x08004be0:    2101        .!      MOVS     r1,#1
        0x08004be2:    f8801020    .. .    STRB     r1,[r0,#0x20]
        0x08004be6:    b003        ..      ADD      sp,sp,#0xc
        0x08004be8:    e8bd4030    ..0@    POP      {r4,r5,lr}
        0x08004bec:    f7fdbc54    ..T.    B        Hardware_PerformanceTaskEvent ; 0x8002498
    $d
        0x08004bf0:    20000098    ...     DCD    536871064
        0x08004bf4:    3eaaaaab    ...>    DCD    1051372203
        0x08004bf8:    20000060    `..     DCD    536871008
        0x08004bfc:    2000008c    ...     DCD    536871052
        0x08004c00:    200002f4    ...     DCD    536871668
    $t
    i.RCC_GetSystemClockFreq
    RCC_GetSystemClockFreq
        0x08004c04:    4915        .I      LDR      r1,[pc,#84] ; [0x8004c5c] = 0x40021000
        0x08004c06:    6888        .h      LDR      r0,[r1,#8]
        0x08004c08:    f000030c    ....    AND      r3,r0,#0xc
        0x08004c0c:    4814        .H      LDR      r0,[pc,#80] ; [0x8004c60] = 0xf42400
        0x08004c0e:    2b04        .+      CMP      r3,#4
        0x08004c10:    bf08        ..      IT       EQ
        0x08004c12:    4770        pG      BXEQ     lr
        0x08004c14:    4a13        .J      LDR      r2,[pc,#76] ; [0x8004c64] = 0x7a1200
        0x08004c16:    2b08        .+      CMP      r3,#8
        0x08004c18:    bf04        ..      ITT      EQ
        0x08004c1a:    4610        .F      MOVEQ    r0,r2
        0x08004c1c:    4770        pG      BXEQ     lr
        0x08004c1e:    2b0c        .+      CMP      r3,#0xc
        0x08004c20:    bf18        ..      IT       NE
        0x08004c22:    4770        pG      BXNE     lr
        0x08004c24:    68cb        .h      LDR      r3,[r1,#0xc]
        0x08004c26:    f0030303    ....    AND      r3,r3,#3
        0x08004c2a:    2b02        .+      CMP      r3,#2
        0x08004c2c:    d002        ..      BEQ      0x8004c34 ; RCC_GetSystemClockFreq + 48
        0x08004c2e:    2b03        .+      CMP      r3,#3
        0x08004c30:    bf08        ..      IT       EQ
        0x08004c32:    4610        .F      MOVEQ    r0,r2
        0x08004c34:    68ca        .h      LDR      r2,[r1,#0xc]
        0x08004c36:    f3c22206    ..."    UBFX     r2,r2,#8,#7
        0x08004c3a:    4342        BC      MULS     r2,r0,r2
        0x08004c3c:    68c8        .h      LDR      r0,[r1,#0xc]
        0x08004c3e:    2301        .#      MOVS     r3,#1
        0x08004c40:    f00000f0    ....    AND      r0,r0,#0xf0
        0x08004c44:    eb031010    ....    ADD      r0,r3,r0,LSR #4
        0x08004c48:    fbb2f0f0    ....    UDIV     r0,r2,r0
        0x08004c4c:    68c9        .h      LDR      r1,[r1,#0xc]
        0x08004c4e:    f3c16141    ..Aa    UBFX     r1,r1,#25,#2
        0x08004c52:    1c49        I.      ADDS     r1,r1,#1
        0x08004c54:    0049        I.      LSLS     r1,r1,#1
        0x08004c56:    fbb0f0f1    ....    UDIV     r0,r0,r1
        0x08004c5a:    4770        pG      BX       lr
    $d
        0x08004c5c:    40021000    ...@    DCD    1073876992
        0x08004c60:    00f42400    .$..    DCD    16000000
        0x08004c64:    007a1200    ..z.    DCD    8000000
    $t
    i.SEGGER_RTT_Init
    SEGGER_RTT_Init
        0x08004c68:    f002b8f0    ....    B.W      _DoInit ; 0x8006e4c
    i.SVC_Handler
    SVC_Handler
        0x08004c6c:    4770        pG      BX       lr
        0x08004c6e:    0000        ..      MOVS     r0,r0
    i.SafetyTask
    SafetyTask
        0x08004c70:    e92d5ff0    -.._    PUSH     {r4-r12,lr}
        0x08004c74:    4c69        iL      LDR      r4,[pc,#420] ; [0x8004e1c] = 0x20000060
        0x08004c76:    f8dfa1a8    ....    LDR      r10,[pc,#424] ; [0x8004e20] = 0x20000614
        0x08004c7a:    2500        .%      MOVS     r5,#0
        0x08004c7c:    ed2d8b02    -...    VPUSH    {d8}
        0x08004c80:    f04f0802    O...    MOV      r8,#2
        0x08004c84:    6820         h      LDR      r0,[r4,#0]
        0x08004c86:    4f67        gO      LDR      r7,[pc,#412] ; [0x8004e24] = 0x20000050
        0x08004c88:    4e67        gN      LDR      r6,[pc,#412] ; [0x8004e28] = 0x20000098
        0x08004c8a:    f9901008    ....    LDRSB    r1,[r0,#8]
        0x08004c8e:    f04f0901    O...    MOV      r9,#1
        0x08004c92:    1c49        I.      ADDS     r1,r1,#1
        0x08004c94:    2905        .)      CMP      r1,#5
        0x08004c96:    d26a        j.      BCS      0x8004d6e ; SafetyTask + 254
        0x08004c98:    e8dff001    ....    TBB      [pc,r1]
    $d
        0x08004c9c:    49330a03    ..3I    DCD    1228081667
        0x08004ca0:    0060        `.      DCW    96
    $t
        0x08004ca2:    f7fdfd0f    ....    BL       Hardware_StopPWM ; 0x80026c4
        0x08004ca6:    f003fc89    ....    BL       reset_All ; 0x80085bc
        0x08004caa:    6820         h      LDR      r0,[r4,#0]
        0x08004cac:    7205        .r      STRB     r5,[r0,#8]
        0x08004cae:    e0a7        ..      B        0x8004e00 ; SafetyTask + 400
        0x08004cb0:    f7fdfb2a    ..*.    BL       Hardware_GetBusVoltage ; 0x8002308
        0x08004cb4:    e9d70102    ....    LDRD     r0,r1,[r7,#8]
        0x08004cb8:    eeb08a40    ..@.    VMOV.F32 s16,s0
        0x08004cbc:    220a        ."      MOVS     r2,#0xa
        0x08004cbe:    2300        .#      MOVS     r3,#0
        0x08004cc0:    f7fbfb1a    ....    BL       __aeabi_uldivmod ; 0x80002f8
        0x08004cc4:    eb0a0082    ....    ADD      r0,r10,r2,LSL #2
        0x08004cc8:    210a        .!      MOVS     r1,#0xa
        0x08004cca:    ed808a00    ....    VSTR     s16,[r0,#0]
        0x08004cce:    4854        TH      LDR      r0,[pc,#336] ; [0x8004e20] = 0x20000614
        0x08004cd0:    f7fff9da    ....    BL       MedianFilter ; 0x8004088
        0x08004cd4:    6830        0h      LDR      r0,[r6,#0]
        0x08004cd6:    4955        UI      LDR      r1,[pc,#340] ; [0x8004e2c] = 0xbe0b3332
        0x08004cd8:    ed800a0b    ....    VSTR     s0,[r0,#0x2c]
        0x08004cdc:    ee100a10    ....    VMOV     r0,s0
        0x08004ce0:    4408        .D      ADD      r0,r0,r1
        0x08004ce2:    4953        SI      LDR      r1,[pc,#332] ; [0x8004e30] = 0x30cccb
        0x08004ce4:    4281        .B      CMP      r1,r0
        0x08004ce6:    6820         h      LDR      r0,[r4,#0]
        0x08004ce8:    bf98        ..      IT       LS
        0x08004cea:    6005        .`      STRLS    r5,[r0,#0]
        0x08004cec:    d93f        ?.      BLS      0x8004d6e ; SafetyTask + 254
        0x08004cee:    6801        .h      LDR      r1,[r0,#0]
        0x08004cf0:    1c4a        J.      ADDS     r2,r1,#1
        0x08004cf2:    6002        .`      STR      r2,[r0,#0]
        0x08004cf4:    2932        2)      CMP      r1,#0x32
        0x08004cf6:    bf84        ..      ITT      HI
        0x08004cf8:    6005        .`      STRHI    r5,[r0,#0]
        0x08004cfa:    f8809008    ....    STRBHI   r9,[r0,#8]
        0x08004cfe:    d936        6.      BLS      0x8004d6e ; SafetyTask + 254
        0x08004d00:    e07e        ~.      B        0x8004e00 ; SafetyTask + 400
        0x08004d02:    6801        .h      LDR      r1,[r0,#0]
        0x08004d04:    1c4a        J.      ADDS     r2,r1,#1
        0x08004d06:    6002        .`      STR      r2,[r0,#0]
        0x08004d08:    2932        2)      CMP      r1,#0x32
        0x08004d0a:    d904        ..      BLS      0x8004d16 ; SafetyTask + 166
        0x08004d0c:    6045        E`      STR      r5,[r0,#4]
        0x08004d0e:    6005        .`      STR      r5,[r0,#0]
        0x08004d10:    f8808008    ....    STRB     r8,[r0,#8]
        0x08004d14:    e074        t.      B        0x8004e00 ; SafetyTask + 400
        0x08004d16:    2a2d        -*      CMP      r2,#0x2d
        0x08004d18:    d972        r.      BLS      0x8004e00 ; SafetyTask + 400
        0x08004d1a:    4846        FH      LDR      r0,[pc,#280] ; [0x8004e34] = 0x2000008c
        0x08004d1c:    6800        .h      LDR      r0,[r0,#0]
        0x08004d1e:    69c0        .i      LDR      r0,[r0,#0x1c]
        0x08004d20:    4602        .F      MOV      r2,r0
        0x08004d22:    4611        .F      MOV      r1,r2
        0x08004d24:    f7fdfc9a    ....    BL       Hardware_SetCCR ; 0x800265c
        0x08004d28:    f7fdfca6    ....    BL       Hardware_StartPWM ; 0x8002678
        0x08004d2c:    e01f        ..      B        0x8004d6e ; SafetyTask + 254
        0x08004d2e:    f8900020    .. .    LDRB     r0,[r0,#0x20]
        0x08004d32:    2800        .(      CMP      r0,#0
        0x08004d34:    d064        d.      BEQ      0x8004e00 ; SafetyTask + 400
        0x08004d36:    2164        d!      MOVS     r1,#0x64
        0x08004d38:    483f        ?H      LDR      r0,[pc,#252] ; [0x8004e38] = 0x200002f4
        0x08004d3a:    f7fff9a5    ....    BL       MedianFilter ; 0x8004088
        0x08004d3e:    6830        0h      LDR      r0,[r6,#0]
        0x08004d40:    2164        d!      MOVS     r1,#0x64
        0x08004d42:    ed800a0d    ....    VSTR     s0,[r0,#0x34]
        0x08004d46:    483d        =H      LDR      r0,[pc,#244] ; [0x8004e3c] = 0x20000484
        0x08004d48:    f7fff99e    ....    BL       MedianFilter ; 0x8004088
        0x08004d4c:    6830        0h      LDR      r0,[r6,#0]
        0x08004d4e:    2103        .!      MOVS     r1,#3
        0x08004d50:    ed800a0e    ....    VSTR     s0,[r0,#0x38]
        0x08004d54:    6820         h      LDR      r0,[r4,#0]
        0x08004d56:    6005        .`      STR      r5,[r0,#0]
        0x08004d58:    7201        .r      STRB     r1,[r0,#8]
        0x08004d5a:    e051        Q.      B        0x8004e00 ; SafetyTask + 400
        0x08004d5c:    f7fdfb80    ....    BL       Hardware_MCStartOrStop ; 0x8002460
        0x08004d60:    b128        (.      CBZ      r0,0x8004d6e ; SafetyTask + 254
        0x08004d62:    f7fdfc89    ....    BL       Hardware_StartPWM ; 0x8002678
        0x08004d66:    6821        !h      LDR      r1,[r4,#0]
        0x08004d68:    2004        .       MOVS     r0,#4
        0x08004d6a:    7208        .r      STRB     r0,[r1,#8]
        0x08004d6c:    e003        ..      B        0x8004d76 ; SafetyTask + 262
        0x08004d6e:    6820         h      LDR      r0,[r4,#0]
        0x08004d70:    7a00        .z      LDRB     r0,[r0,#8]
        0x08004d72:    2804        .(      CMP      r0,#4
        0x08004d74:    d144        D.      BNE      0x8004e00 ; SafetyTask + 400
        0x08004d76:    f7fdfb73    ..s.    BL       Hardware_MCStartOrStop ; 0x8002460
        0x08004d7a:    f04f3bff    O..;    MOV      r11,#0xffffffff
        0x08004d7e:    2800        .(      CMP      r0,#0
        0x08004d80:    bf04        ..      ITT      EQ
        0x08004d82:    6820         h      LDREQ    r0,[r4,#0]
        0x08004d84:    f880b008    ....    STRBEQ   r11,[r0,#8]
        0x08004d88:    f7fdfabe    ....    BL       Hardware_GetBusVoltage ; 0x8002308
        0x08004d8c:    e9d70102    ....    LDRD     r0,r1,[r7,#8]
        0x08004d90:    eeb08a40    ..@.    VMOV.F32 s16,s0
        0x08004d94:    220a        ."      MOVS     r2,#0xa
        0x08004d96:    2300        .#      MOVS     r3,#0
        0x08004d98:    f7fbfaae    ....    BL       __aeabi_uldivmod ; 0x80002f8
        0x08004d9c:    eb0a0082    ....    ADD      r0,r10,r2,LSL #2
        0x08004da0:    210a        .!      MOVS     r1,#0xa
        0x08004da2:    ed808a00    ....    VSTR     s16,[r0,#0]
        0x08004da6:    481e        .H      LDR      r0,[pc,#120] ; [0x8004e20] = 0x20000614
        0x08004da8:    f7fff96e    ..n.    BL       MedianFilter ; 0x8004088
        0x08004dac:    6830        0h      LDR      r0,[r6,#0]
        0x08004dae:    4924        $I      LDR      r1,[pc,#144] ; [0x8004e40] = 0x41f4cccd
        0x08004db0:    ed800a0b    ....    VSTR     s0,[r0,#0x2c]
        0x08004db4:    ee100a10    ....    VMOV     r0,s0
        0x08004db8:    4288        .B      CMP      r0,r1
        0x08004dba:    da0c        ..      BGE      0x8004dd6 ; SafetyTask + 358
        0x08004dbc:    6820         h      LDR      r0,[r4,#0]
        0x08004dbe:    6801        .h      LDR      r1,[r0,#0]
        0x08004dc0:    1c4a        J.      ADDS     r2,r1,#1
        0x08004dc2:    6002        .`      STR      r2,[r0,#0]
        0x08004dc4:    298c        .)      CMP      r1,#0x8c
        0x08004dc6:    d91b        ..      BLS      0x8004e00 ; SafetyTask + 400
        0x08004dc8:    f7fdfc7c    ..|.    BL       Hardware_StopPWM ; 0x80026c4
        0x08004dcc:    6820         h      LDR      r0,[r4,#0]
        0x08004dce:    6005        .`      STR      r5,[r0,#0]
        0x08004dd0:    f8808009    ....    STRB     r8,[r0,#9]
        0x08004dd4:    e012        ..      B        0x8004dfc ; SafetyTask + 396
        0x08004dd6:    ee100a10    ....    VMOV     r0,s0
        0x08004dda:    491a        .I      LDR      r1,[pc,#104] ; [0x8004e44] = 0x42666667
        0x08004ddc:    4288        .B      CMP      r0,r1
        0x08004dde:    6820         h      LDR      r0,[r4,#0]
        0x08004de0:    bfd8        ..      IT       LE
        0x08004de2:    6005        .`      STRLE    r5,[r0,#0]
        0x08004de4:    dd0c        ..      BLE      0x8004e00 ; SafetyTask + 400
        0x08004de6:    6801        .h      LDR      r1,[r0,#0]
        0x08004de8:    1c4a        J.      ADDS     r2,r1,#1
        0x08004dea:    6002        .`      STR      r2,[r0,#0]
        0x08004dec:    298c        .)      CMP      r1,#0x8c
        0x08004dee:    d907        ..      BLS      0x8004e00 ; SafetyTask + 400
        0x08004df0:    f7fdfc68    ..h.    BL       Hardware_StopPWM ; 0x80026c4
        0x08004df4:    6820         h      LDR      r0,[r4,#0]
        0x08004df6:    6005        .`      STR      r5,[r0,#0]
        0x08004df8:    f8809009    ....    STRB     r9,[r0,#9]
        0x08004dfc:    f880b008    ....    STRB     r11,[r0,#8]
        0x08004e00:    e9d70102    ....    LDRD     r0,r1,[r7,#8]
        0x08004e04:    1c40        @.      ADDS     r0,r0,#1
        0x08004e06:    f1410100    A...    ADC      r1,r1,#0
        0x08004e0a:    e9c70102    ....    STRD     r0,r1,[r7,#8]
        0x08004e0e:    ecbd8b02    ....    VPOP     {d8}
        0x08004e12:    e8bd5ff0    ..._    POP      {r4-r12,lr}
        0x08004e16:    f7fdbb61    ..a.    B        Hardware_SafatyTaskEvent ; 0x80024dc
    $d
        0x08004e1a:    0000        ..      DCW    0
        0x08004e1c:    20000060    `..     DCD    536871008
        0x08004e20:    20000614    ...     DCD    536872468
        0x08004e24:    20000050    P..     DCD    536870992
        0x08004e28:    20000098    ...     DCD    536871064
        0x08004e2c:    be0b3332    23..    DCD    3188405042
        0x08004e30:    0030cccb    ..0.    DCD    3198155
        0x08004e34:    2000008c    ...     DCD    536871052
        0x08004e38:    200002f4    ...     DCD    536871668
        0x08004e3c:    20000484    ...     DCD    536872068
        0x08004e40:    41f4cccd    ...A    DCD    1106562253
        0x08004e44:    42666667    gffB    DCD    1114007143
    $t
    i.SectorCalModeSvpwm
    SectorCalModeSvpwm
        0x08004e48:    4988        .I      LDR      r1,[pc,#544] ; [0x800506c] = 0x20000060
        0x08004e4a:    ed902a04    ...*    VLDR     s4,[r0,#0x10]
        0x08004e4e:    edd00a05    ....    VLDR     s1,[r0,#0x14]
        0x08004e52:    6809        .h      LDR      r1,[r1,#0]
        0x08004e54:    edd12a06    ...*    VLDR     s5,[r1,#0x18]
        0x08004e58:    2100        .!      MOVS     r1,#0
        0x08004e5a:    ed9f1a85    ....    VLDR     s2,[pc,#532] ; [0x8005070] = 0x3f5db3d7
        0x08004e5e:    eeb63a00    ...:    VMOV.F32 s6,#0.50000000
        0x08004e62:    ee221a01    "...    VMUL.F32 s2,s4,s2
        0x08004e66:    eef01a41    ..A.    VMOV.F32 s3,s2
        0x08004e6a:    ee001ac3    ....    VMLS.F32 s2,s1,s6
        0x08004e6e:    eeb04a41    ..AJ    VMOV.F32 s8,s2
        0x08004e72:    ed9f1a80    ....    VLDR     s2,[pc,#512] ; [0x8005074] = 0xbf5db3d7
        0x08004e76:    ee222a01    "..*    VMUL.F32 s4,s4,s2
        0x08004e7a:    eef03a42    ..B:    VMOV.F32 s7,s4
        0x08004e7e:    ee002ac3    ...*    VMLS.F32 s4,s1,s6
        0x08004e82:    ed9f1a7d    ..}.    VLDR     s2,[pc,#500] ; [0x8005078] = 0x3fddb3d7
        0x08004e86:    eef50ac0    ....    VCMPE.F32 s1,#0.0
        0x08004e8a:    2201        ."      MOVS     r2,#1
        0x08004e8c:    ee624a81    b..J    VMUL.F32 s9,s5,s2
        0x08004e90:    ee841a80    ....    VDIV.F32 s2,s9,s0
        0x08004e94:    eef1fa10    ....    VMRS     APSR_nzcv,FPSCR
        0x08004e98:    bfc8        ..      IT       GT
        0x08004e9a:    2101        .!      MOVGT    r1,#1
        0x08004e9c:    eeb00a44    ..D.    VMOV.F32 s0,s8
        0x08004ea0:    eeb50ac0    ....    VCMPE.F32 s0,#0.0
        0x08004ea4:    eef1fa10    ....    VMRS     APSR_nzcv,FPSCR
        0x08004ea8:    bfc8        ..      IT       GT
        0x08004eaa:    1c89        ..      ADDGT    r1,r1,#2
        0x08004eac:    eeb52ac0    ...*    VCMPE.F32 s4,#0.0
        0x08004eb0:    eef1fa10    ....    VMRS     APSR_nzcv,FPSCR
        0x08004eb4:    bfc8        ..      IT       GT
        0x08004eb6:    1d09        ..      ADDGT    r1,r1,#4
        0x08004eb8:    eeb52a00    ...*    VMOV.F32 s4,#0.25000000
        0x08004ebc:    2907        .)      CMP      r1,#7
        0x08004ebe:    d27c        |.      BCS      0x8004fba ; SectorCalModeSvpwm + 370
        0x08004ec0:    e8dff001    ....    TBB      [pc,r1]
    $d
        0x08004ec4:    341e049b    ...4    DCD    874382491
        0x08004ec8:    007f6349    Ic..    DCD    8348489
    $t
        0x08004ecc:    ee403a83    @..:    VMLA.F32 s7,s1,s6
        0x08004ed0:    ee401a83    @...    VMLA.F32 s3,s1,s6
        0x08004ed4:    2102        .!      MOVS     r1,#2
        0x08004ed6:    f8801026    ..&.    STRB     r1,[r0,#0x26]
        0x08004eda:    ee230a81    #...    VMUL.F32 s0,s7,s2
        0x08004ede:    ee211a81    !...    VMUL.F32 s2,s3,s2
        0x08004ee2:    ee721ac0    r...    VSUB.F32 s3,s5,s0
        0x08004ee6:    ee320a80    2...    VADD.F32 s0,s5,s0
        0x08004eea:    ee710a81    q...    VADD.F32 s1,s3,s2
        0x08004eee:    ee300a01    0...    VADD.F32 s0,s0,s2
        0x08004ef2:    ee311ac1    1...    VSUB.F32 s2,s3,s2
        0x08004ef6:    ee600a82    `...    VMUL.F32 s1,s1,s4
        0x08004efa:    ee200a02     ...    VMUL.F32 s0,s0,s4
        0x08004efe:    e041        A.      B        0x8004f84 ; SectorCalModeSvpwm + 316
        0x08004f00:    ee401a83    @...    VMLA.F32 s3,s1,s6
        0x08004f04:    2106        .!      MOVS     r1,#6
        0x08004f06:    f8801026    ..&.    STRB     r1,[r0,#0x26]
        0x08004f0a:    ee210a81    !...    VMUL.F32 s0,s3,s2
        0x08004f0e:    ee211a60    !.`.    VNMUL.F32 s2,s2,s1
        0x08004f12:    ee720a80    r...    VADD.F32 s1,s5,s0
        0x08004f16:    ee721ac0    r...    VSUB.F32 s3,s5,s0
        0x08004f1a:    ee700a81    p...    VADD.F32 s1,s1,s2
        0x08004f1e:    ee310ac1    1...    VSUB.F32 s0,s3,s2
        0x08004f22:    ee600a82    `...    VMUL.F32 s1,s1,s4
        0x08004f26:    ee200a02     ...    VMUL.F32 s0,s0,s4
        0x08004f2a:    e029        ).      B        0x8004f80 ; SectorCalModeSvpwm + 312
        0x08004f2c:    ee240a01    $...    VMUL.F32 s0,s8,s2
        0x08004f30:    ee211a20    !. .    VMUL.F32 s2,s2,s1
        0x08004f34:    f8802026    ..&     STRB     r2,[r0,#0x26]
        0x08004f38:    ee720a80    r...    VADD.F32 s1,s5,s0
        0x08004f3c:    ee721ac0    r...    VSUB.F32 s3,s5,s0
        0x08004f40:    ee700a81    p...    VADD.F32 s1,s1,s2
        0x08004f44:    ee310a81    1...    VADD.F32 s0,s3,s2
        0x08004f48:    ee311ac1    1...    VSUB.F32 s2,s3,s2
        0x08004f4c:    ee600a82    `...    VMUL.F32 s1,s1,s4
        0x08004f50:    ee200a02     ...    VMUL.F32 s0,s0,s4
        0x08004f54:    e016        ..      B        0x8004f84 ; SectorCalModeSvpwm + 316
        0x08004f56:    ee403a83    @..:    VMLA.F32 s7,s1,s6
        0x08004f5a:    ee611a60    a.`.    VNMUL.F32 s3,s2,s1
        0x08004f5e:    2104        .!      MOVS     r1,#4
        0x08004f60:    f8801026    ..&.    STRB     r1,[r0,#0x26]
        0x08004f64:    ee320ae1    2...    VSUB.F32 s0,s5,s3
        0x08004f68:    ee231a81    #...    VMUL.F32 s2,s7,s2
        0x08004f6c:    ee721aa1    r...    VADD.F32 s3,s5,s3
        0x08004f70:    ee700a41    p.A.    VSUB.F32 s1,s0,s2
        0x08004f74:    ee300a01    0...    VADD.F32 s0,s0,s2
        0x08004f78:    ee600a82    `...    VMUL.F32 s1,s1,s4
        0x08004f7c:    ee200a02     ...    VMUL.F32 s0,s0,s4
        0x08004f80:    ee311a81    1...    VADD.F32 s2,s3,s2
        0x08004f84:    ee211a02    !...    VMUL.F32 s2,s2,s4
        0x08004f88:    e03d        =.      B        0x8005006 ; SectorCalModeSvpwm + 446
        0x08004f8a:    ee401a83    @...    VMLA.F32 s3,s1,s6
        0x08004f8e:    ee210a20    !. .    VMUL.F32 s0,s2,s1
        0x08004f92:    2103        .!      MOVS     r1,#3
        0x08004f94:    f8801026    ..&.    STRB     r1,[r0,#0x26]
        0x08004f98:    ee211a61    !.a.    VNMUL.F32 s2,s2,s3
        0x08004f9c:    ee721ac0    r...    VSUB.F32 s3,s5,s0
        0x08004fa0:    ee320a80    2...    VADD.F32 s0,s5,s0
        0x08004fa4:    ee710ac1    q...    VSUB.F32 s1,s3,s2
        0x08004fa8:    ee300a01    0...    VADD.F32 s0,s0,s2
        0x08004fac:    ee311a81    1...    VADD.F32 s2,s3,s2
        0x08004fb0:    ee600a82    `...    VMUL.F32 s1,s1,s4
        0x08004fb4:    ee200a02     ...    VMUL.F32 s0,s0,s4
        0x08004fb8:    e000        ..      B        0x8004fbc ; SectorCalModeSvpwm + 372
        0x08004fba:    e01e        ..      B        0x8004ffa ; SectorCalModeSvpwm + 434
        0x08004fbc:    ee211a02    !...    VMUL.F32 s2,s2,s4
        0x08004fc0:    e021        !.      B        0x8005006 ; SectorCalModeSvpwm + 446
        0x08004fc2:    ee401a83    @...    VMLA.F32 s3,s1,s6
        0x08004fc6:    ee403a83    @..:    VMLA.F32 s7,s1,s6
        0x08004fca:    2105        .!      MOVS     r1,#5
        0x08004fcc:    f8801026    ..&.    STRB     r1,[r0,#0x26]
        0x08004fd0:    ee611a61    a.a.    VNMUL.F32 s3,s2,s3
        0x08004fd4:    ee211a63    !.c.    VNMUL.F32 s2,s2,s7
        0x08004fd8:    ee320ae1    2...    VSUB.F32 s0,s5,s3
        0x08004fdc:    ee721aa1    r...    VADD.F32 s3,s5,s3
        0x08004fe0:    ee700a01    p...    VADD.F32 s1,s0,s2
        0x08004fe4:    ee300a41    0.A.    VSUB.F32 s0,s0,s2
        0x08004fe8:    ee311a81    1...    VADD.F32 s2,s3,s2
        0x08004fec:    ee600a82    `...    VMUL.F32 s1,s1,s4
        0x08004ff0:    ee200a02     ...    VMUL.F32 s0,s0,s4
        0x08004ff4:    ee211a02    !...    VMUL.F32 s2,s2,s4
        0x08004ff8:    e005        ..      B        0x8005006 ; SectorCalModeSvpwm + 446
        0x08004ffa:    ee220a82    "...    VMUL.F32 s0,s5,s4
        0x08004ffe:    eef00a40    ..@.    VMOV.F32 s1,s0
        0x08005002:    eeb01a40    ..@.    VMOV.F32 s2,s0
        0x08005006:    edd01a06    ....    VLDR     s3,[r0,#0x18]
        0x0800500a:    ee210a80    !...    VMUL.F32 s0,s3,s0
        0x0800500e:    ee610aa0    a...    VMUL.F32 s1,s3,s1
        0x08005012:    eebd0ac0    ....    VCVT.S32.F32 s0,s0
        0x08005016:    eefd0ae0    ....    VCVT.S32.F32 s1,s1
        0x0800501a:    ee102a10    ...*    VMOV     r2,s0
        0x0800501e:    ee210a81    !...    VMUL.F32 s0,s3,s2
        0x08005022:    ee103a90    ...:    VMOV     r3,s1
        0x08005026:    eebd0ac0    ....    VCVT.S32.F32 s0,s0
        0x0800502a:    2b00        .+      CMP      r3,#0
        0x0800502c:    ee101a10    ....    VMOV     r1,s0
        0x08005030:    bfb8        ..      IT       LT
        0x08005032:    2300        .#      MOVLT    r3,#0
        0x08005034:    db04        ..      BLT      0x8005040 ; SectorCalModeSvpwm + 504
        0x08005036:    f8d0c01c    ....    LDR      r12,[r0,#0x1c]
        0x0800503a:    459c        .E      CMP      r12,r3
        0x0800503c:    bf38        8.      IT       CC
        0x0800503e:    4663        cF      MOVCC    r3,r12
        0x08005040:    2a00        .*      CMP      r2,#0
        0x08005042:    bfb8        ..      IT       LT
        0x08005044:    2200        ."      MOVLT    r2,#0
        0x08005046:    db04        ..      BLT      0x8005052 ; SectorCalModeSvpwm + 522
        0x08005048:    f8d0c01c    ....    LDR      r12,[r0,#0x1c]
        0x0800504c:    4594        .E      CMP      r12,r2
        0x0800504e:    bf38        8.      IT       CC
        0x08005050:    4662        bF      MOVCC    r2,r12
        0x08005052:    2900        .)      CMP      r1,#0
        0x08005054:    bfb8        ..      IT       LT
        0x08005056:    2100        .!      MOVLT    r1,#0
        0x08005058:    db04        ..      BLT      0x8005064 ; SectorCalModeSvpwm + 540
        0x0800505a:    f8d0c01c    ....    LDR      r12,[r0,#0x1c]
        0x0800505e:    458c        .E      CMP      r12,r1
        0x08005060:    bf38        8.      IT       CC
        0x08005062:    4661        aF      MOVCC    r1,r12
        0x08005064:    8403        ..      STRH     r3,[r0,#0x20]
        0x08005066:    8442        B.      STRH     r2,[r0,#0x22]
        0x08005068:    8481        ..      STRH     r1,[r0,#0x24]
        0x0800506a:    4770        pG      BX       lr
    $d
        0x0800506c:    20000060    `..     DCD    536871008
        0x08005070:    3f5db3d7    ..]?    DCD    1063105495
        0x08005074:    bf5db3d7    ..].    DCD    3210589143
        0x08005078:    3fddb3d7    ...?    DCD    1071494103
    $t
    i.SpeedPIController
    SpeedPIController
        0x0800507c:    491d        .I      LDR      r1,[pc,#116] ; [0x80050f4] = 0x20000060
        0x0800507e:    edd00a00    ....    VLDR     s1,[r0,#0]
        0x08005082:    4a1d        .J      LDR      r2,[pc,#116] ; [0x80050f8] = 0x428a0000
        0x08005084:    6809        .h      LDR      r1,[r1,#0]
        0x08005086:    ee700ac0    p...    VSUB.F32 s1,s1,s0
        0x0800508a:    ed900a03    ....    VLDR     s0,[r0,#0xc]
        0x0800508e:    ed911a05    ....    VLDR     s2,[r1,#0x14]
        0x08005092:    ee000a81    ....    VMLA.F32 s0,s1,s2
        0x08005096:    ee101a10    ....    VMOV     r1,s0
        0x0800509a:    ed800a03    ....    VSTR     s0,[r0,#0xc]
        0x0800509e:    4291        .B      CMP      r1,r2
        0x080050a0:    bfc4        ..      ITT      GT
        0x080050a2:    ed9f0a16    ....    VLDRGT   s0,[pc,#88] ; [0x80050fc] = 0x428a0000
        0x080050a6:    ed800a03    ....    VSTRGT   s0,[r0,#0xc]
        0x080050aa:    dc08        ..      BGT      0x80050be ; SpeedPIController + 66
        0x080050ac:    ee101a10    ....    VMOV     r1,s0
        0x080050b0:    4a13        .J      LDR      r2,[pc,#76] ; [0x8005100] = 0xc28a0000
        0x080050b2:    4291        .B      CMP      r1,r2
        0x080050b4:    bf28        (.      IT       CS
        0x080050b6:    ed9f0a13    ....    VLDRCS   s0,[pc,#76] ; [0x8005104] = 0xc28a0000
        0x080050ba:    ed800a03    ....    VSTR     s0,[r0,#0xc]
        0x080050be:    ed9f1a12    ....    VLDR     s2,[pc,#72] ; [0x8005108] = 0x3dcccccd
        0x080050c2:    4a13        .J      LDR      r2,[pc,#76] ; [0x8005110] = 0x40dccccd
        0x080050c4:    ee200a01     ...    VMUL.F32 s0,s0,s2
        0x080050c8:    ed9f1a10    ....    VLDR     s2,[pc,#64] ; [0x800510c] = 0x3c23d70a
        0x080050cc:    ee000a81    ....    VMLA.F32 s0,s1,s2
        0x080050d0:    ee101a10    ....    VMOV     r1,s0
        0x080050d4:    4291        .B      CMP      r1,r2
        0x080050d6:    bfc8        ..      IT       GT
        0x080050d8:    ed9f0a0e    ....    VLDRGT   s0,[pc,#56] ; [0x8005114] = 0x40dccccd
        0x080050dc:    dc04        ..      BGT      0x80050e8 ; SpeedPIController + 108
        0x080050de:    ee101a10    ....    VMOV     r1,s0
        0x080050e2:    4a0d        .J      LDR      r2,[pc,#52] ; [0x8005118] = 0xc0dccccd
        0x080050e4:    4291        .B      CMP      r1,r2
        0x080050e6:    d802        ..      BHI      0x80050ee ; SpeedPIController + 114
        0x080050e8:    ed800a04    ....    VSTR     s0,[r0,#0x10]
        0x080050ec:    4770        pG      BX       lr
        0x080050ee:    ed9f0a0b    ....    VLDR     s0,[pc,#44] ; [0x800511c] = 0xc0dccccd
        0x080050f2:    e7f9        ..      B        0x80050e8 ; SpeedPIController + 108
    $d
        0x080050f4:    20000060    `..     DCD    536871008
        0x080050f8:    428a0000    ...B    DCD    1116340224
        0x080050fc:    428a0000    ...B    DCD    1116340224
        0x08005100:    c28a0000    ....    DCD    3263823872
        0x08005104:    c28a0000    ....    DCD    3263823872
        0x08005108:    3dcccccd    ...=    DCD    1036831949
        0x0800510c:    3c23d70a    ..#<    DCD    1008981770
        0x08005110:    40dccccd    ...@    DCD    1088212173
        0x08005114:    40dccccd    ...@    DCD    1088212173
        0x08005118:    c0dccccd    ....    DCD    3235695821
        0x0800511c:    c0dccccd    ....    DCD    3235695821
    $t
    i.SysTick_Handler
    SysTick_Handler
        0x08005120:    b510        ..      PUSH     {r4,lr}
        0x08005122:    f7fffda5    ....    BL       SafetyTask ; 0x8004c70
        0x08005126:    e8bd4010    ...@    POP      {r4,lr}
        0x0800512a:    f7fcbb19    ....    B        HAL_IncTick ; 0x8001760
        0x0800512e:    0000        ..      MOVS     r0,r0
    i.SystemClock_Config
    SystemClock_Config
        0x08005130:    4838        8H      LDR      r0,[pc,#224] ; [0x8005214] = 0x40022000
        0x08005132:    b510        ..      PUSH     {r4,lr}
        0x08005134:    6801        .h      LDR      r1,[r0,#0]
        0x08005136:    f021010f    !...    BIC      r1,r1,#0xf
        0x0800513a:    f0410104    A...    ORR      r1,r1,#4
        0x0800513e:    6001        .`      STR      r1,[r0,#0]
        0x08005140:    6801        .h      LDR      r1,[r0,#0]
        0x08005142:    f001010f    ....    AND      r1,r1,#0xf
        0x08005146:    2904        .)      CMP      r1,#4
        0x08005148:    d1fa        ..      BNE      0x8005140 ; SystemClock_Config + 16
        0x0800514a:    4833        3H      LDR      r0,[pc,#204] ; [0x8005218] = 0x40007000
        0x0800514c:    f8501f80    P...    LDR      r1,[r0,#0x80]!
        0x08005150:    f4217180    !..q    BIC      r1,r1,#0x100
        0x08005154:    6001        .`      STR      r1,[r0,#0]
        0x08005156:    4831        1H      LDR      r0,[pc,#196] ; [0x800521c] = 0x40021000
        0x08005158:    6801        .h      LDR      r1,[r0,#0]
        0x0800515a:    f4413180    A..1    ORR      r1,r1,#0x10000
        0x0800515e:    6001        .`      STR      r1,[r0,#0]
        0x08005160:    6801        .h      LDR      r1,[r0,#0]
        0x08005162:    f3c14140    ..@A    UBFX     r1,r1,#17,#1
        0x08005166:    2900        .)      CMP      r1,#0
        0x08005168:    d0fa        ..      BEQ      0x8005160 ; SystemClock_Config + 48
        0x0800516a:    f8d01098    ....    LDR      r1,[r0,#0x98]
        0x0800516e:    f0410101    A...    ORR      r1,r1,#1
        0x08005172:    f8c01098    ....    STR      r1,[r0,#0x98]
        0x08005176:    bf00        ..      NOP      
        0x08005178:    f8d01098    ....    LDR      r1,[r0,#0x98]
        0x0800517c:    f0110f02    ....    TST      r1,#2
        0x08005180:    d0fa        ..      BEQ      0x8005178 ; SystemClock_Config + 72
        0x08005182:    68c2        .h      LDR      r2,[r0,#0xc]
        0x08005184:    f2455113    E..Q    MOV      r1,#0x5513
        0x08005188:    4b25        %K      LDR      r3,[pc,#148] ; [0x8005220] = 0xf9ff800c
        0x0800518a:    401a        .@      ANDS     r2,r2,r3
        0x0800518c:    4311        .C      ORRS     r1,r1,r2
        0x0800518e:    60c1        .`      STR      r1,[r0,#0xc]
        0x08005190:    68c1        .h      LDR      r1,[r0,#0xc]
        0x08005192:    f0417180    A..q    ORR      r1,r1,#0x1000000
        0x08005196:    60c1        .`      STR      r1,[r0,#0xc]
        0x08005198:    6801        .h      LDR      r1,[r0,#0]
        0x0800519a:    f0417180    A..q    ORR      r1,r1,#0x1000000
        0x0800519e:    6001        .`      STR      r1,[r0,#0]
        0x080051a0:    6801        .h      LDR      r1,[r0,#0]
        0x080051a2:    f3c16140    ..@a    UBFX     r1,r1,#25,#1
        0x080051a6:    2900        .)      CMP      r1,#0
        0x080051a8:    d0fa        ..      BEQ      0x80051a0 ; SystemClock_Config + 112
        0x080051aa:    6881        .h      LDR      r1,[r0,#8]
        0x080051ac:    f0410103    A...    ORR      r1,r1,#3
        0x080051b0:    6081        .`      STR      r1,[r0,#8]
        0x080051b2:    6881        .h      LDR      r1,[r0,#8]
        0x080051b4:    f02101f0    !...    BIC      r1,r1,#0xf0
        0x080051b8:    f0410180    A...    ORR      r1,r1,#0x80
        0x080051bc:    6081        .`      STR      r1,[r0,#8]
        0x080051be:    6881        .h      LDR      r1,[r0,#8]
        0x080051c0:    f001010c    ....    AND      r1,r1,#0xc
        0x080051c4:    290c        .)      CMP      r1,#0xc
        0x080051c6:    d1fa        ..      BNE      0x80051be ; SystemClock_Config + 142
        0x080051c8:    4916        .I      LDR      r1,[pc,#88] ; [0x8005224] = 0xe000edfc
        0x080051ca:    680a        .h      LDR      r2,[r1,#0]
        0x080051cc:    f0427280    B..r    ORR      r2,r2,#0x1000000
        0x080051d0:    600a        .`      STR      r2,[r1,#0]
        0x080051d2:    4915        .I      LDR      r1,[pc,#84] ; [0x8005228] = 0xe0001000
        0x080051d4:    680a        .h      LDR      r2,[r1,#0]
        0x080051d6:    f0420201    B...    ORR      r2,r2,#1
        0x080051da:    600a        .`      STR      r2,[r1,#0]
        0x080051dc:    2200        ."      MOVS     r2,#0
        0x080051de:    604a        J`      STR      r2,[r1,#4]
        0x080051e0:    684a        Jh      LDR      r2,[r1,#4]
        0x080051e2:    2a64        d*      CMP      r2,#0x64
        0x080051e4:    d3fc        ..      BCC      0x80051e0 ; SystemClock_Config + 176
        0x080051e6:    6881        .h      LDR      r1,[r0,#8]
        0x080051e8:    f02101f0    !...    BIC      r1,r1,#0xf0
        0x080051ec:    6081        .`      STR      r1,[r0,#8]
        0x080051ee:    6881        .h      LDR      r1,[r0,#8]
        0x080051f0:    f42161e0    !..a    BIC      r1,r1,#0x700
        0x080051f4:    6081        .`      STR      r1,[r0,#8]
        0x080051f6:    6881        .h      LDR      r1,[r0,#8]
        0x080051f8:    f4215160    !.`Q    BIC      r1,r1,#0x3800
        0x080051fc:    6081        .`      STR      r1,[r0,#8]
        0x080051fe:    480b        .H      LDR      r0,[pc,#44] ; [0x800522c] = 0xa21fe80
        0x08005200:    f7fef812    ....    BL       LL_SetSystemCoreClock ; 0x8003228
        0x08005204:    2006        .       MOVS     r0,#6
        0x08005206:    f7fcfac3    ....    BL       HAL_InitTick ; 0x8001790
        0x0800520a:    2800        .(      CMP      r0,#0
        0x0800520c:    bf08        ..      IT       EQ
        0x0800520e:    bd10        ..      POPEQ    {r4,pc}
        0x08005210:    b672        r.      CPSID    i
        0x08005212:    e7fe        ..      B        0x8005212 ; SystemClock_Config + 226
    $d
        0x08005214:    40022000    . .@    DCD    1073881088
        0x08005218:    40007000    .p.@    DCD    1073770496
        0x0800521c:    40021000    ...@    DCD    1073876992
        0x08005220:    f9ff800c    ....    DCD    4194271244
        0x08005224:    e000edfc    ....    DCD    3758157308
        0x08005228:    e0001000    ....    DCD    3758100480
        0x0800522c:    0a21fe80    ..!.    DCD    170000000
    $t
    i.SystemInit
    SystemInit
        0x08005230:    4802        .H      LDR      r0,[pc,#8] ; [0x800523c] = 0xe000ed88
        0x08005232:    6801        .h      LDR      r1,[r0,#0]
        0x08005234:    f4410170    A.p.    ORR      r1,r1,#0xf00000
        0x08005238:    6001        .`      STR      r1,[r0,#0]
        0x0800523a:    4770        pG      BX       lr
    $d
        0x0800523c:    e000ed88    ....    DCD    3758157192
    $t
    i.USBD_CDC_ConfigStrDescriptor
    USBD_CDC_ConfigStrDescriptor
        0x08005240:    b510        ..      PUSH     {r4,lr}
        0x08005242:    460a        .F      MOV      r2,r1
        0x08005244:    4902        .I      LDR      r1,[pc,#8] ; [0x8005250] = 0x20001578
        0x08005246:    a003        ..      ADR      r0,{pc}+0xe ; 0x8005254
        0x08005248:    f000faa0    ....    BL       USBD_GetString ; 0x800578c
        0x0800524c:    4800        .H      LDR      r0,[pc,#0] ; [0x8005250] = 0x20001578
        0x0800524e:    bd10        ..      POP      {r4,pc}
    $d
        0x08005250:    20001578    x..     DCD    536876408
        0x08005254:    20434443    CDC     DCD    541279299
        0x08005258:    666e6f43    Conf    DCD    1718513475
        0x0800525c:    00006769    ig..    DCD    26473
    $t
    i.USBD_CDC_DataIn
    USBD_CDC_DataIn
        0x08005260:    f8d032bc    ...2    LDR      r3,[r0,#0x2bc]
        0x08005264:    f8d022c4    ..."    LDR      r2,[r0,#0x2c4]
        0x08005268:    2b00        .+      CMP      r3,#0
        0x0800526a:    bf04        ..      ITT      EQ
        0x0800526c:    2003        .       MOVEQ    r0,#3
        0x0800526e:    4770        pG      BXEQ     lr
        0x08005270:    b570        p.      PUSH     {r4-r6,lr}
        0x08005272:    eb010581    ....    ADD      r5,r1,r1,LSL #2
        0x08005276:    eb000485    ....    ADD      r4,r0,r5,LSL #2
        0x0800527a:    2600        .&      MOVS     r6,#0
        0x0800527c:    f8d4c018    ....    LDR      r12,[r4,#0x18]
        0x08005280:    f1bc0f00    ....    CMP      r12,#0
        0x08005284:    d007        ..      BEQ      0x8005296 ; USBD_CDC_DataIn + 54
        0x08005286:    eb0202c5    ....    ADD      r2,r2,r5,LSL #3
        0x0800528a:    6a12        .j      LDR      r2,[r2,#0x20]
        0x0800528c:    fbbcf5f2    ....    UDIV     r5,r12,r2
        0x08005290:    fb02c215    ....    MLS      r2,r2,r5,r12
        0x08005294:    b182        ..      CBZ      r2,0x80052b8 ; USBD_CDC_DataIn + 88
        0x08005296:    f8c36214    ...b    STR      r6,[r3,#0x214]
        0x0800529a:    f8d002c0    ....    LDR      r0,[r0,#0x2c0]
        0x0800529e:    f8d0c010    ....    LDR      r12,[r0,#0x10]
        0x080052a2:    f1bc0f00    ....    CMP      r12,#0
        0x080052a6:    d005        ..      BEQ      0x80052b4 ; USBD_CDC_DataIn + 84
        0x080052a8:    460a        .F      MOV      r2,r1
        0x080052aa:    f5037104    ...q    ADD      r1,r3,#0x210
        0x080052ae:    f8d30208    ....    LDR      r0,[r3,#0x208]
        0x080052b2:    47e0        .G      BLX      r12
        0x080052b4:    2000        .       MOVS     r0,#0
        0x080052b6:    bd70        p.      POP      {r4-r6,pc}
        0x080052b8:    2300        .#      MOVS     r3,#0
        0x080052ba:    461a        .F      MOV      r2,r3
        0x080052bc:    61a6        .a      STR      r6,[r4,#0x18]
        0x080052be:    f000fca7    ....    BL       USBD_LL_Transmit ; 0x8005c10
        0x080052c2:    e7f7        ..      B        0x80052b4 ; USBD_CDC_DataIn + 84
    i.USBD_CDC_DataOut
    USBD_CDC_DataOut
        0x080052c4:    b570        p.      PUSH     {r4-r6,lr}
        0x080052c6:    f8d042bc    ...B    LDR      r4,[r0,#0x2bc]
        0x080052ca:    4605        .F      MOV      r5,r0
        0x080052cc:    2c00        .,      CMP      r4,#0
        0x080052ce:    bf04        ..      ITT      EQ
        0x080052d0:    2003        .       MOVEQ    r0,#3
        0x080052d2:    bd70        p.      POPEQ    {r4-r6,pc}
        0x080052d4:    f000fb5b    ..[.    BL       USBD_LL_GetRxDataSize ; 0x800598e
        0x080052d8:    f8c4020c    ....    STR      r0,[r4,#0x20c]
        0x080052dc:    f8d512c0    ....    LDR      r1,[r5,#0x2c0]
        0x080052e0:    f8d40204    ....    LDR      r0,[r4,#0x204]
        0x080052e4:    68ca        .h      LDR      r2,[r1,#0xc]
        0x080052e6:    f5047103    ...q    ADD      r1,r4,#0x20c
        0x080052ea:    4790        .G      BLX      r2
        0x080052ec:    2000        .       MOVS     r0,#0
        0x080052ee:    bd70        p.      POP      {r4-r6,pc}
    i.USBD_CDC_DeInit
    USBD_CDC_DeInit
        0x080052f0:    b570        p.      PUSH     {r4-r6,lr}
        0x080052f2:    4604        .F      MOV      r4,r0
        0x080052f4:    2181        .!      MOVS     r1,#0x81
        0x080052f6:    f000faa4    ....    BL       USBD_LL_CloseEP ; 0x8005842
        0x080052fa:    2500        .%      MOVS     r5,#0
        0x080052fc:    8725        %.      STRH     r5,[r4,#0x38]
        0x080052fe:    2101        .!      MOVS     r1,#1
        0x08005300:    4620         F      MOV      r0,r4
        0x08005302:    f000fa9e    ....    BL       USBD_LL_CloseEP ; 0x8005842
        0x08005306:    f8a45178    ..xQ    STRH     r5,[r4,#0x178]
        0x0800530a:    2182        .!      MOVS     r1,#0x82
        0x0800530c:    4620         F      MOV      r0,r4
        0x0800530e:    f000fa98    ....    BL       USBD_LL_CloseEP ; 0x8005842
        0x08005312:    f8a4504c    ..LP    STRH     r5,[r4,#0x4c]
        0x08005316:    f8a4504e    ..NP    STRH     r5,[r4,#0x4e]
        0x0800531a:    f8d402bc    ....    LDR      r0,[r4,#0x2bc]
        0x0800531e:    b148        H.      CBZ      r0,0x8005334 ; USBD_CDC_DeInit + 68
        0x08005320:    f8d402c0    ....    LDR      r0,[r4,#0x2c0]
        0x08005324:    6840        @h      LDR      r0,[r0,#4]
        0x08005326:    4780        .G      BLX      r0
        0x08005328:    f8d402bc    ....    LDR      r0,[r4,#0x2bc]
        0x0800532c:    f000ff16    ....    BL       USBD_static_free ; 0x800615c
        0x08005330:    f8c452bc    ...R    STR      r5,[r4,#0x2bc]
        0x08005334:    2000        .       MOVS     r0,#0
        0x08005336:    bd70        p.      POP      {r4-r6,pc}
    i.USBD_CDC_DeviceDescriptor
    USBD_CDC_DeviceDescriptor
        0x08005338:    2012        .       MOVS     r0,#0x12
        0x0800533a:    8008        ..      STRH     r0,[r1,#0]
        0x0800533c:    4800        .H      LDR      r0,[pc,#0] ; [0x8005340] = 0x20000110
        0x0800533e:    4770        pG      BX       lr
    $d
        0x08005340:    20000110    ...     DCD    536871184
    $t
    i.USBD_CDC_EP0_RxReady
    USBD_CDC_EP0_RxReady
        0x08005344:    b510        ..      PUSH     {r4,lr}
        0x08005346:    f8d042bc    ...B    LDR      r4,[r0,#0x2bc]
        0x0800534a:    2c00        .,      CMP      r4,#0
        0x0800534c:    bf04        ..      ITT      EQ
        0x0800534e:    2003        .       MOVEQ    r0,#3
        0x08005350:    bd10        ..      POPEQ    {r4,pc}
        0x08005352:    f8d012c0    ....    LDR      r1,[r0,#0x2c0]
        0x08005356:    2900        .)      CMP      r1,#0
        0x08005358:    bf1c        ..      ITT      NE
        0x0800535a:    f8940200    ....    LDRBNE   r0,[r4,#0x200]
        0x0800535e:    28ff        .(      CMPNE    r0,#0xff
        0x08005360:    d007        ..      BEQ      0x8005372 ; USBD_CDC_EP0_RxReady + 46
        0x08005362:    688b        .h      LDR      r3,[r1,#8]
        0x08005364:    f8942201    ..."    LDRB     r2,[r4,#0x201]
        0x08005368:    4621        !F      MOV      r1,r4
        0x0800536a:    4798        .G      BLX      r3
        0x0800536c:    20ff        .       MOVS     r0,#0xff
        0x0800536e:    f8840200    ....    STRB     r0,[r4,#0x200]
        0x08005372:    2000        .       MOVS     r0,#0
        0x08005374:    bd10        ..      POP      {r4,pc}
        0x08005376:    0000        ..      MOVS     r0,r0
    i.USBD_CDC_GetDeviceQualifierDescriptor
    USBD_CDC_GetDeviceQualifierDescriptor
        0x08005378:    210a        .!      MOVS     r1,#0xa
        0x0800537a:    8001        ..      STRH     r1,[r0,#0]
        0x0800537c:    4800        .H      LDR      r0,[pc,#0] ; [0x8005380] = 0x20000158
        0x0800537e:    4770        pG      BX       lr
    $d
        0x08005380:    20000158    X..     DCD    536871256
    $t
    i.USBD_CDC_GetFSCfgDesc
    USBD_CDC_GetFSCfgDesc
        0x08005384:    2143        C!      MOVS     r1,#0x43
        0x08005386:    8001        ..      STRH     r1,[r0,#0]
        0x08005388:    4800        .H      LDR      r0,[pc,#0] ; [0x800538c] = 0x200001a8
        0x0800538a:    4770        pG      BX       lr
    $d
        0x0800538c:    200001a8    ...     DCD    536871336
    $t
    i.USBD_CDC_GetHSCfgDesc
    USBD_CDC_GetHSCfgDesc
        0x08005390:    2143        C!      MOVS     r1,#0x43
        0x08005392:    8001        ..      STRH     r1,[r0,#0]
        0x08005394:    4800        .H      LDR      r0,[pc,#0] ; [0x8005398] = 0x20000164
        0x08005396:    4770        pG      BX       lr
    $d
        0x08005398:    20000164    d..     DCD    536871268
    $t
    i.USBD_CDC_GetOtherSpeedCfgDesc
    USBD_CDC_GetOtherSpeedCfgDesc
        0x0800539c:    2143        C!      MOVS     r1,#0x43
        0x0800539e:    8001        ..      STRH     r1,[r0,#0]
        0x080053a0:    4800        .H      LDR      r0,[pc,#0] ; [0x80053a4] = 0x200001ec
        0x080053a2:    4770        pG      BX       lr
    $d
        0x080053a4:    200001ec    ...     DCD    536871404
    $t
    i.USBD_CDC_Init
    USBD_CDC_Init
        0x080053a8:    e92d41f0    -..A    PUSH     {r4-r8,lr}
        0x080053ac:    4604        .F      MOV      r4,r0
        0x080053ae:    f44f7007    O..p    MOV      r0,#0x21c
        0x080053b2:    f000fed5    ....    BL       USBD_static_malloc ; 0x8006160
        0x080053b6:    0005        ..      MOVS     r5,r0
        0x080053b8:    f04f0700    O...    MOV      r7,#0
        0x080053bc:    bf02        ..      ITTT     EQ
        0x080053be:    f8c472bc    ...r    STREQ    r7,[r4,#0x2bc]
        0x080053c2:    2002        .       MOVEQ    r0,#2
        0x080053c4:    e8bd81f0    ....    POPEQ    {r4-r8,pc}
        0x080053c8:    f8c452bc    ...R    STR      r5,[r4,#0x2bc]
        0x080053cc:    7c20         |      LDRB     r0,[r4,#0x10]
        0x080053ce:    f04f0810    O...    MOV      r8,#0x10
        0x080053d2:    2601        .&      MOVS     r6,#1
        0x080053d4:    b360        `.      CBZ      r0,0x8005430 ; USBD_CDC_Init + 136
        0x080053d6:    2340        @#      MOVS     r3,#0x40
        0x080053d8:    2202        ."      MOVS     r2,#2
        0x080053da:    2181        .!      MOVS     r1,#0x81
        0x080053dc:    4620         F      MOV      r0,r4
        0x080053de:    f000fb30    ..0.    BL       USBD_LL_OpenEP ; 0x8005a42
        0x080053e2:    8726        &.      STRH     r6,[r4,#0x38]
        0x080053e4:    2340        @#      MOVS     r3,#0x40
        0x080053e6:    2202        ."      MOVS     r2,#2
        0x080053e8:    2101        .!      MOVS     r1,#1
        0x080053ea:    4620         F      MOV      r0,r4
        0x080053ec:    f000fb29    ..).    BL       USBD_LL_OpenEP ; 0x8005a42
        0x080053f0:    f8a46178    ..xa    STRH     r6,[r4,#0x178]
        0x080053f4:    f8a4804e    ..N.    STRH     r8,[r4,#0x4e]
        0x080053f8:    2308        .#      MOVS     r3,#8
        0x080053fa:    2203        ."      MOVS     r2,#3
        0x080053fc:    2182        .!      MOVS     r1,#0x82
        0x080053fe:    4620         F      MOV      r0,r4
        0x08005400:    f000fb1f    ....    BL       USBD_LL_OpenEP ; 0x8005a42
        0x08005404:    f8a4604c    ..L`    STRH     r6,[r4,#0x4c]
        0x08005408:    f8d402c0    ....    LDR      r0,[r4,#0x2c0]
        0x0800540c:    6800        .h      LDR      r0,[r0,#0]
        0x0800540e:    4780        .G      BLX      r0
        0x08005410:    f8c57214    ...r    STR      r7,[r5,#0x214]
        0x08005414:    f8c57218    ...r    STR      r7,[r5,#0x218]
        0x08005418:    7c20         |      LDRB     r0,[r4,#0x10]
        0x0800541a:    f8d52204    ..."    LDR      r2,[r5,#0x204]
        0x0800541e:    b1d8        ..      CBZ      r0,0x8005458 ; USBD_CDC_Init + 176
        0x08005420:    2340        @#      MOVS     r3,#0x40
        0x08005422:    2101        .!      MOVS     r1,#1
        0x08005424:    4620         F      MOV      r0,r4
        0x08005426:    f000fb21    ..!.    BL       USBD_LL_PrepareReceive ; 0x8005a6c
        0x0800542a:    2000        .       MOVS     r0,#0
        0x0800542c:    e8bd81f0    ....    POP      {r4-r8,pc}
        0x08005430:    f44f7300    O..s    MOV      r3,#0x200
        0x08005434:    2202        ."      MOVS     r2,#2
        0x08005436:    2181        .!      MOVS     r1,#0x81
        0x08005438:    4620         F      MOV      r0,r4
        0x0800543a:    f000fb02    ....    BL       USBD_LL_OpenEP ; 0x8005a42
        0x0800543e:    8726        &.      STRH     r6,[r4,#0x38]
        0x08005440:    f44f7300    O..s    MOV      r3,#0x200
        0x08005444:    2202        ."      MOVS     r2,#2
        0x08005446:    2101        .!      MOVS     r1,#1
        0x08005448:    4620         F      MOV      r0,r4
        0x0800544a:    f000fafa    ....    BL       USBD_LL_OpenEP ; 0x8005a42
        0x0800544e:    f8a46178    ..xa    STRH     r6,[r4,#0x178]
        0x08005452:    f8a4804e    ..N.    STRH     r8,[r4,#0x4e]
        0x08005456:    e7cf        ..      B        0x80053f8 ; USBD_CDC_Init + 80
        0x08005458:    f44f7300    O..s    MOV      r3,#0x200
        0x0800545c:    2101        .!      MOVS     r1,#1
        0x0800545e:    4620         F      MOV      r0,r4
        0x08005460:    f000fb04    ....    BL       USBD_LL_PrepareReceive ; 0x8005a6c
        0x08005464:    e7e1        ..      B        0x800542a ; USBD_CDC_Init + 130
        0x08005466:    0000        ..      MOVS     r0,r0
    i.USBD_CDC_InterfaceStrDescriptor
    USBD_CDC_InterfaceStrDescriptor
        0x08005468:    b510        ..      PUSH     {r4,lr}
        0x0800546a:    460a        .F      MOV      r2,r1
        0x0800546c:    4902        .I      LDR      r1,[pc,#8] ; [0x8005478] = 0x20001578
        0x0800546e:    a003        ..      ADR      r0,{pc}+0xe ; 0x800547c
        0x08005470:    f000f98c    ....    BL       USBD_GetString ; 0x800578c
        0x08005474:    4800        .H      LDR      r0,[pc,#0] ; [0x8005478] = 0x20001578
        0x08005476:    bd10        ..      POP      {r4,pc}
    $d
        0x08005478:    20001578    x..     DCD    536876408
        0x0800547c:    20434443    CDC     DCD    541279299
        0x08005480:    65746e49    Inte    DCD    1702129225
        0x08005484:    63616672    rfac    DCD    1667327602
        0x08005488:    00000065    e...    DCD    101
    $t
    i.USBD_CDC_LangIDStrDescriptor
    USBD_CDC_LangIDStrDescriptor
        0x0800548c:    2004        .       MOVS     r0,#4
        0x0800548e:    8008        ..      STRH     r0,[r1,#0]
        0x08005490:    4800        .H      LDR      r0,[pc,#0] ; [0x8005494] = 0x2000010c
        0x08005492:    4770        pG      BX       lr
    $d
        0x08005494:    2000010c    ...     DCD    536871180
    $t
    i.USBD_CDC_ManufacturerStrDescriptor
    USBD_CDC_ManufacturerStrDescriptor
        0x08005498:    b510        ..      PUSH     {r4,lr}
        0x0800549a:    460a        .F      MOV      r2,r1
        0x0800549c:    4902        .I      LDR      r1,[pc,#8] ; [0x80054a8] = 0x20001578
        0x0800549e:    a003        ..      ADR      r0,{pc}+0xe ; 0x80054ac
        0x080054a0:    f000f974    ..t.    BL       USBD_GetString ; 0x800578c
        0x080054a4:    4800        .H      LDR      r0,[pc,#0] ; [0x80054a8] = 0x20001578
        0x080054a6:    bd10        ..      POP      {r4,pc}
    $d
        0x080054a8:    20001578    x..     DCD    536876408
        0x080054ac:    694d5453    STMi    DCD    1766675539
        0x080054b0:    656f7263    croe    DCD    1701802595
        0x080054b4:    7463656c    lect    DCD    1952671084
        0x080054b8:    696e6f72    roni    DCD    1768845170
        0x080054bc:    00007363    cs..    DCD    29539
    $t
    i.USBD_CDC_ProductStrDescriptor
    USBD_CDC_ProductStrDescriptor
        0x080054c0:    b510        ..      PUSH     {r4,lr}
        0x080054c2:    460a        .F      MOV      r2,r1
        0x080054c4:    4902        .I      LDR      r1,[pc,#8] ; [0x80054d0] = 0x20001578
        0x080054c6:    a003        ..      ADR      r0,{pc}+0xe ; 0x80054d4
        0x080054c8:    f000f960    ..`.    BL       USBD_GetString ; 0x800578c
        0x080054cc:    4800        .H      LDR      r0,[pc,#0] ; [0x80054d0] = 0x20001578
        0x080054ce:    bd10        ..      POP      {r4,pc}
    $d
        0x080054d0:    20001578    x..     DCD    536876408
        0x080054d4:    334d5453    STM3    DCD    860705875
        0x080054d8:    69562032    2 Vi    DCD    1767252018
        0x080054dc:    61757472    rtua    DCD    1635087474
        0x080054e0:    6f43206c    l Co    DCD    1866670188
        0x080054e4:    726f506d    mPor    DCD    1919897709
        0x080054e8:    00000074    t...    DCD    116
    $t
    i.USBD_CDC_ReceivePacket
    USBD_CDC_ReceivePacket
        0x080054ec:    b510        ..      PUSH     {r4,lr}
        0x080054ee:    f8d012bc    ....    LDR      r1,[r0,#0x2bc]
        0x080054f2:    2900        .)      CMP      r1,#0
        0x080054f4:    bf04        ..      ITT      EQ
        0x080054f6:    2003        .       MOVEQ    r0,#3
        0x080054f8:    bd10        ..      POPEQ    {r4,pc}
        0x080054fa:    7c02        .|      LDRB     r2,[r0,#0x10]
        0x080054fc:    2a00        .*      CMP      r2,#0
        0x080054fe:    f8d12204    ..."    LDR      r2,[r1,#0x204]
        0x08005502:    d005        ..      BEQ      0x8005510 ; USBD_CDC_ReceivePacket + 36
        0x08005504:    2340        @#      MOVS     r3,#0x40
        0x08005506:    2101        .!      MOVS     r1,#1
        0x08005508:    f000fab0    ....    BL       USBD_LL_PrepareReceive ; 0x8005a6c
        0x0800550c:    2000        .       MOVS     r0,#0
        0x0800550e:    bd10        ..      POP      {r4,pc}
        0x08005510:    f44f7300    O..s    MOV      r3,#0x200
        0x08005514:    2101        .!      MOVS     r1,#1
        0x08005516:    f000faa9    ....    BL       USBD_LL_PrepareReceive ; 0x8005a6c
        0x0800551a:    e7f7        ..      B        0x800550c ; USBD_CDC_ReceivePacket + 32
    i.USBD_CDC_RegisterInterface
    USBD_CDC_RegisterInterface
        0x0800551c:    2900        .)      CMP      r1,#0
        0x0800551e:    bf0e        ..      ITEE     EQ
        0x08005520:    2003        .       MOVEQ    r0,#3
        0x08005522:    f8c012c0    ....    STRNE    r1,[r0,#0x2c0]
        0x08005526:    2000        .       MOVNE    r0,#0
        0x08005528:    4770        pG      BX       lr
        0x0800552a:    0000        ..      MOVS     r0,r0
    i.USBD_CDC_SerialStrDescriptor
    USBD_CDC_SerialStrDescriptor
        0x0800552c:    e92d01f0    -...    PUSH     {r4-r8}
        0x08005530:    201a        .       MOVS     r0,#0x1a
        0x08005532:    8008        ..      STRH     r0,[r1,#0]
        0x08005534:    481a        .H      LDR      r0,[pc,#104] ; [0x80055a0] = 0x1fff7590
        0x08005536:    4a1c        .J      LDR      r2,[pc,#112] ; [0x80055a8] = 0x1fff7598
        0x08005538:    491a        .I      LDR      r1,[pc,#104] ; [0x80055a4] = 0x1fff7594
        0x0800553a:    6800        .h      LDR      r0,[r0,#0]
        0x0800553c:    6812        .h      LDR      r2,[r2,#0]
        0x0800553e:    6809        .h      LDR      r1,[r1,#0]
        0x08005540:    1880        ..      ADDS     r0,r0,r2
        0x08005542:    d029        ).      BEQ      0x8005598 ; USBD_CDC_SerialStrDescriptor + 108
        0x08005544:    4f19        .O      LDR      r7,[pc,#100] ; [0x80055ac] = 0x20000124
        0x08005546:    2308        .#      MOVS     r3,#8
        0x08005548:    1cba        ..      ADDS     r2,r7,#2
        0x0800554a:    240a        .$      MOVS     r4,#0xa
        0x0800554c:    2530        0%      MOVS     r5,#0x30
        0x0800554e:    2637        7&      MOVS     r6,#0x37
        0x08005550:    f04f0c00    O...    MOV      r12,#0
        0x08005554:    ebb47f10    ....    CMP      r4,r0,LSR #28
        0x08005558:    bf8c        ..      ITE      HI
        0x0800555a:    eb057810    ...x    ADDHI    r8,r5,r0,LSR #28
        0x0800555e:    eb067810    ...x    ADDLS    r8,r6,r0,LSR #28
        0x08005562:    f8828000    ....    STRB     r8,[r2,#0]
        0x08005566:    f882c001    ....    STRB     r12,[r2,#1]
        0x0800556a:    0100        ..      LSLS     r0,r0,#4
        0x0800556c:    1c92        ..      ADDS     r2,r2,#2
        0x0800556e:    1e5b        [.      SUBS     r3,r3,#1
        0x08005570:    bf04        ..      ITT      EQ
        0x08005572:    f1070012    ....    ADDEQ    r0,r7,#0x12
        0x08005576:    2204        ."      MOVEQ    r2,#4
        0x08005578:    d1ec        ..      BNE      0x8005554 ; USBD_CDC_SerialStrDescriptor + 40
        0x0800557a:    bf00        ..      NOP      
        0x0800557c:    ebb47f11    ....    CMP      r4,r1,LSR #28
        0x08005580:    bf8c        ..      ITE      HI
        0x08005582:    eb057311    ...s    ADDHI    r3,r5,r1,LSR #28
        0x08005586:    eb067311    ...s    ADDLS    r3,r6,r1,LSR #28
        0x0800558a:    7003        .p      STRB     r3,[r0,#0]
        0x0800558c:    f880c001    ....    STRB     r12,[r0,#1]
        0x08005590:    0109        ..      LSLS     r1,r1,#4
        0x08005592:    1c80        ..      ADDS     r0,r0,#2
        0x08005594:    1e52        R.      SUBS     r2,r2,#1
        0x08005596:    d1f1        ..      BNE      0x800557c ; USBD_CDC_SerialStrDescriptor + 80
        0x08005598:    e8bd01f0    ....    POP      {r4-r8}
        0x0800559c:    4803        .H      LDR      r0,[pc,#12] ; [0x80055ac] = 0x20000124
        0x0800559e:    4770        pG      BX       lr
    $d
        0x080055a0:    1fff7590    .u..    DCD    536835472
        0x080055a4:    1fff7594    .u..    DCD    536835476
        0x080055a8:    1fff7598    .u..    DCD    536835480
        0x080055ac:    20000124    $..     DCD    536871204
    $t
    i.USBD_CDC_SetRxBuffer
    USBD_CDC_SetRxBuffer
        0x080055b0:    f8d002bc    ....    LDR      r0,[r0,#0x2bc]
        0x080055b4:    2800        .(      CMP      r0,#0
        0x080055b6:    bf0e        ..      ITEE     EQ
        0x080055b8:    2003        .       MOVEQ    r0,#3
        0x080055ba:    f8c01204    ....    STRNE    r1,[r0,#0x204]
        0x080055be:    2000        .       MOVNE    r0,#0
        0x080055c0:    4770        pG      BX       lr
    i.USBD_CDC_SetTxBuffer
    USBD_CDC_SetTxBuffer
        0x080055c2:    f8d002bc    ....    LDR      r0,[r0,#0x2bc]
        0x080055c6:    2800        .(      CMP      r0,#0
        0x080055c8:    bf04        ..      ITT      EQ
        0x080055ca:    2003        .       MOVEQ    r0,#3
        0x080055cc:    4770        pG      BXEQ     lr
        0x080055ce:    f8c02210    ..."    STR      r2,[r0,#0x210]
        0x080055d2:    f8c01208    ....    STR      r1,[r0,#0x208]
        0x080055d6:    2000        .       MOVS     r0,#0
        0x080055d8:    4770        pG      BX       lr
    i.USBD_CDC_Setup
    USBD_CDC_Setup
        0x080055da:    b5f0        ..      PUSH     {r4-r7,lr}
        0x080055dc:    4605        .F      MOV      r5,r0
        0x080055de:    f8d072bc    ...r    LDR      r7,[r0,#0x2bc]
        0x080055e2:    2000        .       MOVS     r0,#0
        0x080055e4:    b083        ..      SUB      sp,sp,#0xc
        0x080055e6:    460c        .F      MOV      r4,r1
        0x080055e8:    f88d0000    ....    STRB     r0,[sp,#0]
        0x080055ec:    f8ad0004    ....    STRH     r0,[sp,#4]
        0x080055f0:    4606        .F      MOV      r6,r0
        0x080055f2:    2f00        ./      CMP      r7,#0
        0x080055f4:    bf02        ..      ITTT     EQ
        0x080055f6:    2003        .       MOVEQ    r0,#3
        0x080055f8:    b003        ..      ADDEQ    sp,sp,#0xc
        0x080055fa:    bdf0        ..      POPEQ    {r4-r7,pc}
        0x080055fc:    7820         x      LDRB     r0,[r4,#0]
        0x080055fe:    f0100160    ..`.    ANDS     r1,r0,#0x60
        0x08005602:    d028        (.      BEQ      0x8005656 ; USBD_CDC_Setup + 124
        0x08005604:    2920         )      CMP      r1,#0x20
        0x08005606:    d141        A.      BNE      0x800568c ; USBD_CDC_Setup + 178
        0x08005608:    88e2        ..      LDRH     r2,[r4,#6]
        0x0800560a:    b1e2        ..      CBZ      r2,0x8005646 ; USBD_CDC_Setup + 108
        0x0800560c:    f0100f80    ....    TST      r0,#0x80
        0x08005610:    7860        `x      LDRB     r0,[r4,#1]
        0x08005612:    d00d        ..      BEQ      0x8005630 ; USBD_CDC_Setup + 86
        0x08005614:    f8d512c0    ....    LDR      r1,[r5,#0x2c0]
        0x08005618:    688b        .h      LDR      r3,[r1,#8]
        0x0800561a:    4639        9F      MOV      r1,r7
        0x0800561c:    4798        .G      BLX      r3
        0x0800561e:    88e2        ..      LDRH     r2,[r4,#6]
        0x08005620:    2a07        .*      CMP      r2,#7
        0x08005622:    bf88        ..      IT       HI
        0x08005624:    2207        ."      MOVHI    r2,#7
        0x08005626:    4639        9F      MOV      r1,r7
        0x08005628:    4628        (F      MOV      r0,r5
        0x0800562a:    f000f896    ....    BL       USBD_CtlSendData ; 0x800575a
        0x0800562e:    e032        2.      B        0x8005696 ; USBD_CDC_Setup + 188
        0x08005630:    f8870200    ....    STRB     r0,[r7,#0x200]
        0x08005634:    79a0        .y      LDRB     r0,[r4,#6]
        0x08005636:    f8870201    ....    STRB     r0,[r7,#0x201]
        0x0800563a:    88e2        ..      LDRH     r2,[r4,#6]
        0x0800563c:    4639        9F      MOV      r1,r7
        0x0800563e:    4628        (F      MOV      r0,r5
        0x08005640:    f000f871    ..q.    BL       USBD_CtlPrepareRx ; 0x8005726
        0x08005644:    e027        '.      B        0x8005696 ; USBD_CDC_Setup + 188
        0x08005646:    f8d512c0    ....    LDR      r1,[r5,#0x2c0]
        0x0800564a:    7860        `x      LDRB     r0,[r4,#1]
        0x0800564c:    2200        ."      MOVS     r2,#0
        0x0800564e:    688b        .h      LDR      r3,[r1,#8]
        0x08005650:    4621        !F      MOV      r1,r4
        0x08005652:    4798        .G      BLX      r3
        0x08005654:    e01f        ..      B        0x8005696 ; USBD_CDC_Setup + 188
        0x08005656:    7860        `x      LDRB     r0,[r4,#1]
        0x08005658:    b150        P.      CBZ      r0,0x8005670 ; USBD_CDC_Setup + 150
        0x0800565a:    2801        .(      CMP      r0,#1
        0x0800565c:    d01b        ..      BEQ      0x8005696 ; USBD_CDC_Setup + 188
        0x0800565e:    280a        .(      CMP      r0,#0xa
        0x08005660:    d010        ..      BEQ      0x8005684 ; USBD_CDC_Setup + 170
        0x08005662:    280b        .(      CMP      r0,#0xb
        0x08005664:    bf04        ..      ITT      EQ
        0x08005666:    f895029c    ....    LDRBEQ   r0,[r5,#0x29c]
        0x0800566a:    2803        .(      CMPEQ    r0,#3
        0x0800566c:    d013        ..      BEQ      0x8005696 ; USBD_CDC_Setup + 188
        0x0800566e:    e00d        ..      B        0x800568c ; USBD_CDC_Setup + 178
        0x08005670:    f895029c    ....    LDRB     r0,[r5,#0x29c]
        0x08005674:    2803        .(      CMP      r0,#3
        0x08005676:    d109        ..      BNE      0x800568c ; USBD_CDC_Setup + 178
        0x08005678:    2202        ."      MOVS     r2,#2
        0x0800567a:    a901        ..      ADD      r1,sp,#4
        0x0800567c:    4628        (F      MOV      r0,r5
        0x0800567e:    f000f86c    ..l.    BL       USBD_CtlSendData ; 0x800575a
        0x08005682:    e008        ..      B        0x8005696 ; USBD_CDC_Setup + 188
        0x08005684:    f895029c    ....    LDRB     r0,[r5,#0x29c]
        0x08005688:    2803        .(      CMP      r0,#3
        0x0800568a:    d007        ..      BEQ      0x800569c ; USBD_CDC_Setup + 194
        0x0800568c:    4621        !F      MOV      r1,r4
        0x0800568e:    4628        (F      MOV      r0,r5
        0x08005690:    f000f83e    ..>.    BL       USBD_CtlError ; 0x8005710
        0x08005694:    2603        .&      MOVS     r6,#3
        0x08005696:    b003        ..      ADD      sp,sp,#0xc
        0x08005698:    4630        0F      MOV      r0,r6
        0x0800569a:    bdf0        ..      POP      {r4-r7,pc}
        0x0800569c:    2201        ."      MOVS     r2,#1
        0x0800569e:    4669        iF      MOV      r1,sp
        0x080056a0:    4628        (F      MOV      r0,r5
        0x080056a2:    f000f85a    ..Z.    BL       USBD_CtlSendData ; 0x800575a
        0x080056a6:    e7f6        ..      B        0x8005696 ; USBD_CDC_Setup + 188
    i.USBD_CDC_TransmitPacket
    USBD_CDC_TransmitPacket
        0x080056a8:    b510        ..      PUSH     {r4,lr}
        0x080056aa:    f8d012bc    ....    LDR      r1,[r0,#0x2bc]
        0x080056ae:    2201        ."      MOVS     r2,#1
        0x080056b0:    2900        .)      CMP      r1,#0
        0x080056b2:    bf04        ..      ITT      EQ
        0x080056b4:    2003        .       MOVEQ    r0,#3
        0x080056b6:    bd10        ..      POPEQ    {r4,pc}
        0x080056b8:    f8d13214    ...2    LDR      r3,[r1,#0x214]
        0x080056bc:    b96b        k.      CBNZ     r3,0x80056da ; USBD_CDC_TransmitPacket + 50
        0x080056be:    2201        ."      MOVS     r2,#1
        0x080056c0:    f8c12214    ..."    STR      r2,[r1,#0x214]
        0x080056c4:    f8d12210    ..."    LDR      r2,[r1,#0x210]
        0x080056c8:    62c2        .b      STR      r2,[r0,#0x2c]
        0x080056ca:    f8d13210    ...2    LDR      r3,[r1,#0x210]
        0x080056ce:    f8d12208    ..."    LDR      r2,[r1,#0x208]
        0x080056d2:    2181        .!      MOVS     r1,#0x81
        0x080056d4:    f000fa9c    ....    BL       USBD_LL_Transmit ; 0x8005c10
        0x080056d8:    2200        ."      MOVS     r2,#0
        0x080056da:    4610        .F      MOV      r0,r2
        0x080056dc:    bd10        ..      POP      {r4,pc}
    i.USBD_ClrClassConfig
    USBD_ClrClassConfig
        0x080056de:    b510        ..      PUSH     {r4,lr}
        0x080056e0:    f8d022b8    ..."    LDR      r2,[r0,#0x2b8]
        0x080056e4:    2a00        .*      CMP      r2,#0
        0x080056e6:    bf1c        ..      ITT      NE
        0x080056e8:    6852        Rh      LDRNE    r2,[r2,#4]
        0x080056ea:    4790        .G      BLXNE    r2
        0x080056ec:    2000        .       MOVS     r0,#0
        0x080056ee:    bd10        ..      POP      {r4,pc}
    i.USBD_CtlContinueRx
    USBD_CtlContinueRx
        0x080056f0:    4613        .F      MOV      r3,r2
        0x080056f2:    b510        ..      PUSH     {r4,lr}
        0x080056f4:    460a        .F      MOV      r2,r1
        0x080056f6:    2100        .!      MOVS     r1,#0
        0x080056f8:    f000f9b8    ....    BL       USBD_LL_PrepareReceive ; 0x8005a6c
        0x080056fc:    2000        .       MOVS     r0,#0
        0x080056fe:    bd10        ..      POP      {r4,pc}
    i.USBD_CtlContinueSendData
    USBD_CtlContinueSendData
        0x08005700:    4613        .F      MOV      r3,r2
        0x08005702:    b510        ..      PUSH     {r4,lr}
        0x08005704:    460a        .F      MOV      r2,r1
        0x08005706:    2100        .!      MOVS     r1,#0
        0x08005708:    f000fa82    ....    BL       USBD_LL_Transmit ; 0x8005c10
        0x0800570c:    2000        .       MOVS     r0,#0
        0x0800570e:    bd10        ..      POP      {r4,pc}
    i.USBD_CtlError
    USBD_CtlError
        0x08005710:    b510        ..      PUSH     {r4,lr}
        0x08005712:    4604        .F      MOV      r4,r0
        0x08005714:    2180        .!      MOVS     r1,#0x80
        0x08005716:    f000fa4e    ..N.    BL       USBD_LL_StallEP ; 0x8005bb6
        0x0800571a:    4620         F      MOV      r0,r4
        0x0800571c:    e8bd4010    ...@    POP      {r4,lr}
        0x08005720:    2100        .!      MOVS     r1,#0
        0x08005722:    f000ba48    ..H.    B.W      USBD_LL_StallEP ; 0x8005bb6
    i.USBD_CtlPrepareRx
    USBD_CtlPrepareRx
        0x08005726:    b510        ..      PUSH     {r4,lr}
        0x08005728:    2303        .#      MOVS     r3,#3
        0x0800572a:    f8c03294    ...2    STR      r3,[r0,#0x294]
        0x0800572e:    f8c02158    ..X!    STR      r2,[r0,#0x158]
        0x08005732:    4613        .F      MOV      r3,r2
        0x08005734:    f8c0215c    ..\!    STR      r2,[r0,#0x15c]
        0x08005738:    460a        .F      MOV      r2,r1
        0x0800573a:    2100        .!      MOVS     r1,#0
        0x0800573c:    f000f996    ....    BL       USBD_LL_PrepareReceive ; 0x8005a6c
        0x08005740:    2000        .       MOVS     r0,#0
        0x08005742:    bd10        ..      POP      {r4,pc}
    i.USBD_CtlReceiveStatus
    USBD_CtlReceiveStatus
        0x08005744:    b510        ..      PUSH     {r4,lr}
        0x08005746:    2105        .!      MOVS     r1,#5
        0x08005748:    f8c01294    ....    STR      r1,[r0,#0x294]
        0x0800574c:    2300        .#      MOVS     r3,#0
        0x0800574e:    461a        .F      MOV      r2,r3
        0x08005750:    4619        .F      MOV      r1,r3
        0x08005752:    f000f98b    ....    BL       USBD_LL_PrepareReceive ; 0x8005a6c
        0x08005756:    2000        .       MOVS     r0,#0
        0x08005758:    bd10        ..      POP      {r4,pc}
    i.USBD_CtlSendData
    USBD_CtlSendData
        0x0800575a:    b510        ..      PUSH     {r4,lr}
        0x0800575c:    2302        .#      MOVS     r3,#2
        0x0800575e:    f8c03294    ...2    STR      r3,[r0,#0x294]
        0x08005762:    6182        .a      STR      r2,[r0,#0x18]
        0x08005764:    4613        .F      MOV      r3,r2
        0x08005766:    61c2        .a      STR      r2,[r0,#0x1c]
        0x08005768:    460a        .F      MOV      r2,r1
        0x0800576a:    2100        .!      MOVS     r1,#0
        0x0800576c:    f000fa50    ..P.    BL       USBD_LL_Transmit ; 0x8005c10
        0x08005770:    2000        .       MOVS     r0,#0
        0x08005772:    bd10        ..      POP      {r4,pc}
    i.USBD_CtlSendStatus
    USBD_CtlSendStatus
        0x08005774:    b510        ..      PUSH     {r4,lr}
        0x08005776:    2104        .!      MOVS     r1,#4
        0x08005778:    f8c01294    ....    STR      r1,[r0,#0x294]
        0x0800577c:    2300        .#      MOVS     r3,#0
        0x0800577e:    461a        .F      MOV      r2,r3
        0x08005780:    4619        .F      MOV      r1,r3
        0x08005782:    f000fa45    ..E.    BL       USBD_LL_Transmit ; 0x8005c10
        0x08005786:    2000        .       MOVS     r0,#0
        0x08005788:    bd10        ..      POP      {r4,pc}
        0x0800578a:    0000        ..      MOVS     r0,r0
    i.USBD_GetString
    USBD_GetString
        0x0800578c:    b430        0.      PUSH     {r4,r5}
        0x0800578e:    2500        .%      MOVS     r5,#0
        0x08005790:    2800        .(      CMP      r0,#0
        0x08005792:    bf04        ..      ITT      EQ
        0x08005794:    bc30        0.      POPEQ    {r4,r5}
        0x08005796:    4770        pG      BXEQ     lr
        0x08005798:    f04f0c00    O...    MOV      r12,#0
        0x0800579c:    7804        .x      LDRB     r4,[r0,#0]
        0x0800579e:    4603        .F      MOV      r3,r0
        0x080057a0:    b144        D.      CBZ      r4,0x80057b4 ; USBD_GetString + 40
        0x080057a2:    bf00        ..      NOP      
        0x080057a4:    f8134f01    ...O    LDRB     r4,[r3,#1]!
        0x080057a8:    f10c0c01    ....    ADD      r12,r12,#1
        0x080057ac:    f00c0cff    ....    AND      r12,r12,#0xff
        0x080057b0:    2c00        .,      CMP      r4,#0
        0x080057b2:    d1f7        ..      BNE      0x80057a4 ; USBD_GetString + 24
        0x080057b4:    2302        .#      MOVS     r3,#2
        0x080057b6:    eb03034c    ..L.    ADD      r3,r3,r12,LSL #1
        0x080057ba:    8013        ..      STRH     r3,[r2,#0]
        0x080057bc:    7812        .x      LDRB     r2,[r2,#0]
        0x080057be:    554a        JU      STRB     r2,[r1,r5]
        0x080057c0:    1c6a        j.      ADDS     r2,r5,#1
        0x080057c2:    2303        .#      MOVS     r3,#3
        0x080057c4:    548b        .T      STRB     r3,[r1,r2]
        0x080057c6:    7803        .x      LDRB     r3,[r0,#0]
        0x080057c8:    1caa        ..      ADDS     r2,r5,#2
        0x080057ca:    2b00        .+      CMP      r3,#0
        0x080057cc:    bf12        ..      ITEE     NE
        0x080057ce:    2300        .#      MOVNE    r3,#0
        0x080057d0:    bc30        0.      POPEQ    {r4,r5}
        0x080057d2:    4770        pG      BXEQ     lr
        0x080057d4:    f810cb01    ....    LDRB     r12,[r0],#1
        0x080057d8:    f801c002    ....    STRB     r12,[r1,r2]
        0x080057dc:    1c52        R.      ADDS     r2,r2,#1
        0x080057de:    b2d2        ..      UXTB     r2,r2
        0x080057e0:    548b        .T      STRB     r3,[r1,r2]
        0x080057e2:    1c52        R.      ADDS     r2,r2,#1
        0x080057e4:    f890c000    ....    LDRB     r12,[r0,#0]
        0x080057e8:    b2d2        ..      UXTB     r2,r2
        0x080057ea:    f1bc0f00    ....    CMP      r12,#0
        0x080057ee:    d1f1        ..      BNE      0x80057d4 ; USBD_GetString + 72
        0x080057f0:    bc30        0.      POP      {r4,r5}
        0x080057f2:    4770        pG      BX       lr
    i.USBD_Init
    USBD_Init
        0x080057f4:    2800        .(      CMP      r0,#0
        0x080057f6:    bf04        ..      ITT      EQ
        0x080057f8:    2003        .       MOVEQ    r0,#3
        0x080057fa:    4770        pG      BXEQ     lr
        0x080057fc:    2300        .#      MOVS     r3,#0
        0x080057fe:    f8c032b8    ...2    STR      r3,[r0,#0x2b8]
        0x08005802:    f8c032c0    ...2    STR      r3,[r0,#0x2c0]
        0x08005806:    f8c032cc    ...2    STR      r3,[r0,#0x2cc]
        0x0800580a:    2900        .)      CMP      r1,#0
        0x0800580c:    bf18        ..      IT       NE
        0x0800580e:    f8c012b4    ....    STRNE    r1,[r0,#0x2b4]
        0x08005812:    2101        .!      MOVS     r1,#1
        0x08005814:    f880129c    ....    STRB     r1,[r0,#0x29c]
        0x08005818:    7002        .p      STRB     r2,[r0,#0]
        0x0800581a:    f000b8bd    ....    B.W      USBD_LL_Init ; 0x8005998
    i.USBD_LL_ClearStallEP
    USBD_LL_ClearStallEP
        0x0800581e:    b510        ..      PUSH     {r4,lr}
        0x08005820:    f8d002c4    ....    LDR      r0,[r0,#0x2c4]
        0x08005824:    f7fcf8d5    ....    BL       HAL_PCD_EP_ClrStall ; 0x80019d2
        0x08005828:    0001        ..      MOVS     r1,r0
        0x0800582a:    f04f0000    O...    MOV      r0,#0
        0x0800582e:    bf08        ..      IT       EQ
        0x08005830:    bd10        ..      POPEQ    {r4,pc}
        0x08005832:    2901        .)      CMP      r1,#1
        0x08005834:    d003        ..      BEQ      0x800583e ; USBD_LL_ClearStallEP + 32
        0x08005836:    2902        .)      CMP      r1,#2
        0x08005838:    bf04        ..      ITT      EQ
        0x0800583a:    2001        .       MOVEQ    r0,#1
        0x0800583c:    bd10        ..      POPEQ    {r4,pc}
        0x0800583e:    2003        .       MOVS     r0,#3
        0x08005840:    bd10        ..      POP      {r4,pc}
    i.USBD_LL_CloseEP
    USBD_LL_CloseEP
        0x08005842:    b510        ..      PUSH     {r4,lr}
        0x08005844:    f8d002c4    ....    LDR      r0,[r0,#0x2c4]
        0x08005848:    f7fcf89d    ....    BL       HAL_PCD_EP_Close ; 0x8001986
        0x0800584c:    0001        ..      MOVS     r1,r0
        0x0800584e:    f04f0000    O...    MOV      r0,#0
        0x08005852:    bf08        ..      IT       EQ
        0x08005854:    bd10        ..      POPEQ    {r4,pc}
        0x08005856:    2901        .)      CMP      r1,#1
        0x08005858:    d003        ..      BEQ      0x8005862 ; USBD_LL_CloseEP + 32
        0x0800585a:    2902        .)      CMP      r1,#2
        0x0800585c:    bf04        ..      ITT      EQ
        0x0800585e:    2001        .       MOVEQ    r0,#1
        0x08005860:    bd10        ..      POPEQ    {r4,pc}
        0x08005862:    2003        .       MOVS     r0,#3
        0x08005864:    bd10        ..      POP      {r4,pc}
    i.USBD_LL_DataInStage
    USBD_LL_DataInStage
        0x08005866:    b570        p.      PUSH     {r4-r6,lr}
        0x08005868:    4613        .F      MOV      r3,r2
        0x0800586a:    4604        .F      MOV      r4,r0
        0x0800586c:    b121        !.      CBZ      r1,0x8005878 ; USBD_LL_DataInStage + 18
        0x0800586e:    f894029c    ....    LDRB     r0,[r4,#0x29c]
        0x08005872:    2803        .(      CMP      r0,#3
        0x08005874:    d048        H.      BEQ      0x8005908 ; USBD_LL_DataInStage + 162
        0x08005876:    e050        P.      B        0x800591a ; USBD_LL_DataInStage + 180
        0x08005878:    f8d41294    ....    LDR      r1,[r4,#0x294]
        0x0800587c:    f1040014    ....    ADD      r0,r4,#0x14
        0x08005880:    2500        .%      MOVS     r5,#0
        0x08005882:    2902        .)      CMP      r1,#2
        0x08005884:    d139        9.      BNE      0x80058fa ; USBD_LL_DataInStage + 148
        0x08005886:    e9d02102    ...!    LDRD     r2,r1,[r0,#8]
        0x0800588a:    4291        .B      CMP      r1,r2
        0x0800588c:    d20d        ..      BCS      0x80058aa ; USBD_LL_DataInStage + 68
        0x0800588e:    eba20201    ....    SUB      r2,r2,r1
        0x08005892:    6082        .`      STR      r2,[r0,#8]
        0x08005894:    4619        .F      MOV      r1,r3
        0x08005896:    4620         F      MOV      r0,r4
        0x08005898:    f7ffff32    ..2.    BL       USBD_CtlContinueSendData ; 0x8005700
        0x0800589c:    2300        .#      MOVS     r3,#0
        0x0800589e:    461a        .F      MOV      r2,r3
        0x080058a0:    4619        .F      MOV      r1,r3
        0x080058a2:    4620         F      MOV      r0,r4
        0x080058a4:    f000f8e2    ....    BL       USBD_LL_PrepareReceive ; 0x8005a6c
        0x080058a8:    e027        '.      B        0x80058fa ; USBD_LL_DataInStage + 148
        0x080058aa:    d114        ..      BNE      0x80058d6 ; USBD_LL_DataInStage + 112
        0x080058ac:    6840        @h      LDR      r0,[r0,#4]
        0x080058ae:    4288        .B      CMP      r0,r1
        0x080058b0:    d311        ..      BCC      0x80058d6 ; USBD_LL_DataInStage + 112
        0x080058b2:    f8d41298    ....    LDR      r1,[r4,#0x298]
        0x080058b6:    4288        .B      CMP      r0,r1
        0x080058b8:    d20d        ..      BCS      0x80058d6 ; USBD_LL_DataInStage + 112
        0x080058ba:    2200        ."      MOVS     r2,#0
        0x080058bc:    4611        .F      MOV      r1,r2
        0x080058be:    4620         F      MOV      r0,r4
        0x080058c0:    f7ffff1e    ....    BL       USBD_CtlContinueSendData ; 0x8005700
        0x080058c4:    2300        .#      MOVS     r3,#0
        0x080058c6:    461a        .F      MOV      r2,r3
        0x080058c8:    4619        .F      MOV      r1,r3
        0x080058ca:    4620         F      MOV      r0,r4
        0x080058cc:    f8c45298    ...R    STR      r5,[r4,#0x298]
        0x080058d0:    f000f8cc    ....    BL       USBD_LL_PrepareReceive ; 0x8005a6c
        0x080058d4:    e011        ..      B        0x80058fa ; USBD_LL_DataInStage + 148
        0x080058d6:    f894029c    ....    LDRB     r0,[r4,#0x29c]
        0x080058da:    2803        .(      CMP      r0,#3
        0x080058dc:    d106        ..      BNE      0x80058ec ; USBD_LL_DataInStage + 134
        0x080058de:    f8d402b8    ....    LDR      r0,[r4,#0x2b8]
        0x080058e2:    68c1        .h      LDR      r1,[r0,#0xc]
        0x080058e4:    2900        .)      CMP      r1,#0
        0x080058e6:    bf1c        ..      ITT      NE
        0x080058e8:    4620         F      MOVNE    r0,r4
        0x080058ea:    4788        .G      BLXNE    r1
        0x080058ec:    2180        .!      MOVS     r1,#0x80
        0x080058ee:    4620         F      MOV      r0,r4
        0x080058f0:    f000f961    ..a.    BL       USBD_LL_StallEP ; 0x8005bb6
        0x080058f4:    4620         F      MOV      r0,r4
        0x080058f6:    f7ffff25    ..%.    BL       USBD_CtlReceiveStatus ; 0x8005744
        0x080058fa:    f89402a0    ....    LDRB     r0,[r4,#0x2a0]
        0x080058fe:    2801        .(      CMP      r0,#1
        0x08005900:    bf08        ..      IT       EQ
        0x08005902:    f88452a0    ...R    STRBEQ   r5,[r4,#0x2a0]
        0x08005906:    e008        ..      B        0x800591a ; USBD_LL_DataInStage + 180
        0x08005908:    f8d402b8    ....    LDR      r0,[r4,#0x2b8]
        0x0800590c:    6942        Bi      LDR      r2,[r0,#0x14]
        0x0800590e:    b122        ".      CBZ      r2,0x800591a ; USBD_LL_DataInStage + 180
        0x08005910:    4620         F      MOV      r0,r4
        0x08005912:    4790        .G      BLX      r2
        0x08005914:    2800        .(      CMP      r0,#0
        0x08005916:    bf18        ..      IT       NE
        0x08005918:    bd70        p.      POPNE    {r4-r6,pc}
        0x0800591a:    2000        .       MOVS     r0,#0
        0x0800591c:    bd70        p.      POP      {r4-r6,pc}
    i.USBD_LL_DataOutStage
    USBD_LL_DataOutStage
        0x0800591e:    b510        ..      PUSH     {r4,lr}
        0x08005920:    4694        .F      MOV      r12,r2
        0x08005922:    4604        .F      MOV      r4,r0
        0x08005924:    b121        !.      CBZ      r1,0x8005930 ; USBD_LL_DataOutStage + 18
        0x08005926:    f894029c    ....    LDRB     r0,[r4,#0x29c]
        0x0800592a:    2803        .(      CMP      r0,#3
        0x0800592c:    d024        $.      BEQ      0x8005978 ; USBD_LL_DataOutStage + 90
        0x0800592e:    e02c        ,.      B        0x800598a ; USBD_LL_DataOutStage + 108
        0x08005930:    f8d41294    ....    LDR      r1,[r4,#0x294]
        0x08005934:    f50470aa    ...p    ADD      r0,r4,#0x154
        0x08005938:    2903        .)      CMP      r1,#3
        0x0800593a:    d126        &.      BNE      0x800598a ; USBD_LL_DataOutStage + 108
        0x0800593c:    e9d03202    ...2    LDRD     r3,r2,[r0,#8]
        0x08005940:    4293        .B      CMP      r3,r2
        0x08005942:    d90a        ..      BLS      0x800595a ; USBD_LL_DataOutStage + 60
        0x08005944:    1a9a        ..      SUBS     r2,r3,r2
        0x08005946:    6082        .`      STR      r2,[r0,#8]
        0x08005948:    68c0        .h      LDR      r0,[r0,#0xc]
        0x0800594a:    4290        .B      CMP      r0,r2
        0x0800594c:    bf98        ..      IT       LS
        0x0800594e:    4602        .F      MOVLS    r2,r0
        0x08005950:    4661        aF      MOV      r1,r12
        0x08005952:    4620         F      MOV      r0,r4
        0x08005954:    f7fffecc    ....    BL       USBD_CtlContinueRx ; 0x80056f0
        0x08005958:    e017        ..      B        0x800598a ; USBD_LL_DataOutStage + 108
        0x0800595a:    f894029c    ....    LDRB     r0,[r4,#0x29c]
        0x0800595e:    2803        .(      CMP      r0,#3
        0x08005960:    d106        ..      BNE      0x8005970 ; USBD_LL_DataOutStage + 82
        0x08005962:    f8d402b8    ....    LDR      r0,[r4,#0x2b8]
        0x08005966:    6901        .i      LDR      r1,[r0,#0x10]
        0x08005968:    2900        .)      CMP      r1,#0
        0x0800596a:    bf1c        ..      ITT      NE
        0x0800596c:    4620         F      MOVNE    r0,r4
        0x0800596e:    4788        .G      BLXNE    r1
        0x08005970:    4620         F      MOV      r0,r4
        0x08005972:    f7fffeff    ....    BL       USBD_CtlSendStatus ; 0x8005774
        0x08005976:    e008        ..      B        0x800598a ; USBD_LL_DataOutStage + 108
        0x08005978:    f8d402b8    ....    LDR      r0,[r4,#0x2b8]
        0x0800597c:    6982        .i      LDR      r2,[r0,#0x18]
        0x0800597e:    b122        ".      CBZ      r2,0x800598a ; USBD_LL_DataOutStage + 108
        0x08005980:    4620         F      MOV      r0,r4
        0x08005982:    4790        .G      BLX      r2
        0x08005984:    2800        .(      CMP      r0,#0
        0x08005986:    bf18        ..      IT       NE
        0x08005988:    bd10        ..      POPNE    {r4,pc}
        0x0800598a:    2000        .       MOVS     r0,#0
        0x0800598c:    bd10        ..      POP      {r4,pc}
    i.USBD_LL_GetRxDataSize
    USBD_LL_GetRxDataSize
        0x0800598e:    f8d002c4    ....    LDR      r0,[r0,#0x2c4]
        0x08005992:    f7fcb84c    ..L.    B        HAL_PCD_EP_GetRxCount ; 0x8001a2e
        0x08005996:    0000        ..      MOVS     r0,r0
    i.USBD_LL_Init
    USBD_LL_Init
        0x08005998:    b510        ..      PUSH     {r4,lr}
        0x0800599a:    4920         I      LDR      r1,[pc,#128] ; [0x8005a1c] = 0x20000fcc
        0x0800599c:    4604        .F      MOV      r4,r0
        0x0800599e:    f8c102d8    ....    STR      r0,[r1,#0x2d8]
        0x080059a2:    f8c012c4    ....    STR      r1,[r0,#0x2c4]
        0x080059a6:    481e        .H      LDR      r0,[pc,#120] ; [0x8005a20] = 0x40005c00
        0x080059a8:    6008        .`      STR      r0,[r1,#0]
        0x080059aa:    2008        .       MOVS     r0,#8
        0x080059ac:    7108        .q      STRB     r0,[r1,#4]
        0x080059ae:    2002        .       MOVS     r0,#2
        0x080059b0:    7148        Hq      STRB     r0,[r1,#5]
        0x080059b2:    71c8        .q      STRB     r0,[r1,#7]
        0x080059b4:    2000        .       MOVS     r0,#0
        0x080059b6:    7208        .r      STRB     r0,[r1,#8]
        0x080059b8:    7248        Hr      STRB     r0,[r1,#9]
        0x080059ba:    7288        .r      STRB     r0,[r1,#0xa]
        0x080059bc:    72c8        .r      STRB     r0,[r1,#0xb]
        0x080059be:    4608        .F      MOV      r0,r1
        0x080059c0:    f7fcf991    ....    BL       HAL_PCD_Init ; 0x8001ce6
        0x080059c4:    2800        .(      CMP      r0,#0
        0x080059c6:    bf18        ..      IT       NE
        0x080059c8:    f7fafe80    ....    BLNE     Error_Handler ; 0x80006cc
        0x080059cc:    2318        .#      MOVS     r3,#0x18
        0x080059ce:    2200        ."      MOVS     r2,#0
        0x080059d0:    4611        .F      MOV      r1,r2
        0x080059d2:    f8d402c4    ....    LDR      r0,[r4,#0x2c4]
        0x080059d6:    f7fbffa9    ....    BL       HAL_PCDEx_PMAConfig ; 0x800192c
        0x080059da:    2358        X#      MOVS     r3,#0x58
        0x080059dc:    2200        ."      MOVS     r2,#0
        0x080059de:    2180        .!      MOVS     r1,#0x80
        0x080059e0:    f8d402c4    ....    LDR      r0,[r4,#0x2c4]
        0x080059e4:    f7fbffa2    ....    BL       HAL_PCDEx_PMAConfig ; 0x800192c
        0x080059e8:    23c0        .#      MOVS     r3,#0xc0
        0x080059ea:    2200        ."      MOVS     r2,#0
        0x080059ec:    2181        .!      MOVS     r1,#0x81
        0x080059ee:    f8d402c4    ....    LDR      r0,[r4,#0x2c4]
        0x080059f2:    f7fbff9b    ....    BL       HAL_PCDEx_PMAConfig ; 0x800192c
        0x080059f6:    f44f7388    O..s    MOV      r3,#0x110
        0x080059fa:    2200        ."      MOVS     r2,#0
        0x080059fc:    2101        .!      MOVS     r1,#1
        0x080059fe:    f8d402c4    ....    LDR      r0,[r4,#0x2c4]
        0x08005a02:    f7fbff93    ....    BL       HAL_PCDEx_PMAConfig ; 0x800192c
        0x08005a06:    f44f7380    O..s    MOV      r3,#0x100
        0x08005a0a:    2200        ."      MOVS     r2,#0
        0x08005a0c:    2182        .!      MOVS     r1,#0x82
        0x08005a0e:    f8d402c4    ....    LDR      r0,[r4,#0x2c4]
        0x08005a12:    f7fbff8b    ....    BL       HAL_PCDEx_PMAConfig ; 0x800192c
        0x08005a16:    2000        .       MOVS     r0,#0
        0x08005a18:    bd10        ..      POP      {r4,pc}
    $d
        0x08005a1a:    0000        ..      DCW    0
        0x08005a1c:    20000fcc    ...     DCD    536874956
        0x08005a20:    40005c00    .\.@    DCD    1073765376
    $t
    i.USBD_LL_IsStallEP
    USBD_LL_IsStallEP
        0x08005a24:    f0110f80    ....    TST      r1,#0x80
        0x08005a28:    f001017f    ....    AND      r1,r1,#0x7f
        0x08005a2c:    f8d002c4    ....    LDR      r0,[r0,#0x2c4]
        0x08005a30:    eb010181    ....    ADD      r1,r1,r1,LSL #2
        0x08005a34:    eb0000c1    ....    ADD      r0,r0,r1,LSL #3
        0x08005a38:    bf14        ..      ITE      NE
        0x08005a3a:    7c80        .|      LDRBNE   r0,[r0,#0x12]
        0x08005a3c:    f8900152    ..R.    LDRBEQ   r0,[r0,#0x152]
        0x08005a40:    4770        pG      BX       lr
    i.USBD_LL_OpenEP
    USBD_LL_OpenEP
        0x08005a42:    b510        ..      PUSH     {r4,lr}
        0x08005a44:    469c        .F      MOV      r12,r3
        0x08005a46:    4613        .F      MOV      r3,r2
        0x08005a48:    f8d002c4    ....    LDR      r0,[r0,#0x2c4]
        0x08005a4c:    4662        bF      MOV      r2,r12
        0x08005a4e:    f7fbfff7    ....    BL       HAL_PCD_EP_Open ; 0x8001a40
        0x08005a52:    0001        ..      MOVS     r1,r0
        0x08005a54:    f04f0000    O...    MOV      r0,#0
        0x08005a58:    bf08        ..      IT       EQ
        0x08005a5a:    bd10        ..      POPEQ    {r4,pc}
        0x08005a5c:    2901        .)      CMP      r1,#1
        0x08005a5e:    d003        ..      BEQ      0x8005a68 ; USBD_LL_OpenEP + 38
        0x08005a60:    2902        .)      CMP      r1,#2
        0x08005a62:    bf04        ..      ITT      EQ
        0x08005a64:    2001        .       MOVEQ    r0,#1
        0x08005a66:    bd10        ..      POPEQ    {r4,pc}
        0x08005a68:    2003        .       MOVS     r0,#3
        0x08005a6a:    bd10        ..      POP      {r4,pc}
    i.USBD_LL_PrepareReceive
    USBD_LL_PrepareReceive
        0x08005a6c:    b510        ..      PUSH     {r4,lr}
        0x08005a6e:    f8d002c4    ....    LDR      r0,[r0,#0x2c4]
        0x08005a72:    f7fcf814    ....    BL       HAL_PCD_EP_Receive ; 0x8001a9e
        0x08005a76:    0001        ..      MOVS     r1,r0
        0x08005a78:    f04f0000    O...    MOV      r0,#0
        0x08005a7c:    bf08        ..      IT       EQ
        0x08005a7e:    bd10        ..      POPEQ    {r4,pc}
        0x08005a80:    2901        .)      CMP      r1,#1
        0x08005a82:    d003        ..      BEQ      0x8005a8c ; USBD_LL_PrepareReceive + 32
        0x08005a84:    2902        .)      CMP      r1,#2
        0x08005a86:    bf04        ..      ITT      EQ
        0x08005a88:    2001        .       MOVEQ    r0,#1
        0x08005a8a:    bd10        ..      POPEQ    {r4,pc}
        0x08005a8c:    2003        .       MOVS     r0,#3
        0x08005a8e:    bd10        ..      POP      {r4,pc}
    i.USBD_LL_Reset
    USBD_LL_Reset
        0x08005a90:    b570        p.      PUSH     {r4-r6,lr}
        0x08005a92:    2501        .%      MOVS     r5,#1
        0x08005a94:    4604        .F      MOV      r4,r0
        0x08005a96:    f880529c    ...R    STRB     r5,[r0,#0x29c]
        0x08005a9a:    2000        .       MOVS     r0,#0
        0x08005a9c:    f8c40294    ....    STR      r0,[r4,#0x294]
        0x08005aa0:    6060        ``      STR      r0,[r4,#4]
        0x08005aa2:    f8c402a4    ....    STR      r0,[r4,#0x2a4]
        0x08005aa6:    f8d402b8    ....    LDR      r0,[r4,#0x2b8]
        0x08005aaa:    2800        .(      CMP      r0,#0
        0x08005aac:    bf04        ..      ITT      EQ
        0x08005aae:    2003        .       MOVEQ    r0,#3
        0x08005ab0:    bd70        p.      POPEQ    {r4-r6,pc}
        0x08005ab2:    f8d412bc    ....    LDR      r1,[r4,#0x2bc]
        0x08005ab6:    2900        .)      CMP      r1,#0
        0x08005ab8:    bf1c        ..      ITT      NE
        0x08005aba:    6842        Bh      LDRNE    r2,[r0,#4]
        0x08005abc:    2a00        .*      CMPNE    r2,#0
        0x08005abe:    d003        ..      BEQ      0x8005ac8 ; USBD_LL_Reset + 56
        0x08005ac0:    f04f0100    O...    MOV      r1,#0
        0x08005ac4:    4620         F      MOV      r0,r4
        0x08005ac6:    4790        .G      BLX      r2
        0x08005ac8:    2200        ."      MOVS     r2,#0
        0x08005aca:    2340        @#      MOVS     r3,#0x40
        0x08005acc:    4611        .F      MOV      r1,r2
        0x08005ace:    4620         F      MOV      r0,r4
        0x08005ad0:    f7ffffb7    ....    BL       USBD_LL_OpenEP ; 0x8005a42
        0x08005ad4:    2640        @&      MOVS     r6,#0x40
        0x08005ad6:    f8a45164    ..dQ    STRH     r5,[r4,#0x164]
        0x08005ada:    4633        3F      MOV      r3,r6
        0x08005adc:    2200        ."      MOVS     r2,#0
        0x08005ade:    2180        .!      MOVS     r1,#0x80
        0x08005ae0:    4620         F      MOV      r0,r4
        0x08005ae2:    f8c46160    ..`a    STR      r6,[r4,#0x160]
        0x08005ae6:    f7ffffac    ....    BL       USBD_LL_OpenEP ; 0x8005a42
        0x08005aea:    84a5        ..      STRH     r5,[r4,#0x24]
        0x08005aec:    2000        .       MOVS     r0,#0
        0x08005aee:    6226        &b      STR      r6,[r4,#0x20]
        0x08005af0:    bd70        p.      POP      {r4-r6,pc}
    i.USBD_LL_Resume
    USBD_LL_Resume
        0x08005af2:    f890129c    ....    LDRB     r1,[r0,#0x29c]
        0x08005af6:    2904        .)      CMP      r1,#4
        0x08005af8:    bf04        ..      ITT      EQ
        0x08005afa:    f890129d    ....    LDRBEQ   r1,[r0,#0x29d]
        0x08005afe:    f880129c    ....    STRBEQ   r1,[r0,#0x29c]
        0x08005b02:    2000        .       MOVS     r0,#0
        0x08005b04:    4770        pG      BX       lr
    i.USBD_LL_SOF
    USBD_LL_SOF
        0x08005b06:    b510        ..      PUSH     {r4,lr}
        0x08005b08:    f8d012b8    ....    LDR      r1,[r0,#0x2b8]
        0x08005b0c:    2900        .)      CMP      r1,#0
        0x08005b0e:    bf04        ..      ITT      EQ
        0x08005b10:    2003        .       MOVEQ    r0,#3
        0x08005b12:    bd10        ..      POPEQ    {r4,pc}
        0x08005b14:    f890229c    ..."    LDRB     r2,[r0,#0x29c]
        0x08005b18:    2a03        .*      CMP      r2,#3
        0x08005b1a:    d103        ..      BNE      0x8005b24 ; USBD_LL_SOF + 30
        0x08005b1c:    69c9        .i      LDR      r1,[r1,#0x1c]
        0x08005b1e:    2900        .)      CMP      r1,#0
        0x08005b20:    bf18        ..      IT       NE
        0x08005b22:    4788        .G      BLXNE    r1
        0x08005b24:    2000        .       MOVS     r0,#0
        0x08005b26:    bd10        ..      POP      {r4,pc}
    i.USBD_LL_SetSpeed
    USBD_LL_SetSpeed
        0x08005b28:    7401        .t      STRB     r1,[r0,#0x10]
        0x08005b2a:    2000        .       MOVS     r0,#0
        0x08005b2c:    4770        pG      BX       lr
    i.USBD_LL_SetUSBAddress
    USBD_LL_SetUSBAddress
        0x08005b2e:    b510        ..      PUSH     {r4,lr}
        0x08005b30:    f8d002c4    ....    LDR      r0,[r0,#0x2c4]
        0x08005b34:    f7fcf96c    ..l.    BL       HAL_PCD_SetAddress ; 0x8001e10
        0x08005b38:    0001        ..      MOVS     r1,r0
        0x08005b3a:    f04f0000    O...    MOV      r0,#0
        0x08005b3e:    bf08        ..      IT       EQ
        0x08005b40:    bd10        ..      POPEQ    {r4,pc}
        0x08005b42:    2901        .)      CMP      r1,#1
        0x08005b44:    d003        ..      BEQ      0x8005b4e ; USBD_LL_SetUSBAddress + 32
        0x08005b46:    2902        .)      CMP      r1,#2
        0x08005b48:    bf04        ..      ITT      EQ
        0x08005b4a:    2001        .       MOVEQ    r0,#1
        0x08005b4c:    bd10        ..      POPEQ    {r4,pc}
        0x08005b4e:    2003        .       MOVS     r0,#3
        0x08005b50:    bd10        ..      POP      {r4,pc}
    i.USBD_LL_SetupStage
    USBD_LL_SetupStage
        0x08005b52:    b510        ..      PUSH     {r4,lr}
        0x08005b54:    4604        .F      MOV      r4,r0
        0x08005b56:    f20020aa    ...     ADD      r0,r0,#0x2aa
        0x08005b5a:    f000f86b    ..k.    BL       USBD_ParseSetupRequest ; 0x8005c34
        0x08005b5e:    2001        .       MOVS     r0,#1
        0x08005b60:    f8c40294    ....    STR      r0,[r4,#0x294]
        0x08005b64:    f8b402b0    ....    LDRH     r0,[r4,#0x2b0]
        0x08005b68:    f8c40298    ....    STR      r0,[r4,#0x298]
        0x08005b6c:    f89402aa    ....    LDRB     r0,[r4,#0x2aa]
        0x08005b70:    f010011f    ....    ANDS     r1,r0,#0x1f
        0x08005b74:    d00a        ..      BEQ      0x8005b8c ; USBD_LL_SetupStage + 58
        0x08005b76:    2901        .)      CMP      r1,#1
        0x08005b78:    d00f        ..      BEQ      0x8005b9a ; USBD_LL_SetupStage + 72
        0x08005b7a:    2902        .)      CMP      r1,#2
        0x08005b7c:    d014        ..      BEQ      0x8005ba8 ; USBD_LL_SetupStage + 86
        0x08005b7e:    f0000180    ....    AND      r1,r0,#0x80
        0x08005b82:    4620         F      MOV      r0,r4
        0x08005b84:    e8bd4010    ...@    POP      {r4,lr}
        0x08005b88:    f000b815    ....    B.W      USBD_LL_StallEP ; 0x8005bb6
        0x08005b8c:    f20421aa    ...!    ADD      r1,r4,#0x2aa
        0x08005b90:    4620         F      MOV      r0,r4
        0x08005b92:    e8bd4010    ...@    POP      {r4,lr}
        0x08005b96:    f000b883    ....    B.W      USBD_StdDevReq ; 0x8005ca0
        0x08005b9a:    f20421aa    ...!    ADD      r1,r4,#0x2aa
        0x08005b9e:    4620         F      MOV      r0,r4
        0x08005ba0:    e8bd4010    ...@    POP      {r4,lr}
        0x08005ba4:    f000baae    ....    B.W      USBD_StdItfReq ; 0x8006104
        0x08005ba8:    f20421aa    ...!    ADD      r1,r4,#0x2aa
        0x08005bac:    4620         F      MOV      r0,r4
        0x08005bae:    e8bd4010    ...@    POP      {r4,lr}
        0x08005bb2:    f000b9f1    ....    B.W      USBD_StdEPReq ; 0x8005f98
    i.USBD_LL_StallEP
    USBD_LL_StallEP
        0x08005bb6:    b510        ..      PUSH     {r4,lr}
        0x08005bb8:    f8d002c4    ....    LDR      r0,[r0,#0x2c4]
        0x08005bbc:    f7fbff86    ....    BL       HAL_PCD_EP_SetStall ; 0x8001acc
        0x08005bc0:    0001        ..      MOVS     r1,r0
        0x08005bc2:    f04f0000    O...    MOV      r0,#0
        0x08005bc6:    bf08        ..      IT       EQ
        0x08005bc8:    bd10        ..      POPEQ    {r4,pc}
        0x08005bca:    2901        .)      CMP      r1,#1
        0x08005bcc:    d003        ..      BEQ      0x8005bd6 ; USBD_LL_StallEP + 32
        0x08005bce:    2902        .)      CMP      r1,#2
        0x08005bd0:    bf04        ..      ITT      EQ
        0x08005bd2:    2001        .       MOVEQ    r0,#1
        0x08005bd4:    bd10        ..      POPEQ    {r4,pc}
        0x08005bd6:    2003        .       MOVS     r0,#3
        0x08005bd8:    bd10        ..      POP      {r4,pc}
    i.USBD_LL_Start
    USBD_LL_Start
        0x08005bda:    b510        ..      PUSH     {r4,lr}
        0x08005bdc:    f8d002c4    ....    LDR      r0,[r0,#0x2c4]
        0x08005be0:    f7fcf930    ..0.    BL       HAL_PCD_Start ; 0x8001e44
        0x08005be4:    0001        ..      MOVS     r1,r0
        0x08005be6:    f04f0000    O...    MOV      r0,#0
        0x08005bea:    bf08        ..      IT       EQ
        0x08005bec:    bd10        ..      POPEQ    {r4,pc}
        0x08005bee:    2901        .)      CMP      r1,#1
        0x08005bf0:    d003        ..      BEQ      0x8005bfa ; USBD_LL_Start + 32
        0x08005bf2:    2902        .)      CMP      r1,#2
        0x08005bf4:    bf04        ..      ITT      EQ
        0x08005bf6:    2001        .       MOVEQ    r0,#1
        0x08005bf8:    bd10        ..      POPEQ    {r4,pc}
        0x08005bfa:    2003        .       MOVS     r0,#3
        0x08005bfc:    bd10        ..      POP      {r4,pc}
    i.USBD_LL_Suspend
    USBD_LL_Suspend
        0x08005bfe:    f890129c    ....    LDRB     r1,[r0,#0x29c]
        0x08005c02:    f880129d    ....    STRB     r1,[r0,#0x29d]
        0x08005c06:    2104        .!      MOVS     r1,#4
        0x08005c08:    f880129c    ....    STRB     r1,[r0,#0x29c]
        0x08005c0c:    2000        .       MOVS     r0,#0
        0x08005c0e:    4770        pG      BX       lr
    i.USBD_LL_Transmit
    USBD_LL_Transmit
        0x08005c10:    b510        ..      PUSH     {r4,lr}
        0x08005c12:    f8d002c4    ....    LDR      r0,[r0,#0x2c4]
        0x08005c16:    f7fbff87    ....    BL       HAL_PCD_EP_Transmit ; 0x8001b28
        0x08005c1a:    0001        ..      MOVS     r1,r0
        0x08005c1c:    f04f0000    O...    MOV      r0,#0
        0x08005c20:    bf08        ..      IT       EQ
        0x08005c22:    bd10        ..      POPEQ    {r4,pc}
        0x08005c24:    2901        .)      CMP      r1,#1
        0x08005c26:    d003        ..      BEQ      0x8005c30 ; USBD_LL_Transmit + 32
        0x08005c28:    2902        .)      CMP      r1,#2
        0x08005c2a:    bf04        ..      ITT      EQ
        0x08005c2c:    2001        .       MOVEQ    r0,#1
        0x08005c2e:    bd10        ..      POPEQ    {r4,pc}
        0x08005c30:    2003        .       MOVS     r0,#3
        0x08005c32:    bd10        ..      POP      {r4,pc}
    i.USBD_ParseSetupRequest
    USBD_ParseSetupRequest
        0x08005c34:    f8112b01    ...+    LDRB     r2,[r1],#1
        0x08005c38:    7002        .p      STRB     r2,[r0,#0]
        0x08005c3a:    f8112b01    ...+    LDRB     r2,[r1],#1
        0x08005c3e:    7042        Bp      STRB     r2,[r0,#1]
        0x08005c40:    780b        .x      LDRB     r3,[r1,#0]
        0x08005c42:    784a        Jx      LDRB     r2,[r1,#1]
        0x08005c44:    ea432202    C.."    ORR      r2,r3,r2,LSL #8
        0x08005c48:    8042        B.      STRH     r2,[r0,#2]
        0x08005c4a:    f8113f02    ...?    LDRB     r3,[r1,#2]!
        0x08005c4e:    784a        Jx      LDRB     r2,[r1,#1]
        0x08005c50:    ea432202    C.."    ORR      r2,r3,r2,LSL #8
        0x08005c54:    8082        ..      STRH     r2,[r0,#4]
        0x08005c56:    788a        .x      LDRB     r2,[r1,#2]
        0x08005c58:    78c9        .x      LDRB     r1,[r1,#3]
        0x08005c5a:    ea422101    B..!    ORR      r1,r2,r1,LSL #8
        0x08005c5e:    80c1        ..      STRH     r1,[r0,#6]
        0x08005c60:    4770        pG      BX       lr
    i.USBD_RegisterClass
    USBD_RegisterClass
        0x08005c62:    b538        8.      PUSH     {r3-r5,lr}
        0x08005c64:    4604        .F      MOV      r4,r0
        0x08005c66:    2000        .       MOVS     r0,#0
        0x08005c68:    f8ad0000    ....    STRH     r0,[sp,#0]
        0x08005c6c:    2900        .)      CMP      r1,#0
        0x08005c6e:    bf04        ..      ITT      EQ
        0x08005c70:    2003        .       MOVEQ    r0,#3
        0x08005c72:    bd38        8.      POPEQ    {r3-r5,pc}
        0x08005c74:    f8c412b8    ....    STR      r1,[r4,#0x2b8]
        0x08005c78:    6ac9        .j      LDR      r1,[r1,#0x2c]
        0x08005c7a:    b119        ..      CBZ      r1,0x8005c84 ; USBD_RegisterClass + 34
        0x08005c7c:    4668        hF      MOV      r0,sp
        0x08005c7e:    4788        .G      BLX      r1
        0x08005c80:    f8c402cc    ....    STR      r0,[r4,#0x2cc]
        0x08005c84:    2000        .       MOVS     r0,#0
        0x08005c86:    bd38        8.      POP      {r3-r5,pc}
    i.USBD_SetClassConfig
    USBD_SetClassConfig
        0x08005c88:    4602        .F      MOV      r2,r0
        0x08005c8a:    2003        .       MOVS     r0,#3
        0x08005c8c:    f8d232b8    ...2    LDR      r3,[r2,#0x2b8]
        0x08005c90:    2b00        .+      CMP      r3,#0
        0x08005c92:    bf08        ..      IT       EQ
        0x08005c94:    4770        pG      BXEQ     lr
        0x08005c96:    681b        .h      LDR      r3,[r3,#0]
        0x08005c98:    4610        .F      MOV      r0,r2
        0x08005c9a:    4718        .G      BX       r3
    i.USBD_Start
    USBD_Start
        0x08005c9c:    f7ffbf9d    ....    B.W      USBD_LL_Start ; 0x8005bda
    i.USBD_StdDevReq
    USBD_StdDevReq
        0x08005ca0:    b5f8        ..      PUSH     {r3-r7,lr}
        0x08005ca2:    460d        .F      MOV      r5,r1
        0x08005ca4:    7809        .x      LDRB     r1,[r1,#0]
        0x08005ca6:    2600        .&      MOVS     r6,#0
        0x08005ca8:    f0110160    ..`.    ANDS     r1,r1,#0x60
        0x08005cac:    d00c        ..      BEQ      0x8005cc8 ; USBD_StdDevReq + 40
        0x08005cae:    2920         )      CMP      r1,#0x20
        0x08005cb0:    bf18        ..      IT       NE
        0x08005cb2:    2940        @)      CMPNE    r1,#0x40
        0x08005cb4:    f0408131    @.1.    BNE.W    0x8005f1a ; USBD_StdDevReq + 634
        0x08005cb8:    f8d012b8    ....    LDR      r1,[r0,#0x2b8]
        0x08005cbc:    688a        .h      LDR      r2,[r1,#8]
        0x08005cbe:    4629        )F      MOV      r1,r5
        0x08005cc0:    4790        .G      BLX      r2
        0x08005cc2:    4606        .F      MOV      r6,r0
        0x08005cc4:    f000b931    ..1.    B.W      0x8005f2a ; USBD_StdDevReq + 650
        0x08005cc8:    7869        ix      LDRB     r1,[r5,#1]
        0x08005cca:    290a        .)      CMP      r1,#0xa
        0x08005ccc:    f0808125    ..%.    BCS.W    0x8005f1a ; USBD_StdDevReq + 634
        0x08005cd0:    e8dff001    ....    TBB      [pc,r1]
    $d
        0x08005cd4:    fbfcfdfe    ....    DCD    4227661310
        0x08005cd8:    fc058efc    ....    DCD    4228222716
        0x08005cdc:    aefa        ..      DCW    44794
    $t
        0x08005cde:    4604        .F      MOV      r4,r0
        0x08005ce0:    2000        .       MOVS     r0,#0
        0x08005ce2:    f8ad0000    ....    STRH     r0,[sp,#0]
        0x08005ce6:    8869        i.      LDRH     r1,[r5,#2]
        0x08005ce8:    0a08        ..      LSRS     r0,r1,#8
        0x08005cea:    2806        .(      CMP      r0,#6
        0x08005cec:    d05a        Z.      BEQ      0x8005da4 ; USBD_StdDevReq + 260
        0x08005cee:    dc06        ..      BGT      0x8005cfe ; USBD_StdDevReq + 94
        0x08005cf0:    2801        .(      CMP      r0,#1
        0x08005cf2:    d00d        ..      BEQ      0x8005d10 ; USBD_StdDevReq + 112
        0x08005cf4:    2802        .(      CMP      r0,#2
        0x08005cf6:    d013        ..      BEQ      0x8005d20 ; USBD_StdDevReq + 128
        0x08005cf8:    2803        .(      CMP      r0,#3
        0x08005cfa:    d023        #.      BEQ      0x8005d44 ; USBD_StdDevReq + 164
        0x08005cfc:    e0c3        ..      B        0x8005e86 ; USBD_StdDevReq + 486
        0x08005cfe:    2807        .(      CMP      r0,#7
        0x08005d00:    d05a        Z.      BEQ      0x8005db8 ; USBD_StdDevReq + 280
        0x08005d02:    280f        .(      CMP      r0,#0xf
        0x08005d04:    d16f        o.      BNE      0x8005de6 ; USBD_StdDevReq + 326
        0x08005d06:    f8d402b4    ....    LDR      r0,[r4,#0x2b4]
        0x08005d0a:    69c2        .i      LDR      r2,[r0,#0x1c]
        0x08005d0c:    bb8a        ..      CBNZ     r2,0x8005d72 ; USBD_StdDevReq + 210
        0x08005d0e:    e0ba        ..      B        0x8005e86 ; USBD_StdDevReq + 486
        0x08005d10:    f8d412b4    ....    LDR      r1,[r4,#0x2b4]
        0x08005d14:    7c20         |      LDRB     r0,[r4,#0x10]
        0x08005d16:    680a        .h      LDR      r2,[r1,#0]
        0x08005d18:    4669        iF      MOV      r1,sp
        0x08005d1a:    4790        .G      BLX      r2
        0x08005d1c:    4601        .F      MOV      r1,r0
        0x08005d1e:    e056        V.      B        0x8005dce ; USBD_StdDevReq + 302
        0x08005d20:    7c20         |      LDRB     r0,[r4,#0x10]
        0x08005d22:    2800        .(      CMP      r0,#0
        0x08005d24:    f8d402b8    ....    LDR      r0,[r4,#0x2b8]
        0x08005d28:    d005        ..      BEQ      0x8005d36 ; USBD_StdDevReq + 150
        0x08005d2a:    6ac1        .j      LDR      r1,[r0,#0x2c]
        0x08005d2c:    4668        hF      MOV      r0,sp
        0x08005d2e:    4788        .G      BLX      r1
        0x08005d30:    4601        .F      MOV      r1,r0
        0x08005d32:    2002        .       MOVS     r0,#2
        0x08005d34:    e04a        J.      B        0x8005dcc ; USBD_StdDevReq + 300
        0x08005d36:    6a81        .j      LDR      r1,[r0,#0x28]
        0x08005d38:    4668        hF      MOV      r0,sp
        0x08005d3a:    4788        .G      BLX      r1
        0x08005d3c:    4601        .F      MOV      r1,r0
        0x08005d3e:    2002        .       MOVS     r0,#2
        0x08005d40:    7048        Hp      STRB     r0,[r1,#1]
        0x08005d42:    e044        D.      B        0x8005dce ; USBD_StdDevReq + 302
        0x08005d44:    b2c8        ..      UXTB     r0,r1
        0x08005d46:    2806        .(      CMP      r0,#6
        0x08005d48:    d24d        M.      BCS      0x8005de6 ; USBD_StdDevReq + 326
        0x08005d4a:    e8dff000    ....    TBB      [pc,r0]
    $d
        0x08005d4e:    0803        ..      DCW    2051
        0x08005d50:    2218130d    ..."    DCD    572003085
    $t
        0x08005d54:    f8d402b4    ....    LDR      r0,[r4,#0x2b4]
        0x08005d58:    6842        Bh      LDR      r2,[r0,#4]
        0x08005d5a:    b952        R.      CBNZ     r2,0x8005d72 ; USBD_StdDevReq + 210
        0x08005d5c:    e093        ..      B        0x8005e86 ; USBD_StdDevReq + 486
        0x08005d5e:    f8d402b4    ....    LDR      r0,[r4,#0x2b4]
        0x08005d62:    6882        .h      LDR      r2,[r0,#8]
        0x08005d64:    b92a        *.      CBNZ     r2,0x8005d72 ; USBD_StdDevReq + 210
        0x08005d66:    e08e        ..      B        0x8005e86 ; USBD_StdDevReq + 486
        0x08005d68:    f8d402b4    ....    LDR      r0,[r4,#0x2b4]
        0x08005d6c:    68c2        .h      LDR      r2,[r0,#0xc]
        0x08005d6e:    b902        ..      CBNZ     r2,0x8005d72 ; USBD_StdDevReq + 210
        0x08005d70:    e089        ..      B        0x8005e86 ; USBD_StdDevReq + 486
        0x08005d72:    e009        ..      B        0x8005d88 ; USBD_StdDevReq + 232
        0x08005d74:    f8d402b4    ....    LDR      r0,[r4,#0x2b4]
        0x08005d78:    6902        .i      LDR      r2,[r0,#0x10]
        0x08005d7a:    b92a        *.      CBNZ     r2,0x8005d88 ; USBD_StdDevReq + 232
        0x08005d7c:    e083        ..      B        0x8005e86 ; USBD_StdDevReq + 486
        0x08005d7e:    f8d402b4    ....    LDR      r0,[r4,#0x2b4]
        0x08005d82:    6942        Bi      LDR      r2,[r0,#0x14]
        0x08005d84:    2a00        .*      CMP      r2,#0
        0x08005d86:    d07e        ~.      BEQ      0x8005e86 ; USBD_StdDevReq + 486
        0x08005d88:    7c20         |      LDRB     r0,[r4,#0x10]
        0x08005d8a:    4669        iF      MOV      r1,sp
        0x08005d8c:    4790        .G      BLX      r2
        0x08005d8e:    4601        .F      MOV      r1,r0
        0x08005d90:    e01d        ..      B        0x8005dce ; USBD_StdDevReq + 302
        0x08005d92:    f8d402b4    ....    LDR      r0,[r4,#0x2b4]
        0x08005d96:    6982        .i      LDR      r2,[r0,#0x18]
        0x08005d98:    2a00        .*      CMP      r2,#0
        0x08005d9a:    d074        t.      BEQ      0x8005e86 ; USBD_StdDevReq + 486
        0x08005d9c:    7c20         |      LDRB     r0,[r4,#0x10]
        0x08005d9e:    4669        iF      MOV      r1,sp
        0x08005da0:    4790        .G      BLX      r2
        0x08005da2:    e007        ..      B        0x8005db4 ; USBD_StdDevReq + 276
        0x08005da4:    7c20         |      LDRB     r0,[r4,#0x10]
        0x08005da6:    2800        .(      CMP      r0,#0
        0x08005da8:    d16d        m.      BNE      0x8005e86 ; USBD_StdDevReq + 486
        0x08005daa:    f8d402b8    ....    LDR      r0,[r4,#0x2b8]
        0x08005dae:    6b41        Ak      LDR      r1,[r0,#0x34]
        0x08005db0:    4668        hF      MOV      r0,sp
        0x08005db2:    4788        .G      BLX      r1
        0x08005db4:    4601        .F      MOV      r1,r0
        0x08005db6:    e00a        ..      B        0x8005dce ; USBD_StdDevReq + 302
        0x08005db8:    7c20         |      LDRB     r0,[r4,#0x10]
        0x08005dba:    2800        .(      CMP      r0,#0
        0x08005dbc:    d163        c.      BNE      0x8005e86 ; USBD_StdDevReq + 486
        0x08005dbe:    f8d402b8    ....    LDR      r0,[r4,#0x2b8]
        0x08005dc2:    6b01        .k      LDR      r1,[r0,#0x30]
        0x08005dc4:    4668        hF      MOV      r0,sp
        0x08005dc6:    4788        .G      BLX      r1
        0x08005dc8:    4601        .F      MOV      r1,r0
        0x08005dca:    2007        .       MOVS     r0,#7
        0x08005dcc:    7048        Hp      STRB     r0,[r1,#1]
        0x08005dce:    88ea        ..      LDRH     r2,[r5,#6]
        0x08005dd0:    b152        R.      CBZ      r2,0x8005de8 ; USBD_StdDevReq + 328
        0x08005dd2:    f8bd0000    ....    LDRH     r0,[sp,#0]
        0x08005dd6:    b130        0.      CBZ      r0,0x8005de6 ; USBD_StdDevReq + 326
        0x08005dd8:    4282        .B      CMP      r2,r0
        0x08005dda:    bf88        ..      IT       HI
        0x08005ddc:    4602        .F      MOVHI    r2,r0
        0x08005dde:    f8ad2000    ...     STRH     r2,[sp,#0]
        0x08005de2:    4620         F      MOV      r0,r4
        0x08005de4:    e0a8        ..      B        0x8005f38 ; USBD_StdDevReq + 664
        0x08005de6:    e04e        N.      B        0x8005e86 ; USBD_StdDevReq + 486
        0x08005de8:    4620         F      MOV      r0,r4
        0x08005dea:    f7fffcc3    ....    BL       USBD_CtlSendStatus ; 0x8005774
        0x08005dee:    e09c        ..      B        0x8005f2a ; USBD_StdDevReq + 650
        0x08005df0:    4604        .F      MOV      r4,r0
        0x08005df2:    88a8        ..      LDRH     r0,[r5,#4]
        0x08005df4:    2800        .(      CMP      r0,#0
        0x08005df6:    bf04        ..      ITT      EQ
        0x08005df8:    88e8        ..      LDRHEQ   r0,[r5,#6]
        0x08005dfa:    2800        .(      CMPEQ    r0,#0
        0x08005dfc:    d143        C.      BNE      0x8005e86 ; USBD_StdDevReq + 486
        0x08005dfe:    8868        h.      LDRH     r0,[r5,#2]
        0x08005e00:    2880        .(      CMP      r0,#0x80
        0x08005e02:    d240        @.      BCS      0x8005e86 ; USBD_StdDevReq + 486
        0x08005e04:    f000057f    ....    AND      r5,r0,#0x7f
        0x08005e08:    f894029c    ....    LDRB     r0,[r4,#0x29c]
        0x08005e0c:    2803        .(      CMP      r0,#3
        0x08005e0e:    d03a        :.      BEQ      0x8005e86 ; USBD_StdDevReq + 486
        0x08005e10:    f884529e    ...R    STRB     r5,[r4,#0x29e]
        0x08005e14:    4629        )F      MOV      r1,r5
        0x08005e16:    4620         F      MOV      r0,r4
        0x08005e18:    f7fffe89    ....    BL       USBD_LL_SetUSBAddress ; 0x8005b2e
        0x08005e1c:    4620         F      MOV      r0,r4
        0x08005e1e:    f7fffca9    ....    BL       USBD_CtlSendStatus ; 0x8005774
        0x08005e22:    2d00        .-      CMP      r5,#0
        0x08005e24:    bf0c        ..      ITE      EQ
        0x08005e26:    2001        .       MOVEQ    r0,#1
        0x08005e28:    2002        .       MOVNE    r0,#2
        0x08005e2a:    f884029c    ....    STRB     r0,[r4,#0x29c]
        0x08005e2e:    e07c        |.      B        0x8005f2a ; USBD_StdDevReq + 650
        0x08005e30:    78a9        .x      LDRB     r1,[r5,#2]
        0x08005e32:    4d58        XM      LDR      r5,[pc,#352] ; [0x8005f94] = 0x20000154
        0x08005e34:    2600        .&      MOVS     r6,#0
        0x08005e36:    4604        .F      MOV      r4,r0
        0x08005e38:    7029        )p      STRB     r1,[r5,#0]
        0x08005e3a:    2901        .)      CMP      r1,#1
        0x08005e3c:    d908        ..      BLS      0x8005e50 ; USBD_StdDevReq + 432
        0x08005e3e:    2180        .!      MOVS     r1,#0x80
        0x08005e40:    4620         F      MOV      r0,r4
        0x08005e42:    f7fffeb8    ....    BL       USBD_LL_StallEP ; 0x8005bb6
        0x08005e46:    2100        .!      MOVS     r1,#0
        0x08005e48:    4620         F      MOV      r0,r4
        0x08005e4a:    f7fffeb4    ....    BL       USBD_LL_StallEP ; 0x8005bb6
        0x08005e4e:    e011        ..      B        0x8005e74 ; USBD_StdDevReq + 468
        0x08005e50:    f894029c    ....    LDRB     r0,[r4,#0x29c]
        0x08005e54:    2802        .(      CMP      r0,#2
        0x08005e56:    d00f        ..      BEQ      0x8005e78 ; USBD_StdDevReq + 472
        0x08005e58:    2803        .(      CMP      r0,#3
        0x08005e5a:    d024        $.      BEQ      0x8005ea6 ; USBD_StdDevReq + 518
        0x08005e5c:    2180        .!      MOVS     r1,#0x80
        0x08005e5e:    4620         F      MOV      r0,r4
        0x08005e60:    f7fffea9    ....    BL       USBD_LL_StallEP ; 0x8005bb6
        0x08005e64:    2100        .!      MOVS     r1,#0
        0x08005e66:    4620         F      MOV      r0,r4
        0x08005e68:    f7fffea5    ....    BL       USBD_LL_StallEP ; 0x8005bb6
        0x08005e6c:    7829        )x      LDRB     r1,[r5,#0]
        0x08005e6e:    4620         F      MOV      r0,r4
        0x08005e70:    f7fffc35    ..5.    BL       USBD_ClrClassConfig ; 0x80056de
        0x08005e74:    2603        .&      MOVS     r6,#3
        0x08005e76:    e058        X.      B        0x8005f2a ; USBD_StdDevReq + 650
        0x08005e78:    b199        ..      CBZ      r1,0x8005ea2 ; USBD_StdDevReq + 514
        0x08005e7a:    4620         F      MOV      r0,r4
        0x08005e7c:    6061        a`      STR      r1,[r4,#4]
        0x08005e7e:    f7ffff03    ....    BL       USBD_SetClassConfig ; 0x8005c88
        0x08005e82:    0006        ..      MOVS     r6,r0
        0x08005e84:    d008        ..      BEQ      0x8005e98 ; USBD_StdDevReq + 504
        0x08005e86:    2180        .!      MOVS     r1,#0x80
        0x08005e88:    4620         F      MOV      r0,r4
        0x08005e8a:    f7fffe94    ....    BL       USBD_LL_StallEP ; 0x8005bb6
        0x08005e8e:    2100        .!      MOVS     r1,#0
        0x08005e90:    4620         F      MOV      r0,r4
        0x08005e92:    f7fffe90    ....    BL       USBD_LL_StallEP ; 0x8005bb6
        0x08005e96:    e048        H.      B        0x8005f2a ; USBD_StdDevReq + 650
        0x08005e98:    4620         F      MOV      r0,r4
        0x08005e9a:    f7fffc6b    ..k.    BL       USBD_CtlSendStatus ; 0x8005774
        0x08005e9e:    2003        .       MOVS     r0,#3
        0x08005ea0:    e7c3        ..      B        0x8005e2a ; USBD_StdDevReq + 394
        0x08005ea2:    4620         F      MOV      r0,r4
        0x08005ea4:    e066        f.      B        0x8005f74 ; USBD_StdDevReq + 724
        0x08005ea6:    b309        ..      CBZ      r1,0x8005eec ; USBD_StdDevReq + 588
        0x08005ea8:    6860        `h      LDR      r0,[r4,#4]
        0x08005eaa:    4288        .B      CMP      r0,r1
        0x08005eac:    d0f9        ..      BEQ      0x8005ea2 ; USBD_StdDevReq + 514
        0x08005eae:    b2c1        ..      UXTB     r1,r0
        0x08005eb0:    4620         F      MOV      r0,r4
        0x08005eb2:    f7fffc14    ....    BL       USBD_ClrClassConfig ; 0x80056de
        0x08005eb6:    7829        )x      LDRB     r1,[r5,#0]
        0x08005eb8:    4620         F      MOV      r0,r4
        0x08005eba:    6061        a`      STR      r1,[r4,#4]
        0x08005ebc:    f7fffee4    ....    BL       USBD_SetClassConfig ; 0x8005c88
        0x08005ec0:    0006        ..      MOVS     r6,r0
        0x08005ec2:    d0ee        ..      BEQ      0x8005ea2 ; USBD_StdDevReq + 514
        0x08005ec4:    2180        .!      MOVS     r1,#0x80
        0x08005ec6:    e004        ..      B        0x8005ed2 ; USBD_StdDevReq + 562
        0x08005ec8:    e019        ..      B        0x8005efe ; USBD_StdDevReq + 606
        0x08005eca:    e04e        N.      B        0x8005f6a ; USBD_StdDevReq + 714
        0x08005ecc:    e025        %.      B        0x8005f1a ; USBD_StdDevReq + 634
        0x08005ece:    e054        T.      B        0x8005f7a ; USBD_StdDevReq + 730
        0x08005ed0:    e035        5.      B        0x8005f3e ; USBD_StdDevReq + 670
        0x08005ed2:    4620         F      MOV      r0,r4
        0x08005ed4:    f7fffe6f    ..o.    BL       USBD_LL_StallEP ; 0x8005bb6
        0x08005ed8:    2100        .!      MOVS     r1,#0
        0x08005eda:    4620         F      MOV      r0,r4
        0x08005edc:    f7fffe6b    ..k.    BL       USBD_LL_StallEP ; 0x8005bb6
        0x08005ee0:    7921        !y      LDRB     r1,[r4,#4]
        0x08005ee2:    4620         F      MOV      r0,r4
        0x08005ee4:    f7fffbfb    ....    BL       USBD_ClrClassConfig ; 0x80056de
        0x08005ee8:    2002        .       MOVS     r0,#2
        0x08005eea:    e79e        ..      B        0x8005e2a ; USBD_StdDevReq + 394
        0x08005eec:    2002        .       MOVS     r0,#2
        0x08005eee:    f884029c    ....    STRB     r0,[r4,#0x29c]
        0x08005ef2:    4620         F      MOV      r0,r4
        0x08005ef4:    6061        a`      STR      r1,[r4,#4]
        0x08005ef6:    f7fffbf2    ....    BL       USBD_ClrClassConfig ; 0x80056de
        0x08005efa:    4620         F      MOV      r0,r4
        0x08005efc:    e03a        :.      B        0x8005f74 ; USBD_StdDevReq + 724
        0x08005efe:    88e9        ..      LDRH     r1,[r5,#6]
        0x08005f00:    2901        .)      CMP      r1,#1
        0x08005f02:    d10a        ..      BNE      0x8005f1a ; USBD_StdDevReq + 634
        0x08005f04:    f890129c    ....    LDRB     r1,[r0,#0x29c]
        0x08005f08:    2901        .)      CMP      r1,#1
        0x08005f0a:    bf18        ..      IT       NE
        0x08005f0c:    2902        .)      CMPNE    r1,#2
        0x08005f0e:    d00e        ..      BEQ      0x8005f2e ; USBD_StdDevReq + 654
        0x08005f10:    2903        .)      CMP      r1,#3
        0x08005f12:    bf04        ..      ITT      EQ
        0x08005f14:    2201        ."      MOVEQ    r2,#1
        0x08005f16:    1d01        ..      ADDEQ    r1,r0,#4
        0x08005f18:    d00e        ..      BEQ      0x8005f38 ; USBD_StdDevReq + 664
        0x08005f1a:    4604        .F      MOV      r4,r0
        0x08005f1c:    2180        .!      MOVS     r1,#0x80
        0x08005f1e:    f7fffe4a    ..J.    BL       USBD_LL_StallEP ; 0x8005bb6
        0x08005f22:    2100        .!      MOVS     r1,#0
        0x08005f24:    4620         F      MOV      r0,r4
        0x08005f26:    f7fffe46    ..F.    BL       USBD_LL_StallEP ; 0x8005bb6
        0x08005f2a:    4630        0F      MOV      r0,r6
        0x08005f2c:    bdf8        ..      POP      {r3-r7,pc}
        0x08005f2e:    2100        .!      MOVS     r1,#0
        0x08005f30:    6081        .`      STR      r1,[r0,#8]
        0x08005f32:    2201        ."      MOVS     r2,#1
        0x08005f34:    f1000108    ....    ADD      r1,r0,#8
        0x08005f38:    f7fffc0f    ....    BL       USBD_CtlSendData ; 0x800575a
        0x08005f3c:    e7f5        ..      B        0x8005f2a ; USBD_StdDevReq + 650
        0x08005f3e:    f890129c    ....    LDRB     r1,[r0,#0x29c]
        0x08005f42:    2901        .)      CMP      r1,#1
        0x08005f44:    bf19        ..      ITTEE    NE
        0x08005f46:    2902        .)      CMPNE    r1,#2
        0x08005f48:    2903        .)      CMPNE    r1,#3
        0x08005f4a:    88e9        ..      LDRHEQ   r1,[r5,#6]
        0x08005f4c:    2902        .)      CMPEQ    r1,#2
        0x08005f4e:    d1e4        ..      BNE      0x8005f1a ; USBD_StdDevReq + 634
        0x08005f50:    f04f0101    O...    MOV      r1,#1
        0x08005f54:    60c1        .`      STR      r1,[r0,#0xc]
        0x08005f56:    f8d012a4    ....    LDR      r1,[r0,#0x2a4]
        0x08005f5a:    2900        .)      CMP      r1,#0
        0x08005f5c:    bf1c        ..      ITT      NE
        0x08005f5e:    2103        .!      MOVNE    r1,#3
        0x08005f60:    60c1        .`      STRNE    r1,[r0,#0xc]
        0x08005f62:    2202        ."      MOVS     r2,#2
        0x08005f64:    f100010c    ....    ADD      r1,r0,#0xc
        0x08005f68:    e7e6        ..      B        0x8005f38 ; USBD_StdDevReq + 664
        0x08005f6a:    8869        i.      LDRH     r1,[r5,#2]
        0x08005f6c:    2901        .)      CMP      r1,#1
        0x08005f6e:    d1dc        ..      BNE      0x8005f2a ; USBD_StdDevReq + 650
        0x08005f70:    f8c012a4    ....    STR      r1,[r0,#0x2a4]
        0x08005f74:    f7fffbfe    ....    BL       USBD_CtlSendStatus ; 0x8005774
        0x08005f78:    e7d7        ..      B        0x8005f2a ; USBD_StdDevReq + 650
        0x08005f7a:    f890129c    ....    LDRB     r1,[r0,#0x29c]
        0x08005f7e:    2901        .)      CMP      r1,#1
        0x08005f80:    bf1c        ..      ITT      NE
        0x08005f82:    2902        .)      CMPNE    r1,#2
        0x08005f84:    2903        .)      CMPNE    r1,#3
        0x08005f86:    d1c8        ..      BNE      0x8005f1a ; USBD_StdDevReq + 634
        0x08005f88:    8869        i.      LDRH     r1,[r5,#2]
        0x08005f8a:    2901        .)      CMP      r1,#1
        0x08005f8c:    bf08        ..      IT       EQ
        0x08005f8e:    2100        .!      MOVEQ    r1,#0
        0x08005f90:    d1cb        ..      BNE      0x8005f2a ; USBD_StdDevReq + 650
        0x08005f92:    e7ed        ..      B        0x8005f70 ; USBD_StdDevReq + 720
    $d
        0x08005f94:    20000154    T..     DCD    536871252
    $t
    i.USBD_StdEPReq
    USBD_StdEPReq
        0x08005f98:    e92d41f0    -..A    PUSH     {r4-r8,lr}
        0x08005f9c:    460d        .F      MOV      r5,r1
        0x08005f9e:    4604        .F      MOV      r4,r0
        0x08005fa0:    7828        (x      LDRB     r0,[r5,#0]
        0x08005fa2:    2600        .&      MOVS     r6,#0
        0x08005fa4:    7909        .y      LDRB     r1,[r1,#4]
        0x08005fa6:    f0100060    ..`.    ANDS     r0,r0,#0x60
        0x08005faa:    d00b        ..      BEQ      0x8005fc4 ; USBD_StdEPReq + 44
        0x08005fac:    2820         (      CMP      r0,#0x20
        0x08005fae:    bf18        ..      IT       NE
        0x08005fb0:    2840        @(      CMPNE    r0,#0x40
        0x08005fb2:    d151        Q.      BNE      0x8006058 ; USBD_StdEPReq + 192
        0x08005fb4:    f8d402b8    ....    LDR      r0,[r4,#0x2b8]
        0x08005fb8:    4629        )F      MOV      r1,r5
        0x08005fba:    6882        .h      LDR      r2,[r0,#8]
        0x08005fbc:    4620         F      MOV      r0,r4
        0x08005fbe:    4790        .G      BLX      r2
        0x08005fc0:    4606        .F      MOV      r6,r0
        0x08005fc2:    e09c        ..      B        0x80060fe ; USBD_StdEPReq + 358
        0x08005fc4:    7868        hx      LDRB     r0,[r5,#1]
        0x08005fc6:    2800        .(      CMP      r0,#0
        0x08005fc8:    d03f        ?.      BEQ      0x800604a ; USBD_StdEPReq + 178
        0x08005fca:    2801        .(      CMP      r0,#1
        0x08005fcc:    d024        $.      BEQ      0x8006018 ; USBD_StdEPReq + 128
        0x08005fce:    2803        .(      CMP      r0,#3
        0x08005fd0:    d142        B.      BNE      0x8006058 ; USBD_StdEPReq + 192
        0x08005fd2:    f894029c    ....    LDRB     r0,[r4,#0x29c]
        0x08005fd6:    2802        .(      CMP      r0,#2
        0x08005fd8:    d002        ..      BEQ      0x8005fe0 ; USBD_StdEPReq + 72
        0x08005fda:    2803        .(      CMP      r0,#3
        0x08005fdc:    d00c        ..      BEQ      0x8005ff8 ; USBD_StdEPReq + 96
        0x08005fde:    e086        ..      B        0x80060ee ; USBD_StdEPReq + 342
        0x08005fe0:    2900        .)      CMP      r1,#0
        0x08005fe2:    bf18        ..      IT       NE
        0x08005fe4:    2980        .)      CMPNE    r1,#0x80
        0x08005fe6:    d037        7.      BEQ      0x8006058 ; USBD_StdEPReq + 192
        0x08005fe8:    4620         F      MOV      r0,r4
        0x08005fea:    f7fffde4    ....    BL       USBD_LL_StallEP ; 0x8005bb6
        0x08005fee:    2180        .!      MOVS     r1,#0x80
        0x08005ff0:    4620         F      MOV      r0,r4
        0x08005ff2:    f7fffde0    ....    BL       USBD_LL_StallEP ; 0x8005bb6
        0x08005ff6:    e082        ..      B        0x80060fe ; USBD_StdEPReq + 358
        0x08005ff8:    8868        h.      LDRH     r0,[r5,#2]
        0x08005ffa:    b948        H.      CBNZ     r0,0x8006010 ; USBD_StdEPReq + 120
        0x08005ffc:    2900        .)      CMP      r1,#0
        0x08005ffe:    bf18        ..      IT       NE
        0x08006000:    2980        .)      CMPNE    r1,#0x80
        0x08006002:    d005        ..      BEQ      0x8006010 ; USBD_StdEPReq + 120
        0x08006004:    88e8        ..      LDRH     r0,[r5,#6]
        0x08006006:    2800        .(      CMP      r0,#0
        0x08006008:    bf04        ..      ITT      EQ
        0x0800600a:    4620         F      MOVEQ    r0,r4
        0x0800600c:    f7fffdd3    ....    BLEQ     USBD_LL_StallEP ; 0x8005bb6
        0x08006010:    4620         F      MOV      r0,r4
        0x08006012:    f7fffbaf    ....    BL       USBD_CtlSendStatus ; 0x8005774
        0x08006016:    e072        r.      B        0x80060fe ; USBD_StdEPReq + 358
        0x08006018:    f894029c    ....    LDRB     r0,[r4,#0x29c]
        0x0800601c:    2802        .(      CMP      r0,#2
        0x0800601e:    d002        ..      BEQ      0x8006026 ; USBD_StdEPReq + 142
        0x08006020:    2803        .(      CMP      r0,#3
        0x08006022:    d005        ..      BEQ      0x8006030 ; USBD_StdEPReq + 152
        0x08006024:    e063        c.      B        0x80060ee ; USBD_StdEPReq + 342
        0x08006026:    2900        .)      CMP      r1,#0
        0x08006028:    bf18        ..      IT       NE
        0x0800602a:    2980        .)      CMPNE    r1,#0x80
        0x0800602c:    d1dc        ..      BNE      0x8005fe8 ; USBD_StdEPReq + 80
        0x0800602e:    e05e        ^.      B        0x80060ee ; USBD_StdEPReq + 342
        0x08006030:    8868        h.      LDRH     r0,[r5,#2]
        0x08006032:    2800        .(      CMP      r0,#0
        0x08006034:    d163        c.      BNE      0x80060fe ; USBD_StdEPReq + 358
        0x08006036:    f0110f7f    ....    TST      r1,#0x7f
        0x0800603a:    bf1c        ..      ITT      NE
        0x0800603c:    4620         F      MOVNE    r0,r4
        0x0800603e:    f7fffbee    ....    BLNE     USBD_LL_ClearStallEP ; 0x800581e
        0x08006042:    4620         F      MOV      r0,r4
        0x08006044:    f7fffb96    ....    BL       USBD_CtlSendStatus ; 0x8005774
        0x08006048:    e7b4        ..      B        0x8005fb4 ; USBD_StdEPReq + 28
        0x0800604a:    f894029c    ....    LDRB     r0,[r4,#0x29c]
        0x0800604e:    2700        .'      MOVS     r7,#0
        0x08006050:    2802        .(      CMP      r0,#2
        0x08006052:    d002        ..      BEQ      0x800605a ; USBD_StdEPReq + 194
        0x08006054:    2803        .(      CMP      r0,#3
        0x08006056:    d018        ..      BEQ      0x800608a ; USBD_StdEPReq + 242
        0x08006058:    e049        I.      B        0x80060ee ; USBD_StdEPReq + 342
        0x0800605a:    2900        .)      CMP      r1,#0
        0x0800605c:    bf18        ..      IT       NE
        0x0800605e:    2980        .)      CMPNE    r1,#0x80
        0x08006060:    d145        E.      BNE      0x80060ee ; USBD_StdEPReq + 342
        0x08006062:    f001007f    ....    AND      r0,r1,#0x7f
        0x08006066:    eb000080    ....    ADD      r0,r0,r0,LSL #2
        0x0800606a:    f0110f80    ....    TST      r1,#0x80
        0x0800606e:    eb040080    ....    ADD      r0,r4,r0,LSL #2
        0x08006072:    bf14        ..      ITE      NE
        0x08006074:    f1000114    ....    ADDNE    r1,r0,#0x14
        0x08006078:    f50071aa    ...q    ADDEQ    r1,r0,#0x154
        0x0800607c:    f04f0202    O...    MOV      r2,#2
        0x08006080:    4620         F      MOV      r0,r4
        0x08006082:    600f        .`      STR      r7,[r1,#0]
        0x08006084:    f7fffb69    ..i.    BL       USBD_CtlSendData ; 0x800575a
        0x08006088:    e039        9.      B        0x80060fe ; USBD_StdEPReq + 358
        0x0800608a:    f001000f    ....    AND      r0,r1,#0xf
        0x0800608e:    eb000080    ....    ADD      r0,r0,r0,LSL #2
        0x08006092:    f0110f80    ....    TST      r1,#0x80
        0x08006096:    eb040080    ....    ADD      r0,r4,r0,LSL #2
        0x0800609a:    d00a        ..      BEQ      0x80060b2 ; USBD_StdEPReq + 282
        0x0800609c:    8c80        ..      LDRH     r0,[r0,#0x24]
        0x0800609e:    b330        0.      CBZ      r0,0x80060ee ; USBD_StdEPReq + 342
        0x080060a0:    f001007f    ....    AND      r0,r1,#0x7f
        0x080060a4:    eb000080    ....    ADD      r0,r0,r0,LSL #2
        0x080060a8:    eb040080    ....    ADD      r0,r4,r0,LSL #2
        0x080060ac:    f1000514    ....    ADD      r5,r0,#0x14
        0x080060b0:    e00a        ..      B        0x80060c8 ; USBD_StdEPReq + 304
        0x080060b2:    f8b00164    ..d.    LDRH     r0,[r0,#0x164]
        0x080060b6:    b1d0        ..      CBZ      r0,0x80060ee ; USBD_StdEPReq + 342
        0x080060b8:    f001007f    ....    AND      r0,r1,#0x7f
        0x080060bc:    eb000080    ....    ADD      r0,r0,r0,LSL #2
        0x080060c0:    eb040080    ....    ADD      r0,r4,r0,LSL #2
        0x080060c4:    f50075aa    ...u    ADD      r5,r0,#0x154
        0x080060c8:    2900        .)      CMP      r1,#0
        0x080060ca:    bf18        ..      IT       NE
        0x080060cc:    2980        .)      CMPNE    r1,#0x80
        0x080060ce:    d007        ..      BEQ      0x80060e0 ; USBD_StdEPReq + 328
        0x080060d0:    4620         F      MOV      r0,r4
        0x080060d2:    f7fffca7    ....    BL       USBD_LL_IsStallEP ; 0x8005a24
        0x080060d6:    2800        .(      CMP      r0,#0
        0x080060d8:    bf1c        ..      ITT      NE
        0x080060da:    2001        .       MOVNE    r0,#1
        0x080060dc:    6028        (`      STRNE    r0,[r5,#0]
        0x080060de:    d100        ..      BNE      0x80060e2 ; USBD_StdEPReq + 330
        0x080060e0:    602f        /`      STR      r7,[r5,#0]
        0x080060e2:    2202        ."      MOVS     r2,#2
        0x080060e4:    4629        )F      MOV      r1,r5
        0x080060e6:    4620         F      MOV      r0,r4
        0x080060e8:    f7fffb37    ..7.    BL       USBD_CtlSendData ; 0x800575a
        0x080060ec:    e007        ..      B        0x80060fe ; USBD_StdEPReq + 358
        0x080060ee:    2180        .!      MOVS     r1,#0x80
        0x080060f0:    4620         F      MOV      r0,r4
        0x080060f2:    f7fffd60    ..`.    BL       USBD_LL_StallEP ; 0x8005bb6
        0x080060f6:    2100        .!      MOVS     r1,#0
        0x080060f8:    4620         F      MOV      r0,r4
        0x080060fa:    f7fffd5c    ..\.    BL       USBD_LL_StallEP ; 0x8005bb6
        0x080060fe:    4630        0F      MOV      r0,r6
        0x08006100:    e8bd81f0    ....    POP      {r4-r8,pc}
    i.USBD_StdItfReq
    USBD_StdItfReq
        0x08006104:    b570        p.      PUSH     {r4-r6,lr}
        0x08006106:    4604        .F      MOV      r4,r0
        0x08006108:    7808        .x      LDRB     r0,[r1,#0]
        0x0800610a:    2500        .%      MOVS     r5,#0
        0x0800610c:    460e        .F      MOV      r6,r1
        0x0800610e:    f0100060    ..`.    ANDS     r0,r0,#0x60
        0x08006112:    bf1c        ..      ITT      NE
        0x08006114:    2820         (      CMPNE    r0,#0x20
        0x08006116:    2840        @(      CMPNE    r0,#0x40
        0x08006118:    d116        ..      BNE      0x8006148 ; USBD_StdItfReq + 68
        0x0800611a:    f894029c    ....    LDRB     r0,[r4,#0x29c]
        0x0800611e:    2801        .(      CMP      r0,#1
        0x08006120:    bf1c        ..      ITT      NE
        0x08006122:    2802        .(      CMPNE    r0,#2
        0x08006124:    2803        .(      CMPNE    r0,#3
        0x08006126:    d10f        ..      BNE      0x8006148 ; USBD_StdItfReq + 68
        0x08006128:    7930        0y      LDRB     r0,[r6,#4]
        0x0800612a:    2801        .(      CMP      r0,#1
        0x0800612c:    d80c        ..      BHI      0x8006148 ; USBD_StdItfReq + 68
        0x0800612e:    f8d402b8    ....    LDR      r0,[r4,#0x2b8]
        0x08006132:    6882        .h      LDR      r2,[r0,#8]
        0x08006134:    4620         F      MOV      r0,r4
        0x08006136:    4790        .G      BLX      r2
        0x08006138:    4605        .F      MOV      r5,r0
        0x0800613a:    88f0        ..      LDRH     r0,[r6,#6]
        0x0800613c:    4328        (C      ORRS     r0,r0,r5
        0x0800613e:    bf04        ..      ITT      EQ
        0x08006140:    4620         F      MOVEQ    r0,r4
        0x08006142:    f7fffb17    ....    BLEQ     USBD_CtlSendStatus ; 0x8005774
        0x08006146:    e007        ..      B        0x8006158 ; USBD_StdItfReq + 84
        0x08006148:    2180        .!      MOVS     r1,#0x80
        0x0800614a:    4620         F      MOV      r0,r4
        0x0800614c:    f7fffd33    ..3.    BL       USBD_LL_StallEP ; 0x8005bb6
        0x08006150:    2100        .!      MOVS     r1,#0
        0x08006152:    4620         F      MOV      r0,r4
        0x08006154:    f7fffd2f    ../.    BL       USBD_LL_StallEP ; 0x8005bb6
        0x08006158:    4628        (F      MOV      r0,r5
        0x0800615a:    bd70        p.      POP      {r4-r6,pc}
    i.USBD_static_free
    USBD_static_free
        0x0800615c:    4770        pG      BX       lr
        0x0800615e:    0000        ..      MOVS     r0,r0
    i.USBD_static_malloc
    USBD_static_malloc
        0x08006160:    4800        .H      LDR      r0,[pc,#0] ; [0x8006164] = 0x20000dac
        0x08006162:    4770        pG      BX       lr
    $d
        0x08006164:    20000dac    ...     DCD    536874412
    $t
    i.USB_ActivateEndpoint
    USB_ActivateEndpoint
        0x08006168:    b4f0        ..      PUSH     {r4-r7}
        0x0800616a:    f891c000    ....    LDRB     r12,[r1,#0]
        0x0800616e:    2500        .%      MOVS     r5,#0
        0x08006170:    f830202c    0.,     LDRH     r2,[r0,r12,LSL #2]
        0x08006174:    f42263ce    "..c    BIC      r3,r2,#0x670
        0x08006178:    78ca        .x      LDRB     r2,[r1,#3]
        0x0800617a:    f42343e0    #..C    BIC      r3,r3,#0x7000
        0x0800617e:    2a00        .*      CMP      r2,#0
        0x08006180:    bf08        ..      IT       EQ
        0x08006182:    f4437300    C..s    ORREQ    r3,r3,#0x200
        0x08006186:    d00a        ..      BEQ      0x800619e ; USB_ActivateEndpoint + 54
        0x08006188:    2a01        .*      CMP      r2,#1
        0x0800618a:    bf0c        ..      ITE      EQ
        0x0800618c:    f4436380    C..c    ORREQ    r3,r3,#0x400
        0x08006190:    2a02        .*      CMPNE    r2,#2
        0x08006192:    d004        ..      BEQ      0x800619e ; USB_ActivateEndpoint + 54
        0x08006194:    2a03        .*      CMP      r2,#3
        0x08006196:    bf0c        ..      ITE      EQ
        0x08006198:    f44363c0    C..c    ORREQ    r3,r3,#0x600
        0x0800619c:    2501        .%      MOVNE    r5,#1
        0x0800619e:    f2480280    H...    MOV      r2,#0x8080
        0x080061a2:    4313        .C      ORRS     r3,r3,r2
        0x080061a4:    f820302c     .,0    STRH     r3,[r0,r12,LSL #2]
        0x080061a8:    780b        .x      LDRB     r3,[r1,#0]
        0x080061aa:    f830c023    0.#.    LDRH     r12,[r0,r3,LSL #2]
        0x080061ae:    f02c0c70    ,.p.    BIC      r12,r12,#0x70
        0x080061b2:    f42c4ce0    ,..L    BIC      r12,r12,#0x7000
        0x080061b6:    ea4c0c03    L...    ORR      r12,r12,r3
        0x080061ba:    ea4c0c02    L...    ORR      r12,r12,r2
        0x080061be:    f820c023     .#.    STRH     r12,[r0,r3,LSL #2]
        0x080061c2:    f891c00c    ....    LDRB     r12,[r1,#0xc]
        0x080061c6:    f24803c0    H...    MOV      r3,#0x80c0
        0x080061ca:    f24c0680    L...    MOV      r6,#0xc080
        0x080061ce:    f1bc0f00    ....    CMP      r12,#0
        0x080061d2:    d06d        m.      BEQ      0x80062b0 ; USB_ActivateEndpoint + 328
        0x080061d4:    f891c003    ....    LDRB     r12,[r1,#3]
        0x080061d8:    f1bc0f02    ....    CMP      r12,#2
        0x080061dc:    f891c000    ....    LDRB     r12,[r1,#0]
        0x080061e0:    f830402c    0.,@    LDRH     r4,[r0,r12,LSL #2]
        0x080061e4:    bf01        ..      ITTTT    EQ
        0x080061e6:    f0240470    $.p.    BICEQ    r4,r4,#0x70
        0x080061ea:    f42444e0    $..D    BICEQ    r4,r4,#0x7000
        0x080061ee:    f2481780    H...    MOVEQ    r7,#0x8180
        0x080061f2:    433c        <C      ORREQ    r4,r4,r7
        0x080061f4:    bf1e        ..      ITTT     NE
        0x080061f6:    f42474b8    $..t    BICNE    r4,r4,#0x170
        0x080061fa:    f42444e0    $..D    BICNE    r4,r4,#0x7000
        0x080061fe:    4314        .C      ORRNE    r4,r4,r2
        0x08006200:    f820402c     .,@    STRH     r4,[r0,r12,LSL #2]
        0x08006204:    f8b0c050    ..P.    LDRH     r12,[r0,#0x50]
        0x08006208:    780c        .x      LDRB     r4,[r1,#0]
        0x0800620a:    4484        .D      ADD      r12,r12,r0
        0x0800620c:    eb0c0cc4    ....    ADD      r12,r12,r4,LSL #3
        0x08006210:    890c        ..      LDRH     r4,[r1,#8]
        0x08006212:    f0240401    $...    BIC      r4,r4,#1
        0x08006216:    f8ac4400    ...D    STRH     r4,[r12,#0x400]
        0x0800621a:    f8b0c050    ..P.    LDRH     r12,[r0,#0x50]
        0x0800621e:    780c        .x      LDRB     r4,[r1,#0]
        0x08006220:    4484        .D      ADD      r12,r12,r0
        0x08006222:    eb0c0cc4    ....    ADD      r12,r12,r4,LSL #3
        0x08006226:    894c        L.      LDRH     r4,[r1,#0xa]
        0x08006228:    f0240401    $...    BIC      r4,r4,#1
        0x0800622c:    f8ac4404    ...D    STRH     r4,[r12,#0x404]
        0x08006230:    f891c001    ....    LDRB     r12,[r1,#1]
        0x08006234:    f1bc0f00    ....    CMP      r12,#0
        0x08006238:    f891c000    ....    LDRB     r12,[r1,#0]
        0x0800623c:    f830402c    0.,@    LDRH     r4,[r0,r12,LSL #2]
        0x08006240:    f4044480    ...D    AND      r4,r4,#0x4000
        0x08006244:    d06f        o.      BEQ      0x8006326 ; USB_ActivateEndpoint + 446
        0x08006246:    b144        D.      CBZ      r4,0x800625a ; USB_ActivateEndpoint + 242
        0x08006248:    f830402c    0.,@    LDRH     r4,[r0,r12,LSL #2]
        0x0800624c:    f0240470    $.p.    BIC      r4,r4,#0x70
        0x08006250:    f42444e0    $..D    BIC      r4,r4,#0x7000
        0x08006254:    4334        4C      ORRS     r4,r4,r6
        0x08006256:    f820402c     .,@    STRH     r4,[r0,r12,LSL #2]
        0x0800625a:    f891c000    ....    LDRB     r12,[r1,#0]
        0x0800625e:    f830402c    0.,@    LDRH     r4,[r0,r12,LSL #2]
        0x08006262:    f0140f40    ..@.    TST      r4,#0x40
        0x08006266:    d008        ..      BEQ      0x800627a ; USB_ActivateEndpoint + 274
        0x08006268:    f830402c    0.,@    LDRH     r4,[r0,r12,LSL #2]
        0x0800626c:    f0240470    $.p.    BIC      r4,r4,#0x70
        0x08006270:    f42444e0    $..D    BIC      r4,r4,#0x7000
        0x08006274:    4323        #C      ORRS     r3,r3,r4
        0x08006276:    f820302c     .,0    STRH     r3,[r0,r12,LSL #2]
        0x0800627a:    78cb        .x      LDRB     r3,[r1,#3]
        0x0800627c:    2b01        .+      CMP      r3,#1
        0x0800627e:    780b        .x      LDRB     r3,[r1,#0]
        0x08006280:    f830c023    0.#.    LDRH     r12,[r0,r3,LSL #2]
        0x08006284:    f42c5c41    ,.A\    BIC      r12,r12,#0x3040
        0x08006288:    f42c4c80    ,..L    BIC      r12,r12,#0x4000
        0x0800628c:    bf18        ..      IT       NE
        0x0800628e:    f08c0c20    .. .    EORNE    r12,r12,#0x20
        0x08006292:    ea4c0c02    L...    ORR      r12,r12,r2
        0x08006296:    f820c023     .#.    STRH     r12,[r0,r3,LSL #2]
        0x0800629a:    7809        .x      LDRB     r1,[r1,#0]
        0x0800629c:    f8303021    0.!0    LDRH     r3,[r0,r1,LSL #2]
        0x080062a0:    f0230370    #.p.    BIC      r3,r3,#0x70
        0x080062a4:    f4234380    #..C    BIC      r3,r3,#0x4000
        0x080062a8:    431a        .C      ORRS     r2,r2,r3
        0x080062aa:    f8202021     .!     STRH     r2,[r0,r1,LSL #2]
        0x080062ae:    e0ab        ..      B        0x8006408 ; USB_ActivateEndpoint + 672
        0x080062b0:    f891c001    ....    LDRB     r12,[r1,#1]
        0x080062b4:    f1bc0f00    ....    CMP      r12,#0
        0x080062b8:    d036        6.      BEQ      0x8006328 ; USB_ActivateEndpoint + 448
        0x080062ba:    f8b0c050    ..P.    LDRH     r12,[r0,#0x50]
        0x080062be:    780c        .x      LDRB     r4,[r1,#0]
        0x080062c0:    4484        .D      ADD      r12,r12,r0
        0x080062c2:    eb0c0cc4    ....    ADD      r12,r12,r4,LSL #3
        0x080062c6:    88cc        ..      LDRH     r4,[r1,#6]
        0x080062c8:    f0240401    $...    BIC      r4,r4,#1
        0x080062cc:    f8ac4400    ...D    STRH     r4,[r12,#0x400]
        0x080062d0:    f891c000    ....    LDRB     r12,[r1,#0]
        0x080062d4:    f830402c    0.,@    LDRH     r4,[r0,r12,LSL #2]
        0x080062d8:    f0140f40    ..@.    TST      r4,#0x40
        0x080062dc:    d008        ..      BEQ      0x80062f0 ; USB_ActivateEndpoint + 392
        0x080062de:    f830402c    0.,@    LDRH     r4,[r0,r12,LSL #2]
        0x080062e2:    f0240470    $.p.    BIC      r4,r4,#0x70
        0x080062e6:    f42444e0    $..D    BIC      r4,r4,#0x7000
        0x080062ea:    4323        #C      ORRS     r3,r3,r4
        0x080062ec:    f820302c     .,0    STRH     r3,[r0,r12,LSL #2]
        0x080062f0:    78cb        .x      LDRB     r3,[r1,#3]
        0x080062f2:    2b01        .+      CMP      r3,#1
        0x080062f4:    d00c        ..      BEQ      0x8006310 ; USB_ActivateEndpoint + 424
        0x080062f6:    7809        .x      LDRB     r1,[r1,#0]
        0x080062f8:    f8303021    0.!0    LDRH     r3,[r0,r1,LSL #2]
        0x080062fc:    f4235341    #.AS    BIC      r3,r3,#0x3040
        0x08006300:    f4234380    #..C    BIC      r3,r3,#0x4000
        0x08006304:    f0830320    .. .    EOR      r3,r3,#0x20
        0x08006308:    431a        .C      ORRS     r2,r2,r3
        0x0800630a:    f8202021     .!     STRH     r2,[r0,r1,LSL #2]
        0x0800630e:    e07b        {.      B        0x8006408 ; USB_ActivateEndpoint + 672
        0x08006310:    7809        .x      LDRB     r1,[r1,#0]
        0x08006312:    f8303021    0.!0    LDRH     r3,[r0,r1,LSL #2]
        0x08006316:    f4235341    #.AS    BIC      r3,r3,#0x3040
        0x0800631a:    f4234380    #..C    BIC      r3,r3,#0x4000
        0x0800631e:    431a        .C      ORRS     r2,r2,r3
        0x08006320:    f8202021     .!     STRH     r2,[r0,r1,LSL #2]
        0x08006324:    e070        p.      B        0x8006408 ; USB_ActivateEndpoint + 672
        0x08006326:    e072        r.      B        0x800640e ; USB_ActivateEndpoint + 678
        0x08006328:    f8b03050    ..P0    LDRH     r3,[r0,#0x50]
        0x0800632c:    f891c000    ....    LDRB     r12,[r1,#0]
        0x08006330:    4403        .D      ADD      r3,r3,r0
        0x08006332:    eb0303cc    ....    ADD      r3,r3,r12,LSL #3
        0x08006336:    f8b1c006    ....    LDRH     r12,[r1,#6]
        0x0800633a:    f02c0c01    ,...    BIC      r12,r12,#1
        0x0800633e:    f8a3c404    ....    STRH     r12,[r3,#0x404]
        0x08006342:    f8b03050    ..P0    LDRH     r3,[r0,#0x50]
        0x08006346:    f891c000    ....    LDRB     r12,[r1,#0]
        0x0800634a:    4403        .D      ADD      r3,r3,r0
        0x0800634c:    eb0303cc    ....    ADD      r3,r3,r12,LSL #3
        0x08006350:    f8b3c406    ....    LDRH     r12,[r3,#0x406]
        0x08006354:    f3cc0c09    ....    UBFX     r12,r12,#0,#10
        0x08006358:    f8a3c406    ....    STRH     r12,[r3,#0x406]
        0x0800635c:    f8d1c010    ....    LDR      r12,[r1,#0x10]
        0x08006360:    f2034306    ...C    ADD      r3,r3,#0x406
        0x08006364:    f1bc0f3e    ..>.    CMP      r12,#0x3e
        0x08006368:    d90f        ..      BLS      0x800638a ; USB_ActivateEndpoint + 546
        0x0800636a:    ea4f145c    O.\.    LSR      r4,r12,#5
        0x0800636e:    f01c0f1f    ....    TST      r12,#0x1f
        0x08006372:    bf08        ..      IT       EQ
        0x08006374:    1e64        d.      SUBEQ    r4,r4,#1
        0x08006376:    881f        ..      LDRH     r7,[r3,#0]
        0x08006378:    f44f4c00    O..L    MOV      r12,#0x8000
        0x0800637c:    ea4c2c84    L..,    ORR      r12,r12,r4,LSL #10
        0x08006380:    ea470c0c    G...    ORR      r12,r7,r12
        0x08006384:    f8a3c000    ....    STRH     r12,[r3,#0]
        0x08006388:    e017        ..      B        0x80063ba ; USB_ActivateEndpoint + 594
        0x0800638a:    f1bc0f00    ....    CMP      r12,#0
        0x0800638e:    bf04        ..      ITT      EQ
        0x08006390:    f8b3c000    ....    LDRHEQ   r12,[r3,#0]
        0x08006394:    f44c4c00    L..L    ORREQ    r12,r12,#0x8000
        0x08006398:    d00d        ..      BEQ      0x80063b6 ; USB_ActivateEndpoint + 590
        0x0800639a:    ea4f045c    O.\.    LSR      r4,r12,#1
        0x0800639e:    f01c0f01    ....    TST      r12,#1
        0x080063a2:    bf18        ..      IT       NE
        0x080063a4:    1c64        d.      ADDNE    r4,r4,#1
        0x080063a6:    f8b3c000    ....    LDRH     r12,[r3,#0]
        0x080063aa:    f64f77ff    O..w    MOV      r7,#0xffff
        0x080063ae:    ea072484    ...$    AND      r4,r7,r4,LSL #10
        0x080063b2:    ea4c0c04    L...    ORR      r12,r12,r4
        0x080063b6:    f8a3c000    ....    STRH     r12,[r3,#0]
        0x080063ba:    780b        .x      LDRB     r3,[r1,#0]
        0x080063bc:    f830c023    0.#.    LDRH     r12,[r0,r3,LSL #2]
        0x080063c0:    f41c4f80    ...O    TST      r12,#0x4000
        0x080063c4:    d009        ..      BEQ      0x80063da ; USB_ActivateEndpoint + 626
        0x080063c6:    f830c023    0.#.    LDRH     r12,[r0,r3,LSL #2]
        0x080063ca:    f02c0c70    ,.p.    BIC      r12,r12,#0x70
        0x080063ce:    f42c4ce0    ,..L    BIC      r12,r12,#0x7000
        0x080063d2:    ea4c0c06    L...    ORR      r12,r12,r6
        0x080063d6:    f820c023     .#.    STRH     r12,[r0,r3,LSL #2]
        0x080063da:    7809        .x      LDRB     r1,[r1,#0]
        0x080063dc:    b159        Y.      CBZ      r1,0x80063f6 ; USB_ActivateEndpoint + 654
        0x080063de:    f8303021    0.!0    LDRH     r3,[r0,r1,LSL #2]
        0x080063e2:    f0230370    #.p.    BIC      r3,r3,#0x70
        0x080063e6:    f4234380    #..C    BIC      r3,r3,#0x4000
        0x080063ea:    f4835300    ...S    EOR      r3,r3,#0x2000
        0x080063ee:    431a        .C      ORRS     r2,r2,r3
        0x080063f0:    f8202021     .!     STRH     r2,[r0,r1,LSL #2]
        0x080063f4:    e008        ..      B        0x8006408 ; USB_ActivateEndpoint + 672
        0x080063f6:    8801        ..      LDRH     r1,[r0,#0]
        0x080063f8:    f0210170    !.p.    BIC      r1,r1,#0x70
        0x080063fc:    f4214180    !..A    BIC      r1,r1,#0x4000
        0x08006400:    f4815140    ..@Q    EOR      r1,r1,#0x3000
        0x08006404:    4311        .C      ORRS     r1,r1,r2
        0x08006406:    8001        ..      STRH     r1,[r0,#0]
        0x08006408:    4628        (F      MOV      r0,r5
        0x0800640a:    bcf0        ..      POP      {r4-r7}
        0x0800640c:    4770        pG      BX       lr
        0x0800640e:    b144        D.      CBZ      r4,0x8006422 ; USB_ActivateEndpoint + 698
        0x08006410:    f830402c    0.,@    LDRH     r4,[r0,r12,LSL #2]
        0x08006414:    f0240470    $.p.    BIC      r4,r4,#0x70
        0x08006418:    f42444e0    $..D    BIC      r4,r4,#0x7000
        0x0800641c:    4334        4C      ORRS     r4,r4,r6
        0x0800641e:    f820402c     .,@    STRH     r4,[r0,r12,LSL #2]
        0x08006422:    f891c000    ....    LDRB     r12,[r1,#0]
        0x08006426:    f830402c    0.,@    LDRH     r4,[r0,r12,LSL #2]
        0x0800642a:    f0140f40    ..@.    TST      r4,#0x40
        0x0800642e:    d008        ..      BEQ      0x8006442 ; USB_ActivateEndpoint + 730
        0x08006430:    f830402c    0.,@    LDRH     r4,[r0,r12,LSL #2]
        0x08006434:    f0240470    $.p.    BIC      r4,r4,#0x70
        0x08006438:    f42444e0    $..D    BIC      r4,r4,#0x7000
        0x0800643c:    4323        #C      ORRS     r3,r3,r4
        0x0800643e:    f820302c     .,0    STRH     r3,[r0,r12,LSL #2]
        0x08006442:    780b        .x      LDRB     r3,[r1,#0]
        0x08006444:    f830c023    0.#.    LDRH     r12,[r0,r3,LSL #2]
        0x08006448:    f02c0c70    ,.p.    BIC      r12,r12,#0x70
        0x0800644c:    f42c4c80    ,..L    BIC      r12,r12,#0x4000
        0x08006450:    f48c5c40    ..@\    EOR      r12,r12,#0x3000
        0x08006454:    ea4c0c02    L...    ORR      r12,r12,r2
        0x08006458:    f820c023     .#.    STRH     r12,[r0,r3,LSL #2]
        0x0800645c:    e758        X.      B        0x8006310 ; USB_ActivateEndpoint + 424
        0x0800645e:    0000        ..      MOVS     r0,r0
    i.USB_DeactivateEndpoint
    USB_DeactivateEndpoint
        0x08006460:    b470        p.      PUSH     {r4-r6}
        0x08006462:    7b0e        .{      LDRB     r6,[r1,#0xc]
        0x08006464:    784d        Mx      LDRB     r5,[r1,#1]
        0x08006466:    780a        .x      LDRB     r2,[r1,#0]
        0x08006468:    f2480380    H...    MOV      r3,#0x8080
        0x0800646c:    f2480cc0    H...    MOV      r12,#0x80c0
        0x08006470:    f24c0480    L...    MOV      r4,#0xc080
        0x08006474:    b3be        ..      CBZ      r6,0x80064e6 ; USB_DeactivateEndpoint + 134
        0x08006476:    2d00        .-      CMP      r5,#0
        0x08006478:    f8305022    0."P    LDRH     r5,[r0,r2,LSL #2]
        0x0800647c:    f4054580    ...E    AND      r5,r5,#0x4000
        0x08006480:    d066        f.      BEQ      0x8006550 ; USB_DeactivateEndpoint + 240
        0x08006482:    b145        E.      CBZ      r5,0x8006496 ; USB_DeactivateEndpoint + 54
        0x08006484:    f8305022    0."P    LDRH     r5,[r0,r2,LSL #2]
        0x08006488:    f0250570    %.p.    BIC      r5,r5,#0x70
        0x0800648c:    f42545e0    %..E    BIC      r5,r5,#0x7000
        0x08006490:    4325        %C      ORRS     r5,r5,r4
        0x08006492:    f8205022     ."P    STRH     r5,[r0,r2,LSL #2]
        0x08006496:    780a        .x      LDRB     r2,[r1,#0]
        0x08006498:    f8305022    0."P    LDRH     r5,[r0,r2,LSL #2]
        0x0800649c:    f0150f40    ..@.    TST      r5,#0x40
        0x080064a0:    d009        ..      BEQ      0x80064b6 ; USB_DeactivateEndpoint + 86
        0x080064a2:    f8305022    0."P    LDRH     r5,[r0,r2,LSL #2]
        0x080064a6:    f0250570    %.p.    BIC      r5,r5,#0x70
        0x080064aa:    f42545e0    %..E    BIC      r5,r5,#0x7000
        0x080064ae:    ea450c0c    E...    ORR      r12,r5,r12
        0x080064b2:    f820c022     .".    STRH     r12,[r0,r2,LSL #2]
        0x080064b6:    f891c000    ....    LDRB     r12,[r1,#0]
        0x080064ba:    f830202c    0.,     LDRH     r2,[r0,r12,LSL #2]
        0x080064be:    f0220270    ".p.    BIC      r2,r2,#0x70
        0x080064c2:    f42242e0    "..B    BIC      r2,r2,#0x7000
        0x080064c6:    4322        "C      ORRS     r2,r2,r4
        0x080064c8:    f820202c     .,     STRH     r2,[r0,r12,LSL #2]
        0x080064cc:    780a        .x      LDRB     r2,[r1,#0]
        0x080064ce:    f830c022    0.".    LDRH     r12,[r0,r2,LSL #2]
        0x080064d2:    f42c5c41    ,.A\    BIC      r12,r12,#0x3040
        0x080064d6:    f42c4c80    ,..L    BIC      r12,r12,#0x4000
        0x080064da:    ea4c0c03    L...    ORR      r12,r12,r3
        0x080064de:    bf00        ..      NOP      
        0x080064e0:    f820c022     .".    STRH     r12,[r0,r2,LSL #2]
        0x080064e4:    e029        ).      B        0x800653a ; USB_DeactivateEndpoint + 218
        0x080064e6:    e7ff        ..      B        0x80064e8 ; USB_DeactivateEndpoint + 136
        0x080064e8:    b1cd        ..      CBZ      r5,0x800651e ; USB_DeactivateEndpoint + 190
        0x080064ea:    f8304022    0."@    LDRH     r4,[r0,r2,LSL #2]
        0x080064ee:    f0140f40    ..@.    TST      r4,#0x40
        0x080064f2:    d009        ..      BEQ      0x8006508 ; USB_DeactivateEndpoint + 168
        0x080064f4:    f8304022    0."@    LDRH     r4,[r0,r2,LSL #2]
        0x080064f8:    f0240470    $.p.    BIC      r4,r4,#0x70
        0x080064fc:    f42444e0    $..D    BIC      r4,r4,#0x7000
        0x08006500:    ea440c0c    D...    ORR      r12,r4,r12
        0x08006504:    f820c022     .".    STRH     r12,[r0,r2,LSL #2]
        0x08006508:    7809        .x      LDRB     r1,[r1,#0]
        0x0800650a:    f8302021    0.!     LDRH     r2,[r0,r1,LSL #2]
        0x0800650e:    f4225241    ".AR    BIC      r2,r2,#0x3040
        0x08006512:    f4224280    "..B    BIC      r2,r2,#0x4000
        0x08006516:    431a        .C      ORRS     r2,r2,r3
        0x08006518:    f8202021     .!     STRH     r2,[r0,r1,LSL #2]
        0x0800651c:    e052        R.      B        0x80065c4 ; USB_DeactivateEndpoint + 356
        0x0800651e:    f830c022    0.".    LDRH     r12,[r0,r2,LSL #2]
        0x08006522:    f41c4f80    ...O    TST      r12,#0x4000
        0x08006526:    d008        ..      BEQ      0x800653a ; USB_DeactivateEndpoint + 218
        0x08006528:    f830c022    0.".    LDRH     r12,[r0,r2,LSL #2]
        0x0800652c:    f02c0c70    ,.p.    BIC      r12,r12,#0x70
        0x08006530:    f42c4ce0    ,..L    BIC      r12,r12,#0x7000
        0x08006534:    ea4c0c04    L...    ORR      r12,r12,r4
        0x08006538:    e7d2        ..      B        0x80064e0 ; USB_DeactivateEndpoint + 128
        0x0800653a:    7809        .x      LDRB     r1,[r1,#0]
        0x0800653c:    f8302021    0.!     LDRH     r2,[r0,r1,LSL #2]
        0x08006540:    f0220270    ".p.    BIC      r2,r2,#0x70
        0x08006544:    f4224280    "..B    BIC      r2,r2,#0x4000
        0x08006548:    431a        .C      ORRS     r2,r2,r3
        0x0800654a:    f8202021     .!     STRH     r2,[r0,r1,LSL #2]
        0x0800654e:    e039        9.      B        0x80065c4 ; USB_DeactivateEndpoint + 356
        0x08006550:    b145        E.      CBZ      r5,0x8006564 ; USB_DeactivateEndpoint + 260
        0x08006552:    f8305022    0."P    LDRH     r5,[r0,r2,LSL #2]
        0x08006556:    f0250570    %.p.    BIC      r5,r5,#0x70
        0x0800655a:    f42545e0    %..E    BIC      r5,r5,#0x7000
        0x0800655e:    432c        ,C      ORRS     r4,r4,r5
        0x08006560:    f8204022     ."@    STRH     r4,[r0,r2,LSL #2]
        0x08006564:    780a        .x      LDRB     r2,[r1,#0]
        0x08006566:    f8304022    0."@    LDRH     r4,[r0,r2,LSL #2]
        0x0800656a:    f0140f40    ..@.    TST      r4,#0x40
        0x0800656e:    d009        ..      BEQ      0x8006584 ; USB_DeactivateEndpoint + 292
        0x08006570:    f8304022    0."@    LDRH     r4,[r0,r2,LSL #2]
        0x08006574:    f0240470    $.p.    BIC      r4,r4,#0x70
        0x08006578:    f42444e0    $..D    BIC      r4,r4,#0x7000
        0x0800657c:    ea44040c    D...    ORR      r4,r4,r12
        0x08006580:    f8204022     ."@    STRH     r4,[r0,r2,LSL #2]
        0x08006584:    780c        .x      LDRB     r4,[r1,#0]
        0x08006586:    f8302024    0.$     LDRH     r2,[r0,r4,LSL #2]
        0x0800658a:    f0220270    ".p.    BIC      r2,r2,#0x70
        0x0800658e:    f42242e0    "..B    BIC      r2,r2,#0x7000
        0x08006592:    ea42020c    B...    ORR      r2,r2,r12
        0x08006596:    f8202024     .$     STRH     r2,[r0,r4,LSL #2]
        0x0800659a:    780a        .x      LDRB     r2,[r1,#0]
        0x0800659c:    f830c022    0.".    LDRH     r12,[r0,r2,LSL #2]
        0x080065a0:    f02c0c70    ,.p.    BIC      r12,r12,#0x70
        0x080065a4:    f42c4c80    ,..L    BIC      r12,r12,#0x4000
        0x080065a8:    ea4c0c03    L...    ORR      r12,r12,r3
        0x080065ac:    f820c022     .".    STRH     r12,[r0,r2,LSL #2]
        0x080065b0:    780a        .x      LDRB     r2,[r1,#0]
        0x080065b2:    f8301022    0.".    LDRH     r1,[r0,r2,LSL #2]
        0x080065b6:    f4215141    !.AQ    BIC      r1,r1,#0x3040
        0x080065ba:    f4214180    !..A    BIC      r1,r1,#0x4000
        0x080065be:    4319        .C      ORRS     r1,r1,r3
        0x080065c0:    f8201022     .".    STRH     r1,[r0,r2,LSL #2]
        0x080065c4:    bc70        p.      POP      {r4-r6}
        0x080065c6:    2000        .       MOVS     r0,#0
        0x080065c8:    4770        pG      BX       lr
    i.USB_DevConnect
    USB_DevConnect
        0x080065ca:    f8b01058    ..X.    LDRH     r1,[r0,#0x58]
        0x080065ce:    f4414100    A..A    ORR      r1,r1,#0x8000
        0x080065d2:    f8a01058    ..X.    STRH     r1,[r0,#0x58]
        0x080065d6:    2000        .       MOVS     r0,#0
        0x080065d8:    4770        pG      BX       lr
    i.USB_DevInit
    USB_DevInit
        0x080065da:    2101        .!      MOVS     r1,#1
        0x080065dc:    f8a01040    ..@.    STRH     r1,[r0,#0x40]
        0x080065e0:    2100        .!      MOVS     r1,#0
        0x080065e2:    f8a01040    ..@.    STRH     r1,[r0,#0x40]
        0x080065e6:    f8a01044    ..D.    STRH     r1,[r0,#0x44]
        0x080065ea:    f8a01050    ..P.    STRH     r1,[r0,#0x50]
        0x080065ee:    4608        .F      MOV      r0,r1
        0x080065f0:    4770        pG      BX       lr
    i.USB_DisableGlobalInt
    USB_DisableGlobalInt
        0x080065f2:    f8b01040    ..@.    LDRH     r1,[r0,#0x40]
        0x080065f6:    f421517e    !.~Q    BIC      r1,r1,#0x3f80
        0x080065fa:    f4214100    !..A    BIC      r1,r1,#0x8000
        0x080065fe:    f8a01040    ..@.    STRH     r1,[r0,#0x40]
        0x08006602:    2000        .       MOVS     r0,#0
        0x08006604:    4770        pG      BX       lr
    i.USB_EPClearStall
    USB_EPClearStall
        0x08006606:    b410        ..      PUSH     {r4}
        0x08006608:    7b0a        .{      LDRB     r2,[r1,#0xc]
        0x0800660a:    bb2a        *.      CBNZ     r2,0x8006658 ; USB_EPClearStall + 82
        0x0800660c:    784a        Jx      LDRB     r2,[r1,#1]
        0x0800660e:    f2480380    H...    MOV      r3,#0x8080
        0x08006612:    2a00        .*      CMP      r2,#0
        0x08006614:    780a        .x      LDRB     r2,[r1,#0]
        0x08006616:    f830c022    0.".    LDRH     r12,[r0,r2,LSL #2]
        0x0800661a:    d01e        ..      BEQ      0x800665a ; USB_EPClearStall + 84
        0x0800661c:    f01c0f40    ..@.    TST      r12,#0x40
        0x08006620:    d00b        ..      BEQ      0x800663a ; USB_EPClearStall + 52
        0x08006622:    f830c022    0.".    LDRH     r12,[r0,r2,LSL #2]
        0x08006626:    f24804c0    H...    MOV      r4,#0x80c0
        0x0800662a:    f02c0c70    ,.p.    BIC      r12,r12,#0x70
        0x0800662e:    f42c4ce0    ,..L    BIC      r12,r12,#0x7000
        0x08006632:    ea4c0c04    L...    ORR      r12,r12,r4
        0x08006636:    f820c022     .".    STRH     r12,[r0,r2,LSL #2]
        0x0800663a:    78ca        .x      LDRB     r2,[r1,#3]
        0x0800663c:    2a01        .*      CMP      r2,#1
        0x0800663e:    d027        '.      BEQ      0x8006690 ; USB_EPClearStall + 138
        0x08006640:    7809        .x      LDRB     r1,[r1,#0]
        0x08006642:    f8302021    0.!     LDRH     r2,[r0,r1,LSL #2]
        0x08006646:    f4225241    ".AR    BIC      r2,r2,#0x3040
        0x0800664a:    f4224280    "..B    BIC      r2,r2,#0x4000
        0x0800664e:    f0820220    .. .    EOR      r2,r2,#0x20
        0x08006652:    431a        .C      ORRS     r2,r2,r3
        0x08006654:    f8202021     .!     STRH     r2,[r0,r1,LSL #2]
        0x08006658:    e01a        ..      B        0x8006690 ; USB_EPClearStall + 138
        0x0800665a:    f41c4f80    ...O    TST      r12,#0x4000
        0x0800665e:    d00b        ..      BEQ      0x8006678 ; USB_EPClearStall + 114
        0x08006660:    f830c022    0.".    LDRH     r12,[r0,r2,LSL #2]
        0x08006664:    f24c0480    L...    MOV      r4,#0xc080
        0x08006668:    f02c0c70    ,.p.    BIC      r12,r12,#0x70
        0x0800666c:    f42c4ce0    ,..L    BIC      r12,r12,#0x7000
        0x08006670:    ea4c0c04    L...    ORR      r12,r12,r4
        0x08006674:    f820c022     .".    STRH     r12,[r0,r2,LSL #2]
        0x08006678:    7809        .x      LDRB     r1,[r1,#0]
        0x0800667a:    f8302021    0.!     LDRH     r2,[r0,r1,LSL #2]
        0x0800667e:    f0220270    ".p.    BIC      r2,r2,#0x70
        0x08006682:    f4224280    "..B    BIC      r2,r2,#0x4000
        0x08006686:    f4825240    ..@R    EOR      r2,r2,#0x3000
        0x0800668a:    431a        .C      ORRS     r2,r2,r3
        0x0800668c:    f8202021     .!     STRH     r2,[r0,r1,LSL #2]
        0x08006690:    bc10        ..      POP      {r4}
        0x08006692:    2000        .       MOVS     r0,#0
        0x08006694:    4770        pG      BX       lr
    i.USB_EPSetStall
    USB_EPSetStall
        0x08006696:    784b        Kx      LDRB     r3,[r1,#1]
        0x08006698:    7809        .x      LDRB     r1,[r1,#0]
        0x0800669a:    2b00        .+      CMP      r3,#0
        0x0800669c:    f2480280    H...    MOV      r2,#0x8080
        0x080066a0:    f8303021    0.!0    LDRH     r3,[r0,r1,LSL #2]
        0x080066a4:    bf1d        ..      ITTTE    NE
        0x080066a6:    f4235341    #.AS    BICNE    r3,r3,#0x3040
        0x080066aa:    f4234380    #..C    BICNE    r3,r3,#0x4000
        0x080066ae:    f0830310    ....    EORNE    r3,r3,#0x10
        0x080066b2:    f0230370    #.p.    BICEQ    r3,r3,#0x70
        0x080066b6:    bf04        ..      ITT      EQ
        0x080066b8:    f4234380    #..C    BICEQ    r3,r3,#0x4000
        0x080066bc:    f4835380    ...S    EOREQ    r3,r3,#0x1000
        0x080066c0:    431a        .C      ORRS     r2,r2,r3
        0x080066c2:    f8202021     .!     STRH     r2,[r0,r1,LSL #2]
        0x080066c6:    2000        .       MOVS     r0,#0
        0x080066c8:    4770        pG      BX       lr
        0x080066ca:    0000        ..      MOVS     r0,r0
    i.USB_EPStartXfer
    USB_EPStartXfer
        0x080066cc:    e92d07f0    -...    PUSH     {r4-r10}
        0x080066d0:    f8918001    ....    LDRB     r8,[r1,#1]
        0x080066d4:    2700        .'      MOVS     r7,#0
        0x080066d6:    7b0e        .{      LDRB     r6,[r1,#0xc]
        0x080066d8:    f2480580    H...    MOV      r5,#0x8080
        0x080066dc:    f44f4c00    O..L    MOV      r12,#0x8000
        0x080066e0:    f64f74ff    O..t    MOV      r4,#0xffff
        0x080066e4:    f1b80f01    ....    CMP      r8,#1
        0x080066e8:    d01a        ..      BEQ      0x8006720 ; USB_EPStartXfer + 84
        0x080066ea:    2e00        ..      CMP      r6,#0
        0x080066ec:    f000823a    ..:.    BEQ.W    0x8006b64 ; USB_EPStartXfer + 1176
        0x080066f0:    78ca        .x      LDRB     r2,[r1,#3]
        0x080066f2:    2a02        .*      CMP      r2,#2
        0x080066f4:    f0008264    ..d.    BEQ.W    0x8006bc0 ; USB_EPStartXfer + 1268
        0x080066f8:    2a01        .*      CMP      r2,#1
        0x080066fa:    bf1e        ..      ITTT     NE
        0x080066fc:    2001        .       MOVNE    r0,#1
        0x080066fe:    e8bd07f0    ....    POPNE    {r4-r10}
        0x08006702:    4770        pG      BXNE     lr
        0x08006704:    698b        .i      LDR      r3,[r1,#0x18]
        0x08006706:    690a        .i      LDR      r2,[r1,#0x10]
        0x08006708:    4293        .B      CMP      r3,r2
        0x0800670a:    bf87        ..      ITTEE    HI
        0x0800670c:    1a9b        ..      SUBHI    r3,r3,r2
        0x0800670e:    618b        .a      STRHI    r3,[r1,#0x18]
        0x08006710:    461a        .F      MOVLS    r2,r3
        0x08006712:    618f        .a      STRLS    r7,[r1,#0x18]
        0x08006714:    f1b80f00    ....    CMP      r8,#0
        0x08006718:    f00082de    ....    BEQ.W    0x8006cd8 ; USB_EPStartXfer + 1548
        0x0800671c:    f000baf6    ....    B.W      0x8006d0c ; USB_EPStartXfer + 1600
        0x08006720:    690b        .i      LDR      r3,[r1,#0x10]
        0x08006722:    698a        .i      LDR      r2,[r1,#0x18]
        0x08006724:    429a        .B      CMP      r2,r3
        0x08006726:    bf88        ..      IT       HI
        0x08006728:    461a        .F      MOVHI    r2,r3
        0x0800672a:    b35e        ^.      CBZ      r6,0x8006784 ; USB_EPStartXfer + 184
        0x0800672c:    78ce        .x      LDRB     r6,[r1,#3]
        0x0800672e:    2e02        ..      CMP      r6,#2
        0x08006730:    d04a        J.      BEQ      0x80067c8 ; USB_EPStartXfer + 252
        0x08006732:    6a0b        .j      LDR      r3,[r1,#0x20]
        0x08006734:    1a9b        ..      SUBS     r3,r3,r2
        0x08006736:    620b        .b      STR      r3,[r1,#0x20]
        0x08006738:    780b        .x      LDRB     r3,[r1,#0]
        0x0800673a:    f830c023    0.#.    LDRH     r12,[r0,r3,LSL #2]
        0x0800673e:    f01c0f40    ..@.    TST      r12,#0x40
        0x08006742:    f8b0c050    ..P.    LDRH     r12,[r0,#0x50]
        0x08006746:    4484        .D      ADD      r12,r12,r0
        0x08006748:    eb0c03c3    ....    ADD      r3,r12,r3,LSL #3
        0x0800674c:    f00081e6    ....    BEQ.W    0x8006b1c ; USB_EPStartXfer + 1104
        0x08006750:    f8a32406    ...$    STRH     r2,[r3,#0x406]
        0x08006754:    f8b1c00a    ....    LDRH     r12,[r1,#0xa]
        0x08006758:    b292        ..      UXTH     r2,r2
        0x0800675a:    1c52        R.      ADDS     r2,r2,#1
        0x0800675c:    694b        Ki      LDR      r3,[r1,#0x14]
        0x0800675e:    4484        .D      ADD      r12,r12,r0
        0x08006760:    0852        R.      LSRS     r2,r2,#1
        0x08006762:    f50c6c80    ...l    ADD      r12,r12,#0x400
        0x08006766:    f00081ef    ....    BEQ.W    0x8006b48 ; USB_EPStartXfer + 1148
        0x0800676a:    bf00        ..      NOP      
        0x0800676c:    f8134b01    ...K    LDRB     r4,[r3],#1
        0x08006770:    f8136b01    ...k    LDRB     r6,[r3],#1
        0x08006774:    ea442406    D..$    ORR      r4,r4,r6,LSL #8
        0x08006778:    f82c4b02    ,..K    STRH     r4,[r12],#2
        0x0800677c:    1e52        R.      SUBS     r2,r2,#1
        0x0800677e:    d1f5        ..      BNE      0x800676c ; USB_EPStartXfer + 160
        0x08006780:    f000b9e2    ....    B.W      0x8006b48 ; USB_EPStartXfer + 1148
        0x08006784:    88cc        ..      LDRH     r4,[r1,#6]
        0x08006786:    fa1ffc82    ....    UXTH     r12,r2
        0x0800678a:    f10c0c01    ....    ADD      r12,r12,#1
        0x0800678e:    694b        Ki      LDR      r3,[r1,#0x14]
        0x08006790:    4404        .D      ADD      r4,r4,r0
        0x08006792:    ea5f0c5c    _.\.    LSRS     r12,r12,#1
        0x08006796:    f5046480    ...d    ADD      r4,r4,#0x400
        0x0800679a:    d00a        ..      BEQ      0x80067b2 ; USB_EPStartXfer + 230
        0x0800679c:    f8136b01    ...k    LDRB     r6,[r3],#1
        0x080067a0:    f8137b01    ...{    LDRB     r7,[r3],#1
        0x080067a4:    ea462607    F..&    ORR      r6,r6,r7,LSL #8
        0x080067a8:    f8246b02    $..k    STRH     r6,[r4],#2
        0x080067ac:    f1bc0c01    ....    SUBS     r12,r12,#1
        0x080067b0:    d1f4        ..      BNE      0x800679c ; USB_EPStartXfer + 208
        0x080067b2:    f8b03050    ..P0    LDRH     r3,[r0,#0x50]
        0x080067b6:    f891c000    ....    LDRB     r12,[r1,#0]
        0x080067ba:    4403        .D      ADD      r3,r3,r0
        0x080067bc:    eb0303cc    ....    ADD      r3,r3,r12,LSL #3
        0x080067c0:    f8a32402    ...$    STRH     r2,[r3,#0x402]
        0x080067c4:    f000b9c0    ....    B.W      0x8006b48 ; USB_EPStartXfer + 1148
        0x080067c8:    6a0e        .j      LDR      r6,[r1,#0x20]
        0x080067ca:    429e        .B      CMP      r6,r3
        0x080067cc:    f240817d    @.}.    BLS.W    0x8006aca ; USB_EPStartXfer + 1022
        0x080067d0:    780e        .x      LDRB     r6,[r1,#0]
        0x080067d2:    f8303026    0.&0    LDRH     r3,[r0,r6,LSL #2]
        0x080067d6:    f2481880    H...    MOV      r8,#0x8180
        0x080067da:    f0230370    #.p.    BIC      r3,r3,#0x70
        0x080067de:    f42343e0    #..C    BIC      r3,r3,#0x7000
        0x080067e2:    ea430308    C...    ORR      r3,r3,r8
        0x080067e6:    f8203026     .&0    STRH     r3,[r0,r6,LSL #2]
        0x080067ea:    6a0b        .j      LDR      r3,[r1,#0x20]
        0x080067ec:    1a9b        ..      SUBS     r3,r3,r2
        0x080067ee:    620b        .b      STR      r3,[r1,#0x20]
        0x080067f0:    780b        .x      LDRB     r3,[r1,#0]
        0x080067f2:    f8306023    0.#`    LDRH     r6,[r0,r3,LSL #2]
        0x080067f6:    f0160f40    ..@.    TST      r6,#0x40
        0x080067fa:    784e        Nx      LDRB     r6,[r1,#1]
        0x080067fc:    d07b        {.      BEQ      0x80068f6 ; USB_EPStartXfer + 554
        0x080067fe:    b116        ..      CBZ      r6,0x8006806 ; USB_EPStartXfer + 314
        0x08006800:    2e01        ..      CMP      r6,#1
        0x08006802:    d02f        /.      BEQ      0x8006864 ; USB_EPStartXfer + 408
        0x08006804:    e036        6.      B        0x8006874 ; USB_EPStartXfer + 424
        0x08006806:    f8b06050    ..P`    LDRH     r6,[r0,#0x50]
        0x0800680a:    4406        .D      ADD      r6,r6,r0
        0x0800680c:    eb0603c3    ....    ADD      r3,r6,r3,LSL #3
        0x08006810:    f8b36406    ...d    LDRH     r6,[r3,#0x406]
        0x08006814:    f3c60609    ....    UBFX     r6,r6,#0,#10
        0x08006818:    f8a36406    ...d    STRH     r6,[r3,#0x406]
        0x0800681c:    f2034306    ...C    ADD      r3,r3,#0x406
        0x08006820:    2a3e        >*      CMP      r2,#0x3e
        0x08006822:    d90c        ..      BLS      0x800683e ; USB_EPStartXfer + 370
        0x08006824:    0956        V.      LSRS     r6,r2,#5
        0x08006826:    f0120f1f    ....    TST      r2,#0x1f
        0x0800682a:    bf08        ..      IT       EQ
        0x0800682c:    1e76        v.      SUBEQ    r6,r6,#1
        0x0800682e:    f8b38000    ....    LDRH     r8,[r3,#0]
        0x08006832:    ea4c2686    L..&    ORR      r6,r12,r6,LSL #10
        0x08006836:    ea480606    H...    ORR      r6,r8,r6
        0x0800683a:    801e        ..      STRH     r6,[r3,#0]
        0x0800683c:    e01a        ..      B        0x8006874 ; USB_EPStartXfer + 424
        0x0800683e:    2a00        .*      CMP      r2,#0
        0x08006840:    bf04        ..      ITT      EQ
        0x08006842:    881e        ..      LDRHEQ   r6,[r3,#0]
        0x08006844:    f4464600    F..F    ORREQ    r6,r6,#0x8000
        0x08006848:    d0f7        ..      BEQ      0x800683a ; USB_EPStartXfer + 366
        0x0800684a:    0856        V.      LSRS     r6,r2,#1
        0x0800684c:    f0120f01    ....    TST      r2,#1
        0x08006850:    bf18        ..      IT       NE
        0x08006852:    1c76        v.      ADDNE    r6,r6,#1
        0x08006854:    f8b38000    ....    LDRH     r8,[r3,#0]
        0x08006858:    ea042686    ...&    AND      r6,r4,r6,LSL #10
        0x0800685c:    ea480606    H...    ORR      r6,r8,r6
        0x08006860:    801e        ..      STRH     r6,[r3,#0]
        0x08006862:    e007        ..      B        0x8006874 ; USB_EPStartXfer + 424
        0x08006864:    f8b08050    ..P.    LDRH     r8,[r0,#0x50]
        0x08006868:    eb080600    ....    ADD      r6,r8,r0
        0x0800686c:    eb0603c3    ....    ADD      r3,r6,r3,LSL #3
        0x08006870:    f8a32406    ...$    STRH     r2,[r3,#0x406]
        0x08006874:    f8b1800a    ....    LDRH     r8,[r1,#0xa]
        0x08006878:    b296        ..      UXTH     r6,r2
        0x0800687a:    1c76        v.      ADDS     r6,r6,#1
        0x0800687c:    694b        Ki      LDR      r3,[r1,#0x14]
        0x0800687e:    4480        .D      ADD      r8,r8,r0
        0x08006880:    0876        v.      LSRS     r6,r6,#1
        0x08006882:    f5086880    ...h    ADD      r8,r8,#0x400
        0x08006886:    d009        ..      BEQ      0x800689c ; USB_EPStartXfer + 464
        0x08006888:    f8139b01    ....    LDRB     r9,[r3],#1
        0x0800688c:    f813ab01    ....    LDRB     r10,[r3],#1
        0x08006890:    ea49290a    I..)    ORR      r9,r9,r10,LSL #8
        0x08006894:    f8289b02    (...    STRH     r9,[r8],#2
        0x08006898:    1e76        v.      SUBS     r6,r6,#1
        0x0800689a:    d1f5        ..      BNE      0x8006888 ; USB_EPStartXfer + 444
        0x0800689c:    694b        Ki      LDR      r3,[r1,#0x14]
        0x0800689e:    4413        .D      ADD      r3,r3,r2
        0x080068a0:    614b        Ka      STR      r3,[r1,#0x14]
        0x080068a2:    690e        .i      LDR      r6,[r1,#0x10]
        0x080068a4:    6a0b        .j      LDR      r3,[r1,#0x20]
        0x080068a6:    42b3        .B      CMP      r3,r6
        0x080068a8:    bf87        ..      ITTEE    HI
        0x080068aa:    1a9b        ..      SUBHI    r3,r3,r2
        0x080068ac:    620b        .b      STRHI    r3,[r1,#0x20]
        0x080068ae:    461a        .F      MOVLS    r2,r3
        0x080068b0:    620f        .b      STRLS    r7,[r1,#0x20]
        0x080068b2:    784b        Kx      LDRB     r3,[r1,#1]
        0x080068b4:    b113        ..      CBZ      r3,0x80068bc ; USB_EPStartXfer + 496
        0x080068b6:    2b01        .+      CMP      r3,#1
        0x080068b8:    d034        4.      BEQ      0x8006924 ; USB_EPStartXfer + 600
        0x080068ba:    e03c        <.      B        0x8006936 ; USB_EPStartXfer + 618
        0x080068bc:    f8b03050    ..P0    LDRH     r3,[r0,#0x50]
        0x080068c0:    780e        .x      LDRB     r6,[r1,#0]
        0x080068c2:    4403        .D      ADD      r3,r3,r0
        0x080068c4:    eb0303c6    ....    ADD      r3,r3,r6,LSL #3
        0x080068c8:    f8b36402    ...d    LDRH     r6,[r3,#0x402]
        0x080068cc:    f3c60609    ....    UBFX     r6,r6,#0,#10
        0x080068d0:    f8a36402    ...d    STRH     r6,[r3,#0x402]
        0x080068d4:    f2034302    ...C    ADD      r3,r3,#0x402
        0x080068d8:    2a3e        >*      CMP      r2,#0x3e
        0x080068da:    d90d        ..      BLS      0x80068f8 ; USB_EPStartXfer + 556
        0x080068dc:    0954        T.      LSRS     r4,r2,#5
        0x080068de:    f0120f1f    ....    TST      r2,#0x1f
        0x080068e2:    bf08        ..      IT       EQ
        0x080068e4:    1e64        d.      SUBEQ    r4,r4,#1
        0x080068e6:    881e        ..      LDRH     r6,[r3,#0]
        0x080068e8:    ea4c2c84    L..,    ORR      r12,r12,r4,LSL #10
        0x080068ec:    ea460c0c    F...    ORR      r12,r6,r12
        0x080068f0:    f8a3c000    ....    STRH     r12,[r3,#0]
        0x080068f4:    e01f        ..      B        0x8006936 ; USB_EPStartXfer + 618
        0x080068f6:    e034        4.      B        0x8006962 ; USB_EPStartXfer + 662
        0x080068f8:    2a00        .*      CMP      r2,#0
        0x080068fa:    bf04        ..      ITT      EQ
        0x080068fc:    f8b3c000    ....    LDRHEQ   r12,[r3,#0]
        0x08006900:    f44c4c00    L..L    ORREQ    r12,r12,#0x8000
        0x08006904:    d0f4        ..      BEQ      0x80068f0 ; USB_EPStartXfer + 548
        0x08006906:    ea4f0c52    O.R.    LSR      r12,r2,#1
        0x0800690a:    f0120f01    ....    TST      r2,#1
        0x0800690e:    bf18        ..      IT       NE
        0x08006910:    f10c0c01    ....    ADDNE    r12,r12,#1
        0x08006914:    881e        ..      LDRH     r6,[r3,#0]
        0x08006916:    ea042c8c    ...,    AND      r12,r4,r12,LSL #10
        0x0800691a:    ea460c0c    F...    ORR      r12,r6,r12
        0x0800691e:    f8a3c000    ....    STRH     r12,[r3,#0]
        0x08006922:    e008        ..      B        0x8006936 ; USB_EPStartXfer + 618
        0x08006924:    f8b03050    ..P0    LDRH     r3,[r0,#0x50]
        0x08006928:    f891c000    ....    LDRB     r12,[r1,#0]
        0x0800692c:    4403        .D      ADD      r3,r3,r0
        0x0800692e:    eb0303cc    ....    ADD      r3,r3,r12,LSL #3
        0x08006932:    f8a32402    ...$    STRH     r2,[r3,#0x402]
        0x08006936:    f8b1c008    ....    LDRH     r12,[r1,#8]
        0x0800693a:    b292        ..      UXTH     r2,r2
        0x0800693c:    1c52        R.      ADDS     r2,r2,#1
        0x0800693e:    694b        Ki      LDR      r3,[r1,#0x14]
        0x08006940:    4484        .D      ADD      r12,r12,r0
        0x08006942:    0852        R.      LSRS     r2,r2,#1
        0x08006944:    f50c6c80    ...l    ADD      r12,r12,#0x400
        0x08006948:    d07e        ~.      BEQ      0x8006a48 ; USB_EPStartXfer + 892
        0x0800694a:    bf00        ..      NOP      
        0x0800694c:    f8134b01    ...K    LDRB     r4,[r3],#1
        0x08006950:    f8136b01    ...k    LDRB     r6,[r3],#1
        0x08006954:    ea442406    D..$    ORR      r4,r4,r6,LSL #8
        0x08006958:    f82c4b02    ,..K    STRH     r4,[r12],#2
        0x0800695c:    1e52        R.      SUBS     r2,r2,#1
        0x0800695e:    d1f5        ..      BNE      0x800694c ; USB_EPStartXfer + 640
        0x08006960:    e0f2        ..      B        0x8006b48 ; USB_EPStartXfer + 1148
        0x08006962:    b116        ..      CBZ      r6,0x800696a ; USB_EPStartXfer + 670
        0x08006964:    2e01        ..      CMP      r6,#1
        0x08006966:    d02f        /.      BEQ      0x80069c8 ; USB_EPStartXfer + 764
        0x08006968:    e035        5.      B        0x80069d6 ; USB_EPStartXfer + 778
        0x0800696a:    f8b06050    ..P`    LDRH     r6,[r0,#0x50]
        0x0800696e:    4406        .D      ADD      r6,r6,r0
        0x08006970:    eb0603c3    ....    ADD      r3,r6,r3,LSL #3
        0x08006974:    f8b36402    ...d    LDRH     r6,[r3,#0x402]
        0x08006978:    f3c60609    ....    UBFX     r6,r6,#0,#10
        0x0800697c:    f8a36402    ...d    STRH     r6,[r3,#0x402]
        0x08006980:    f2034302    ...C    ADD      r3,r3,#0x402
        0x08006984:    2a3e        >*      CMP      r2,#0x3e
        0x08006986:    d90c        ..      BLS      0x80069a2 ; USB_EPStartXfer + 726
        0x08006988:    0956        V.      LSRS     r6,r2,#5
        0x0800698a:    f0120f1f    ....    TST      r2,#0x1f
        0x0800698e:    bf08        ..      IT       EQ
        0x08006990:    1e76        v.      SUBEQ    r6,r6,#1
        0x08006992:    f8b38000    ....    LDRH     r8,[r3,#0]
        0x08006996:    ea4c2686    L..&    ORR      r6,r12,r6,LSL #10
        0x0800699a:    ea480606    H...    ORR      r6,r8,r6
        0x0800699e:    801e        ..      STRH     r6,[r3,#0]
        0x080069a0:    e019        ..      B        0x80069d6 ; USB_EPStartXfer + 778
        0x080069a2:    2a00        .*      CMP      r2,#0
        0x080069a4:    bf04        ..      ITT      EQ
        0x080069a6:    881e        ..      LDRHEQ   r6,[r3,#0]
        0x080069a8:    f4464600    F..F    ORREQ    r6,r6,#0x8000
        0x080069ac:    d0f7        ..      BEQ      0x800699e ; USB_EPStartXfer + 722
        0x080069ae:    0856        V.      LSRS     r6,r2,#1
        0x080069b0:    f0120f01    ....    TST      r2,#1
        0x080069b4:    bf18        ..      IT       NE
        0x080069b6:    1c76        v.      ADDNE    r6,r6,#1
        0x080069b8:    f8b38000    ....    LDRH     r8,[r3,#0]
        0x080069bc:    ea042686    ...&    AND      r6,r4,r6,LSL #10
        0x080069c0:    ea480606    H...    ORR      r6,r8,r6
        0x080069c4:    801e        ..      STRH     r6,[r3,#0]
        0x080069c6:    e006        ..      B        0x80069d6 ; USB_EPStartXfer + 778
        0x080069c8:    f8b06050    ..P`    LDRH     r6,[r0,#0x50]
        0x080069cc:    4406        .D      ADD      r6,r6,r0
        0x080069ce:    eb0603c3    ....    ADD      r3,r6,r3,LSL #3
        0x080069d2:    f8a32402    ...$    STRH     r2,[r3,#0x402]
        0x080069d6:    f8b18008    ....    LDRH     r8,[r1,#8]
        0x080069da:    b296        ..      UXTH     r6,r2
        0x080069dc:    1c76        v.      ADDS     r6,r6,#1
        0x080069de:    694b        Ki      LDR      r3,[r1,#0x14]
        0x080069e0:    4480        .D      ADD      r8,r8,r0
        0x080069e2:    0876        v.      LSRS     r6,r6,#1
        0x080069e4:    f5086880    ...h    ADD      r8,r8,#0x400
        0x080069e8:    d00a        ..      BEQ      0x8006a00 ; USB_EPStartXfer + 820
        0x080069ea:    bf00        ..      NOP      
        0x080069ec:    f8139b01    ....    LDRB     r9,[r3],#1
        0x080069f0:    f813ab01    ....    LDRB     r10,[r3],#1
        0x080069f4:    ea49290a    I..)    ORR      r9,r9,r10,LSL #8
        0x080069f8:    f8289b02    (...    STRH     r9,[r8],#2
        0x080069fc:    1e76        v.      SUBS     r6,r6,#1
        0x080069fe:    d1f5        ..      BNE      0x80069ec ; USB_EPStartXfer + 800
        0x08006a00:    694b        Ki      LDR      r3,[r1,#0x14]
        0x08006a02:    4413        .D      ADD      r3,r3,r2
        0x08006a04:    614b        Ka      STR      r3,[r1,#0x14]
        0x08006a06:    690e        .i      LDR      r6,[r1,#0x10]
        0x08006a08:    6a0b        .j      LDR      r3,[r1,#0x20]
        0x08006a0a:    42b3        .B      CMP      r3,r6
        0x08006a0c:    bf87        ..      ITTEE    HI
        0x08006a0e:    1a9b        ..      SUBHI    r3,r3,r2
        0x08006a10:    620b        .b      STRHI    r3,[r1,#0x20]
        0x08006a12:    461a        .F      MOVLS    r2,r3
        0x08006a14:    620f        .b      STRLS    r7,[r1,#0x20]
        0x08006a16:    784b        Kx      LDRB     r3,[r1,#1]
        0x08006a18:    b113        ..      CBZ      r3,0x8006a20 ; USB_EPStartXfer + 852
        0x08006a1a:    2b01        .+      CMP      r3,#1
        0x08006a1c:    d035        5.      BEQ      0x8006a8a ; USB_EPStartXfer + 958
        0x08006a1e:    e03e        >.      B        0x8006a9e ; USB_EPStartXfer + 978
        0x08006a20:    f8b03050    ..P0    LDRH     r3,[r0,#0x50]
        0x08006a24:    780e        .x      LDRB     r6,[r1,#0]
        0x08006a26:    4403        .D      ADD      r3,r3,r0
        0x08006a28:    eb0303c6    ....    ADD      r3,r3,r6,LSL #3
        0x08006a2c:    f8b36406    ...d    LDRH     r6,[r3,#0x406]
        0x08006a30:    f3c60609    ....    UBFX     r6,r6,#0,#10
        0x08006a34:    f8a36406    ...d    STRH     r6,[r3,#0x406]
        0x08006a38:    f2034306    ...C    ADD      r3,r3,#0x406
        0x08006a3c:    2a3e        >*      CMP      r2,#0x3e
        0x08006a3e:    d90e        ..      BLS      0x8006a5e ; USB_EPStartXfer + 914
        0x08006a40:    0954        T.      LSRS     r4,r2,#5
        0x08006a42:    f0120f1f    ....    TST      r2,#0x1f
        0x08006a46:    e000        ..      B        0x8006a4a ; USB_EPStartXfer + 894
        0x08006a48:    e07e        ~.      B        0x8006b48 ; USB_EPStartXfer + 1148
        0x08006a4a:    bf08        ..      IT       EQ
        0x08006a4c:    1e64        d.      SUBEQ    r4,r4,#1
        0x08006a4e:    881e        ..      LDRH     r6,[r3,#0]
        0x08006a50:    ea4c2c84    L..,    ORR      r12,r12,r4,LSL #10
        0x08006a54:    ea460c0c    F...    ORR      r12,r6,r12
        0x08006a58:    f8a3c000    ....    STRH     r12,[r3,#0]
        0x08006a5c:    e01f        ..      B        0x8006a9e ; USB_EPStartXfer + 978
        0x08006a5e:    2a00        .*      CMP      r2,#0
        0x08006a60:    bf04        ..      ITT      EQ
        0x08006a62:    f8b3c000    ....    LDRHEQ   r12,[r3,#0]
        0x08006a66:    f44c4c00    L..L    ORREQ    r12,r12,#0x8000
        0x08006a6a:    d0f5        ..      BEQ      0x8006a58 ; USB_EPStartXfer + 908
        0x08006a6c:    ea4f0c52    O.R.    LSR      r12,r2,#1
        0x08006a70:    f0120f01    ....    TST      r2,#1
        0x08006a74:    bf18        ..      IT       NE
        0x08006a76:    f10c0c01    ....    ADDNE    r12,r12,#1
        0x08006a7a:    881e        ..      LDRH     r6,[r3,#0]
        0x08006a7c:    ea042c8c    ...,    AND      r12,r4,r12,LSL #10
        0x08006a80:    ea460c0c    F...    ORR      r12,r6,r12
        0x08006a84:    f8a3c000    ....    STRH     r12,[r3,#0]
        0x08006a88:    e009        ..      B        0x8006a9e ; USB_EPStartXfer + 978
        0x08006a8a:    f8b0c050    ..P.    LDRH     r12,[r0,#0x50]
        0x08006a8e:    eb0c0300    ....    ADD      r3,r12,r0
        0x08006a92:    f891c000    ....    LDRB     r12,[r1,#0]
        0x08006a96:    eb0303cc    ....    ADD      r3,r3,r12,LSL #3
        0x08006a9a:    f8a32406    ...$    STRH     r2,[r3,#0x406]
        0x08006a9e:    f8b1c00a    ....    LDRH     r12,[r1,#0xa]
        0x08006aa2:    b292        ..      UXTH     r2,r2
        0x08006aa4:    1c52        R.      ADDS     r2,r2,#1
        0x08006aa6:    694b        Ki      LDR      r3,[r1,#0x14]
        0x08006aa8:    4484        .D      ADD      r12,r12,r0
        0x08006aaa:    0852        R.      LSRS     r2,r2,#1
        0x08006aac:    f50c6c80    ...l    ADD      r12,r12,#0x400
        0x08006ab0:    d04a        J.      BEQ      0x8006b48 ; USB_EPStartXfer + 1148
        0x08006ab2:    bf00        ..      NOP      
        0x08006ab4:    f8134b01    ...K    LDRB     r4,[r3],#1
        0x08006ab8:    f8136b01    ...k    LDRB     r6,[r3],#1
        0x08006abc:    ea442406    D..$    ORR      r4,r4,r6,LSL #8
        0x08006ac0:    f82c4b02    ,..K    STRH     r4,[r12],#2
        0x08006ac4:    1e52        R.      SUBS     r2,r2,#1
        0x08006ac6:    d1f5        ..      BNE      0x8006ab4 ; USB_EPStartXfer + 1000
        0x08006ac8:    e03e        >.      B        0x8006b48 ; USB_EPStartXfer + 1148
        0x08006aca:    780a        .x      LDRB     r2,[r1,#0]
        0x08006acc:    f8303022    0."0    LDRH     r3,[r0,r2,LSL #2]
        0x08006ad0:    f42373b8    #..s    BIC      r3,r3,#0x170
        0x08006ad4:    f42343e0    #..C    BIC      r3,r3,#0x7000
        0x08006ad8:    432b        +C      ORRS     r3,r3,r5
        0x08006ada:    f8203022     ."0    STRH     r3,[r0,r2,LSL #2]
        0x08006ade:    f8b02050    ..P     LDRH     r2,[r0,#0x50]
        0x08006ae2:    780b        .x      LDRB     r3,[r1,#0]
        0x08006ae4:    4402        .D      ADD      r2,r2,r0
        0x08006ae6:    eb0202c3    ....    ADD      r2,r2,r3,LSL #3
        0x08006aea:    f8a26402    ...d    STRH     r6,[r2,#0x402]
        0x08006aee:    f8b1c008    ....    LDRH     r12,[r1,#8]
        0x08006af2:    b2b3        ..      UXTH     r3,r6
        0x08006af4:    1c5b        [.      ADDS     r3,r3,#1
        0x08006af6:    694a        Ji      LDR      r2,[r1,#0x14]
        0x08006af8:    4484        .D      ADD      r12,r12,r0
        0x08006afa:    085b        [.      LSRS     r3,r3,#1
        0x08006afc:    f50c6c80    ...l    ADD      r12,r12,#0x400
        0x08006b00:    d022        ".      BEQ      0x8006b48 ; USB_EPStartXfer + 1148
        0x08006b02:    bf00        ..      NOP      
        0x08006b04:    f8124b01    ...K    LDRB     r4,[r2],#1
        0x08006b08:    f8126b01    ...k    LDRB     r6,[r2],#1
        0x08006b0c:    ea442406    D..$    ORR      r4,r4,r6,LSL #8
        0x08006b10:    f82c4b02    ,..K    STRH     r4,[r12],#2
        0x08006b14:    1e5b        [.      SUBS     r3,r3,#1
        0x08006b16:    d1f5        ..      BNE      0x8006b04 ; USB_EPStartXfer + 1080
        0x08006b18:    e016        ..      B        0x8006b48 ; USB_EPStartXfer + 1148
        0x08006b1a:    bf00        ..      NOP      
        0x08006b1c:    f8a32402    ...$    STRH     r2,[r3,#0x402]
        0x08006b20:    f8b1c008    ....    LDRH     r12,[r1,#8]
        0x08006b24:    b292        ..      UXTH     r2,r2
        0x08006b26:    1c52        R.      ADDS     r2,r2,#1
        0x08006b28:    694b        Ki      LDR      r3,[r1,#0x14]
        0x08006b2a:    4484        .D      ADD      r12,r12,r0
        0x08006b2c:    0852        R.      LSRS     r2,r2,#1
        0x08006b2e:    f50c6c80    ...l    ADD      r12,r12,#0x400
        0x08006b32:    d009        ..      BEQ      0x8006b48 ; USB_EPStartXfer + 1148
        0x08006b34:    f8134b01    ...K    LDRB     r4,[r3],#1
        0x08006b38:    f8136b01    ...k    LDRB     r6,[r3],#1
        0x08006b3c:    ea442406    D..$    ORR      r4,r4,r6,LSL #8
        0x08006b40:    f82c4b02    ,..K    STRH     r4,[r12],#2
        0x08006b44:    1e52        R.      SUBS     r2,r2,#1
        0x08006b46:    d1f5        ..      BNE      0x8006b34 ; USB_EPStartXfer + 1128
        0x08006b48:    7809        .x      LDRB     r1,[r1,#0]
        0x08006b4a:    f8302021    0.!     LDRH     r2,[r0,r1,LSL #2]
        0x08006b4e:    f4225241    ".AR    BIC      r2,r2,#0x3040
        0x08006b52:    f4224280    "..B    BIC      r2,r2,#0x4000
        0x08006b56:    f0820230    ..0.    EOR      r2,r2,#0x30
        0x08006b5a:    432a        *C      ORRS     r2,r2,r5
        0x08006b5c:    f8202021     .!     STRH     r2,[r0,r1,LSL #2]
        0x08006b60:    f000b92d    ..-.    B.W      0x8006dbe ; USB_EPStartXfer + 1778
        0x08006b64:    698b        .i      LDR      r3,[r1,#0x18]
        0x08006b66:    690a        .i      LDR      r2,[r1,#0x10]
        0x08006b68:    4293        .B      CMP      r3,r2
        0x08006b6a:    bf87        ..      ITTEE    HI
        0x08006b6c:    1a9b        ..      SUBHI    r3,r3,r2
        0x08006b6e:    618b        .a      STRHI    r3,[r1,#0x18]
        0x08006b70:    461a        .F      MOVLS    r2,r3
        0x08006b72:    618f        .a      STRLS    r7,[r1,#0x18]
        0x08006b74:    f8b03050    ..P0    LDRH     r3,[r0,#0x50]
        0x08006b78:    780e        .x      LDRB     r6,[r1,#0]
        0x08006b7a:    4403        .D      ADD      r3,r3,r0
        0x08006b7c:    eb0303c6    ....    ADD      r3,r3,r6,LSL #3
        0x08006b80:    f8b36406    ...d    LDRH     r6,[r3,#0x406]
        0x08006b84:    f3c60609    ....    UBFX     r6,r6,#0,#10
        0x08006b88:    f8a36406    ...d    STRH     r6,[r3,#0x406]
        0x08006b8c:    f2034306    ...C    ADD      r3,r3,#0x406
        0x08006b90:    2a3e        >*      CMP      r2,#0x3e
        0x08006b92:    d905        ..      BLS      0x8006ba0 ; USB_EPStartXfer + 1236
        0x08006b94:    0954        T.      LSRS     r4,r2,#5
        0x08006b96:    f0120f1f    ....    TST      r2,#0x1f
        0x08006b9a:    d175        u.      BNE      0x8006c88 ; USB_EPStartXfer + 1468
        0x08006b9c:    1e64        d.      SUBS     r4,r4,#1
        0x08006b9e:    e0e0        ..      B        0x8006d62 ; USB_EPStartXfer + 1686
        0x08006ba0:    2a00        .*      CMP      r2,#0
        0x08006ba2:    d072        r.      BEQ      0x8006c8a ; USB_EPStartXfer + 1470
        0x08006ba4:    ea4f0c52    O.R.    LSR      r12,r2,#1
        0x08006ba8:    f0120f01    ....    TST      r2,#1
        0x08006bac:    bf18        ..      IT       NE
        0x08006bae:    f10c0c01    ....    ADDNE    r12,r12,#1
        0x08006bb2:    881a        ..      LDRH     r2,[r3,#0]
        0x08006bb4:    ea042c8c    ...,    AND      r12,r4,r12,LSL #10
        0x08006bb8:    ea42020c    B...    ORR      r2,r2,r12
        0x08006bbc:    801a        ..      STRH     r2,[r3,#0]
        0x08006bbe:    e0f2        ..      B        0x8006da6 ; USB_EPStartXfer + 1754
        0x08006bc0:    f1b80f00    ....    CMP      r8,#0
        0x08006bc4:    d11a        ..      BNE      0x8006bfc ; USB_EPStartXfer + 1328
        0x08006bc6:    f8b02050    ..P     LDRH     r2,[r0,#0x50]
        0x08006bca:    780b        .x      LDRB     r3,[r1,#0]
        0x08006bcc:    4402        .D      ADD      r2,r2,r0
        0x08006bce:    eb0202c3    ....    ADD      r2,r2,r3,LSL #3
        0x08006bd2:    f8b23402    ...4    LDRH     r3,[r2,#0x402]
        0x08006bd6:    f3c30309    ....    UBFX     r3,r3,#0,#10
        0x08006bda:    f8a23402    ...4    STRH     r3,[r2,#0x402]
        0x08006bde:    690b        .i      LDR      r3,[r1,#0x10]
        0x08006be0:    f2024202    ...B    ADD      r2,r2,#0x402
        0x08006be4:    2b3e        >+      CMP      r3,#0x3e
        0x08006be6:    d90e        ..      BLS      0x8006c06 ; USB_EPStartXfer + 1338
        0x08006be8:    095e        ^.      LSRS     r6,r3,#5
        0x08006bea:    f0130f1f    ....    TST      r3,#0x1f
        0x08006bee:    bf08        ..      IT       EQ
        0x08006bf0:    1e76        v.      SUBEQ    r6,r6,#1
        0x08006bf2:    8817        ..      LDRH     r7,[r2,#0]
        0x08006bf4:    ea4c2386    L..#    ORR      r3,r12,r6,LSL #10
        0x08006bf8:    433b        ;C      ORRS     r3,r3,r7
        0x08006bfa:    8013        ..      STRH     r3,[r2,#0]
        0x08006bfc:    784a        Jx      LDRB     r2,[r1,#1]
        0x08006bfe:    b19a        ..      CBZ      r2,0x8006c28 ; USB_EPStartXfer + 1372
        0x08006c00:    2a01        .*      CMP      r2,#1
        0x08006c02:    d043        C.      BEQ      0x8006c8c ; USB_EPStartXfer + 1472
        0x08006c04:    e04b        K.      B        0x8006c9e ; USB_EPStartXfer + 1490
        0x08006c06:    2b00        .+      CMP      r3,#0
        0x08006c08:    bf04        ..      ITT      EQ
        0x08006c0a:    8813        ..      LDRHEQ   r3,[r2,#0]
        0x08006c0c:    f4434300    C..C    ORREQ    r3,r3,#0x8000
        0x08006c10:    d0f3        ..      BEQ      0x8006bfa ; USB_EPStartXfer + 1326
        0x08006c12:    085e        ^.      LSRS     r6,r3,#1
        0x08006c14:    f0130f01    ....    TST      r3,#1
        0x08006c18:    bf18        ..      IT       NE
        0x08006c1a:    1c76        v.      ADDNE    r6,r6,#1
        0x08006c1c:    8813        ..      LDRH     r3,[r2,#0]
        0x08006c1e:    ea042686    ...&    AND      r6,r4,r6,LSL #10
        0x08006c22:    4333        3C      ORRS     r3,r3,r6
        0x08006c24:    8013        ..      STRH     r3,[r2,#0]
        0x08006c26:    e7e9        ..      B        0x8006bfc ; USB_EPStartXfer + 1328
        0x08006c28:    f8b02050    ..P     LDRH     r2,[r0,#0x50]
        0x08006c2c:    780b        .x      LDRB     r3,[r1,#0]
        0x08006c2e:    4402        .D      ADD      r2,r2,r0
        0x08006c30:    eb0202c3    ....    ADD      r2,r2,r3,LSL #3
        0x08006c34:    f8b23406    ...4    LDRH     r3,[r2,#0x406]
        0x08006c38:    f3c30309    ....    UBFX     r3,r3,#0,#10
        0x08006c3c:    f8a23406    ...4    STRH     r3,[r2,#0x406]
        0x08006c40:    690b        .i      LDR      r3,[r1,#0x10]
        0x08006c42:    f2024206    ...B    ADD      r2,r2,#0x406
        0x08006c46:    2b3e        >+      CMP      r3,#0x3e
        0x08006c48:    d90a        ..      BLS      0x8006c60 ; USB_EPStartXfer + 1428
        0x08006c4a:    095c        \.      LSRS     r4,r3,#5
        0x08006c4c:    f0130f1f    ....    TST      r3,#0x1f
        0x08006c50:    bf08        ..      IT       EQ
        0x08006c52:    1e64        d.      SUBEQ    r4,r4,#1
        0x08006c54:    8816        ..      LDRH     r6,[r2,#0]
        0x08006c56:    ea4c2384    L..#    ORR      r3,r12,r4,LSL #10
        0x08006c5a:    4333        3C      ORRS     r3,r3,r6
        0x08006c5c:    8013        ..      STRH     r3,[r2,#0]
        0x08006c5e:    e01e        ..      B        0x8006c9e ; USB_EPStartXfer + 1490
        0x08006c60:    2b00        .+      CMP      r3,#0
        0x08006c62:    bf04        ..      ITT      EQ
        0x08006c64:    8813        ..      LDRHEQ   r3,[r2,#0]
        0x08006c66:    f4434300    C..C    ORREQ    r3,r3,#0x8000
        0x08006c6a:    d0f7        ..      BEQ      0x8006c5c ; USB_EPStartXfer + 1424
        0x08006c6c:    ea4f0c53    O.S.    LSR      r12,r3,#1
        0x08006c70:    f0130f01    ....    TST      r3,#1
        0x08006c74:    bf18        ..      IT       NE
        0x08006c76:    f10c0c01    ....    ADDNE    r12,r12,#1
        0x08006c7a:    8813        ..      LDRH     r3,[r2,#0]
        0x08006c7c:    ea042c8c    ...,    AND      r12,r4,r12,LSL #10
        0x08006c80:    ea43030c    C...    ORR      r3,r3,r12
        0x08006c84:    8013        ..      STRH     r3,[r2,#0]
        0x08006c86:    e00a        ..      B        0x8006c9e ; USB_EPStartXfer + 1490
        0x08006c88:    e06b        k.      B        0x8006d62 ; USB_EPStartXfer + 1686
        0x08006c8a:    e07e        ~.      B        0x8006d8a ; USB_EPStartXfer + 1726
        0x08006c8c:    f8b03050    ..P0    LDRH     r3,[r0,#0x50]
        0x08006c90:    181a        ..      ADDS     r2,r3,r0
        0x08006c92:    780b        .x      LDRB     r3,[r1,#0]
        0x08006c94:    eb0202c3    ....    ADD      r2,r2,r3,LSL #3
        0x08006c98:    8a0b        ..      LDRH     r3,[r1,#0x10]
        0x08006c9a:    f8a23406    ...4    STRH     r3,[r2,#0x406]
        0x08006c9e:    69ca        .i      LDR      r2,[r1,#0x1c]
        0x08006ca0:    b3c2        ..      CBZ      r2,0x8006d14 ; USB_EPStartXfer + 1608
        0x08006ca2:    780b        .x      LDRB     r3,[r1,#0]
        0x08006ca4:    f8302023    0.#     LDRH     r2,[r0,r3,LSL #2]
        0x08006ca8:    f4124f80    ...O    TST      r2,#0x4000
        0x08006cac:    bf18        ..      IT       NE
        0x08006cae:    f0120f40    ..@.    TSTNE    r2,#0x40
        0x08006cb2:    d104        ..      BNE      0x8006cbe ; USB_EPStartXfer + 1522
        0x08006cb4:    f02202bf    "...    BIC      r2,r2,#0xbf
        0x08006cb8:    f432423f    2.?B    BICS     r2,r2,#0xbf00
        0x08006cbc:    d173        s.      BNE      0x8006da6 ; USB_EPStartXfer + 1754
        0x08006cbe:    f8302023    0.#     LDRH     r2,[r0,r3,LSL #2]
        0x08006cc2:    f2480cc0    H...    MOV      r12,#0x80c0
        0x08006cc6:    f0220270    ".p.    BIC      r2,r2,#0x70
        0x08006cca:    f42242e0    "..B    BIC      r2,r2,#0x7000
        0x08006cce:    ea42020c    B...    ORR      r2,r2,r12
        0x08006cd2:    f8202023     .#     STRH     r2,[r0,r3,LSL #2]
        0x08006cd6:    e066        f.      B        0x8006da6 ; USB_EPStartXfer + 1754
        0x08006cd8:    f8b03050    ..P0    LDRH     r3,[r0,#0x50]
        0x08006cdc:    780e        .x      LDRB     r6,[r1,#0]
        0x08006cde:    4403        .D      ADD      r3,r3,r0
        0x08006ce0:    eb0303c6    ....    ADD      r3,r3,r6,LSL #3
        0x08006ce4:    f8b36402    ...d    LDRH     r6,[r3,#0x402]
        0x08006ce8:    f3c60609    ....    UBFX     r6,r6,#0,#10
        0x08006cec:    f8a36402    ...d    STRH     r6,[r3,#0x402]
        0x08006cf0:    f2034302    ...C    ADD      r3,r3,#0x402
        0x08006cf4:    2a3e        >*      CMP      r2,#0x3e
        0x08006cf6:    d90e        ..      BLS      0x8006d16 ; USB_EPStartXfer + 1610
        0x08006cf8:    0956        V.      LSRS     r6,r2,#5
        0x08006cfa:    f0120f1f    ....    TST      r2,#0x1f
        0x08006cfe:    bf08        ..      IT       EQ
        0x08006d00:    1e76        v.      SUBEQ    r6,r6,#1
        0x08006d02:    881f        ..      LDRH     r7,[r3,#0]
        0x08006d04:    ea4c2686    L..&    ORR      r6,r12,r6,LSL #10
        0x08006d08:    433e        >C      ORRS     r6,r6,r7
        0x08006d0a:    801e        ..      STRH     r6,[r3,#0]
        0x08006d0c:    784b        Kx      LDRB     r3,[r1,#1]
        0x08006d0e:    b19b        ..      CBZ      r3,0x8006d38 ; USB_EPStartXfer + 1644
        0x08006d10:    2b01        .+      CMP      r3,#1
        0x08006d12:    d03e        >.      BEQ      0x8006d92 ; USB_EPStartXfer + 1734
        0x08006d14:    e047        G.      B        0x8006da6 ; USB_EPStartXfer + 1754
        0x08006d16:    2a00        .*      CMP      r2,#0
        0x08006d18:    bf04        ..      ITT      EQ
        0x08006d1a:    881e        ..      LDRHEQ   r6,[r3,#0]
        0x08006d1c:    f4464600    F..F    ORREQ    r6,r6,#0x8000
        0x08006d20:    d0f3        ..      BEQ      0x8006d0a ; USB_EPStartXfer + 1598
        0x08006d22:    0856        V.      LSRS     r6,r2,#1
        0x08006d24:    f0120f01    ....    TST      r2,#1
        0x08006d28:    bf18        ..      IT       NE
        0x08006d2a:    1c76        v.      ADDNE    r6,r6,#1
        0x08006d2c:    881f        ..      LDRH     r7,[r3,#0]
        0x08006d2e:    ea042686    ...&    AND      r6,r4,r6,LSL #10
        0x08006d32:    433e        >C      ORRS     r6,r6,r7
        0x08006d34:    801e        ..      STRH     r6,[r3,#0]
        0x08006d36:    e7e9        ..      B        0x8006d0c ; USB_EPStartXfer + 1600
        0x08006d38:    f8b03050    ..P0    LDRH     r3,[r0,#0x50]
        0x08006d3c:    780e        .x      LDRB     r6,[r1,#0]
        0x08006d3e:    4403        .D      ADD      r3,r3,r0
        0x08006d40:    eb0303c6    ....    ADD      r3,r3,r6,LSL #3
        0x08006d44:    f8b36406    ...d    LDRH     r6,[r3,#0x406]
        0x08006d48:    f3c60609    ....    UBFX     r6,r6,#0,#10
        0x08006d4c:    f8a36406    ...d    STRH     r6,[r3,#0x406]
        0x08006d50:    f2034306    ...C    ADD      r3,r3,#0x406
        0x08006d54:    2a3e        >*      CMP      r2,#0x3e
        0x08006d56:    d90a        ..      BLS      0x8006d6e ; USB_EPStartXfer + 1698
        0x08006d58:    0954        T.      LSRS     r4,r2,#5
        0x08006d5a:    f0120f1f    ....    TST      r2,#0x1f
        0x08006d5e:    f43faf1d    ?...    BEQ      0x8006b9c ; USB_EPStartXfer + 1232
        0x08006d62:    881e        ..      LDRH     r6,[r3,#0]
        0x08006d64:    ea4c2284    L.."    ORR      r2,r12,r4,LSL #10
        0x08006d68:    4332        2C      ORRS     r2,r2,r6
        0x08006d6a:    801a        ..      STRH     r2,[r3,#0]
        0x08006d6c:    e01b        ..      B        0x8006da6 ; USB_EPStartXfer + 1754
        0x08006d6e:    b162        b.      CBZ      r2,0x8006d8a ; USB_EPStartXfer + 1726
        0x08006d70:    ea4f0c52    O.R.    LSR      r12,r2,#1
        0x08006d74:    f0120f01    ....    TST      r2,#1
        0x08006d78:    bf18        ..      IT       NE
        0x08006d7a:    f10c0c01    ....    ADDNE    r12,r12,#1
        0x08006d7e:    881a        ..      LDRH     r2,[r3,#0]
        0x08006d80:    ea042c8c    ...,    AND      r12,r4,r12,LSL #10
        0x08006d84:    ea42020c    B...    ORR      r2,r2,r12
        0x08006d88:    e7ef        ..      B        0x8006d6a ; USB_EPStartXfer + 1694
        0x08006d8a:    881a        ..      LDRH     r2,[r3,#0]
        0x08006d8c:    f4424200    B..B    ORR      r2,r2,#0x8000
        0x08006d90:    e7eb        ..      B        0x8006d6a ; USB_EPStartXfer + 1694
        0x08006d92:    f8b0c050    ..P.    LDRH     r12,[r0,#0x50]
        0x08006d96:    eb0c0300    ....    ADD      r3,r12,r0
        0x08006d9a:    f891c000    ....    LDRB     r12,[r1,#0]
        0x08006d9e:    eb0303cc    ....    ADD      r3,r3,r12,LSL #3
        0x08006da2:    f8a32406    ...$    STRH     r2,[r3,#0x406]
        0x08006da6:    7809        .x      LDRB     r1,[r1,#0]
        0x08006da8:    f8302021    0.!     LDRH     r2,[r0,r1,LSL #2]
        0x08006dac:    f0220270    ".p.    BIC      r2,r2,#0x70
        0x08006db0:    f4224280    "..B    BIC      r2,r2,#0x4000
        0x08006db4:    f4825240    ..@R    EOR      r2,r2,#0x3000
        0x08006db8:    432a        *C      ORRS     r2,r2,r5
        0x08006dba:    f8202021     .!     STRH     r2,[r0,r1,LSL #2]
        0x08006dbe:    e8bd07f0    ....    POP      {r4-r10}
        0x08006dc2:    2000        .       MOVS     r0,#0
        0x08006dc4:    4770        pG      BX       lr
    i.USB_EnableGlobalInt
    USB_EnableGlobalInt
        0x08006dc6:    2100        .!      MOVS     r1,#0
        0x08006dc8:    f8a01044    ..D.    STRH     r1,[r0,#0x44]
        0x08006dcc:    f64b7180    K..q    MOV      r1,#0xbf80
        0x08006dd0:    f8a01040    ..@.    STRH     r1,[r0,#0x40]
        0x08006dd4:    2000        .       MOVS     r0,#0
        0x08006dd6:    4770        pG      BX       lr
    i.USB_LP_IRQHandler
    USB_LP_IRQHandler
        0x08006dd8:    4801        .H      LDR      r0,[pc,#4] ; [0x8006de0] = 0x20000fcc
        0x08006dda:    f7fabebc    ....    B        HAL_PCD_IRQHandler ; 0x8001b56
    $d
        0x08006dde:    0000        ..      DCW    0
        0x08006de0:    20000fcc    ...     DCD    536874956
    $t
    i.USB_ReadInterrupts
    USB_ReadInterrupts
        0x08006de4:    f8b00044    ..D.    LDRH     r0,[r0,#0x44]
        0x08006de8:    4770        pG      BX       lr
    i.USB_ReadPMA
    USB_ReadPMA
        0x08006dea:    4410        .D      ADD      r0,r0,r2
        0x08006dec:    ea5f0c53    _.S.    LSRS     r12,r3,#1
        0x08006df0:    f5006080    ...`    ADD      r0,r0,#0x400
        0x08006df4:    d009        ..      BEQ      0x8006e0a ; USB_ReadPMA + 32
        0x08006df6:    f8302b02    0..+    LDRH     r2,[r0],#2
        0x08006dfa:    f8012b01    ...+    STRB     r2,[r1],#1
        0x08006dfe:    0a12        ..      LSRS     r2,r2,#8
        0x08006e00:    f8012b01    ...+    STRB     r2,[r1],#1
        0x08006e04:    f1bc0c01    ....    SUBS     r12,r12,#1
        0x08006e08:    d1f5        ..      BNE      0x8006df6 ; USB_ReadPMA + 12
        0x08006e0a:    f0130f01    ....    TST      r3,#1
        0x08006e0e:    bf1c        ..      ITT      NE
        0x08006e10:    8800        ..      LDRHNE   r0,[r0,#0]
        0x08006e12:    7008        .p      STRBNE   r0,[r1,#0]
        0x08006e14:    4770        pG      BX       lr
    i.USB_SetDevAddress
    USB_SetDevAddress
        0x08006e16:    2900        .)      CMP      r1,#0
        0x08006e18:    bf04        ..      ITT      EQ
        0x08006e1a:    2180        .!      MOVEQ    r1,#0x80
        0x08006e1c:    f8a0104c    ..L.    STRHEQ   r1,[r0,#0x4c]
        0x08006e20:    2000        .       MOVS     r0,#0
        0x08006e22:    4770        pG      BX       lr
    i.USB_WritePMA
    USB_WritePMA
        0x08006e24:    1c5b        [.      ADDS     r3,r3,#1
        0x08006e26:    4410        .D      ADD      r0,r0,r2
        0x08006e28:    085b        [.      LSRS     r3,r3,#1
        0x08006e2a:    f5006080    ...`    ADD      r0,r0,#0x400
        0x08006e2e:    bf08        ..      IT       EQ
        0x08006e30:    4770        pG      BXEQ     lr
        0x08006e32:    bf00        ..      NOP      
        0x08006e34:    f8112b01    ...+    LDRB     r2,[r1],#1
        0x08006e38:    f811cb01    ....    LDRB     r12,[r1],#1
        0x08006e3c:    ea42220c    B.."    ORR      r2,r2,r12,LSL #8
        0x08006e40:    f8202b02     ..+    STRH     r2,[r0],#2
        0x08006e44:    1e5b        [.      SUBS     r3,r3,#1
        0x08006e46:    d1f5        ..      BNE      0x8006e34 ; USB_WritePMA + 16
        0x08006e48:    4770        pG      BX       lr
    i.UsageFault_Handler
    UsageFault_Handler
        0x08006e4a:    e7fe        ..      B        UsageFault_Handler ; 0x8006e4a
    i._DoInit
    _DoInit
        0x08006e4c:    b510        ..      PUSH     {r4,lr}
        0x08006e4e:    4c16        .L      LDR      r4,[pc,#88] ; [0x8006ea8] = 0x200008f4
        0x08006e50:    21a8        .!      MOVS     r1,#0xa8
        0x08006e52:    4620         F      MOV      r0,r4
        0x08006e54:    f7f9fac7    ....    BL       __aeabi_memclr4 ; 0x80003e6
        0x08006e58:    2003        .       MOVS     r0,#3
        0x08006e5a:    6120         a      STR      r0,[r4,#0x10]
        0x08006e5c:    6160        `a      STR      r0,[r4,#0x14]
        0x08006e5e:    a013        ..      ADR      r0,{pc}+0x4e ; 0x8006eac
        0x08006e60:    61a0        .a      STR      r0,[r4,#0x18]
        0x08006e62:    f10400a8    ....    ADD      r0,r4,#0xa8
        0x08006e66:    61e0        .a      STR      r0,[r4,#0x1c]
        0x08006e68:    f44f6080    O..`    MOV      r0,#0x400
        0x08006e6c:    6220         b      STR      r0,[r4,#0x20]
        0x08006e6e:    2000        .       MOVS     r0,#0
        0x08006e70:    62a0        .b      STR      r0,[r4,#0x28]
        0x08006e72:    6260        `b      STR      r0,[r4,#0x24]
        0x08006e74:    62e0        .b      STR      r0,[r4,#0x2c]
        0x08006e76:    a10d        ..      ADR      r1,{pc}+0x36 ; 0x8006eac
        0x08006e78:    6621        !f      STR      r1,[r4,#0x60]
        0x08006e7a:    f5046195    ...a    ADD      r1,r4,#0x4a8
        0x08006e7e:    6661        af      STR      r1,[r4,#0x64]
        0x08006e80:    2110        .!      MOVS     r1,#0x10
        0x08006e82:    66a1        .f      STR      r1,[r4,#0x68]
        0x08006e84:    6720         g      STR      r0,[r4,#0x70]
        0x08006e86:    66e0        .f      STR      r0,[r4,#0x6c]
        0x08006e88:    6760        `g      STR      r0,[r4,#0x74]
        0x08006e8a:    490b        .I      LDR      r1,[pc,#44] ; [0x8006eb8] = 0x8008e18
        0x08006e8c:    f1c0020f    ....    RSB      r2,r0,#0xf
        0x08006e90:    5c8a        .\      LDRB     r2,[r1,r2]
        0x08006e92:    5422        "T      STRB     r2,[r4,r0]
        0x08006e94:    f1c0020e    ....    RSB      r2,r0,#0xe
        0x08006e98:    1823        #.      ADDS     r3,r4,r0
        0x08006e9a:    5c8a        .\      LDRB     r2,[r1,r2]
        0x08006e9c:    705a        Zp      STRB     r2,[r3,#1]
        0x08006e9e:    1c80        ..      ADDS     r0,r0,#2
        0x08006ea0:    2810        .(      CMP      r0,#0x10
        0x08006ea2:    d3f3        ..      BCC      0x8006e8c ; _DoInit + 64
        0x08006ea4:    bd10        ..      POP      {r4,pc}
    $d
        0x08006ea6:    0000        ..      DCW    0
        0x08006ea8:    200008f4    ...     DCD    536873204
        0x08006eac:    6d726554    Term    DCD    1836213588
        0x08006eb0:    6c616e69    inal    DCD    1818324585
        0x08006eb4:    00000000    ....    DCD    0
        0x08006eb8:    08008e18    ....    DCD    134254104
    $t
    i.atan2Rad
    atan2Rad
        0x08006ebc:    ed9f1a3f    ..?.    VLDR     s2,[pc,#252] ; [0x8006fbc] = 0
        0x08006ec0:    eeb50ac0    ....    VCMPE.F32 s0,#0.0
        0x08006ec4:    eef1fa10    ....    VMRS     APSR_nzcv,FPSCR
        0x08006ec8:    bf04        ..      ITT      EQ
        0x08006eca:    eef50ac0    ....    VCMPEEQ.F32 s1,#0.0
        0x08006ece:    eef1fa10    ....    VMRSEQ   APSR_nzcv,FPSCR
        0x08006ed2:    d065        e.      BEQ      0x8006fa0 ; atan2Rad + 228
        0x08006ed4:    eeb50ac0    ....    VCMPE.F32 s0,#0.0
        0x08006ed8:    2100        .!      MOVS     r1,#0
        0x08006eda:    eef1fa10    ....    VMRS     APSR_nzcv,FPSCR
        0x08006ede:    d264        d.      BCS      0x8006faa ; atan2Rad + 238
        0x08006ee0:    eef50ac0    ....    VCMPE.F32 s1,#0.0
        0x08006ee4:    eef1fa10    ....    VMRS     APSR_nzcv,FPSCR
        0x08006ee8:    bf2c        ,.      ITE      CS
        0x08006eea:    2204        ."      MOVCS    r2,#4
        0x08006eec:    2203        ."      MOVCC    r2,#3
        0x08006eee:    eef50ac0    ....    VCMPE.F32 s1,#0.0
        0x08006ef2:    eef1fa10    ....    VMRS     APSR_nzcv,FPSCR
        0x08006ef6:    bfd8        ..      IT       LE
        0x08006ef8:    eef10a60    ..`.    VNEGLE.F32 s1,s1
        0x08006efc:    eeb50ac0    ....    VCMPE.F32 s0,#0.0
        0x08006f00:    eef1fa10    ....    VMRS     APSR_nzcv,FPSCR
        0x08006f04:    bfd8        ..      IT       LE
        0x08006f06:    eeb10a40    ..@.    VNEGLE.F32 s0,s0
        0x08006f0a:    eeb40ae0    ....    VCMPE.F32 s0,s1
        0x08006f0e:    eef1fa10    ....    VMRS     APSR_nzcv,FPSCR
        0x08006f12:    bfd8        ..      IT       LE
        0x08006f14:    eef01a60    ..`.    VMOVLE.F32 s3,s1
        0x08006f18:    dd04        ..      BLE      0x8006f24 ; atan2Rad + 104
        0x08006f1a:    eef01a40    ..@.    VMOV.F32 s3,s0
        0x08006f1e:    eeb00a60    ..`.    VMOV.F32 s0,s1
        0x08006f22:    2101        .!      MOVS     r1,#1
        0x08006f24:    ee802a21    ..!*    VDIV.F32 s4,s0,s3
        0x08006f28:    ed9f0a26    ..&.    VLDR     s0,[pc,#152] ; [0x8006fc4] = 0x437e0000
        0x08006f2c:    eddf2a24    ..$*    VLDR     s5,[pc,#144] ; [0x8006fc0] = 0x3b810204
        0x08006f30:    eef70a00    ....    VMOV.F32 s1,#1.00000000
        0x08006f34:    ee621a00    b...    VMUL.F32 s3,s4,s0
        0x08006f38:    eef41ac0    ....    VCMPE.F32 s3,s0
        0x08006f3c:    eef1fa10    ....    VMRS     APSR_nzcv,FPSCR
        0x08006f40:    bf28        (.      IT       CS
        0x08006f42:    20fd        .       MOVCS    r0,#0xfd
        0x08006f44:    d20b        ..      BCS      0x8006f5e ; atan2Rad + 162
        0x08006f46:    eefc0ae1    ....    VCVT.U32.F32 s1,s3
        0x08006f4a:    ee100a90    ....    VMOV     r0,s1
        0x08006f4e:    eef80a60    ..`.    VCVT.F32.U32 s1,s1
        0x08006f52:    ee001aa2    ....    VMLA.F32 s2,s1,s5
        0x08006f56:    ee720a41    r.A.    VSUB.F32 s1,s4,s2
        0x08006f5a:    ee600a80    `...    VMUL.F32 s1,s1,s0
        0x08006f5e:    4b1a        .K      LDR      r3,[pc,#104] ; [0x8006fc8] = 0x8008a1c
        0x08006f60:    2900        .)      CMP      r1,#0
        0x08006f62:    eb030080    ....    ADD      r0,r3,r0,LSL #2
        0x08006f66:    ed901a00    ....    VLDR     s2,[r0,#0]
        0x08006f6a:    ed900a01    ....    VLDR     s0,[r0,#4]
        0x08006f6e:    ee300a41    0.A.    VSUB.F32 s0,s0,s2
        0x08006f72:    ee001a20    .. .    VMLA.F32 s2,s0,s1
        0x08006f76:    bf1c        ..      ITT      NE
        0x08006f78:    eeb50a00    ....    VMOVNE.F32 s0,#0.25000000
        0x08006f7c:    ee301a41    0.A.    VSUBNE.F32 s2,s0,s2
        0x08006f80:    eeb60a00    ....    VMOV.F32 s0,#0.50000000
        0x08006f84:    2a02        .*      CMP      r2,#2
        0x08006f86:    bf08        ..      IT       EQ
        0x08006f88:    ee301a41    0.A.    VSUBEQ.F32 s2,s0,s2
        0x08006f8c:    d008        ..      BEQ      0x8006fa0 ; atan2Rad + 228
        0x08006f8e:    2a03        .*      CMP      r2,#3
        0x08006f90:    bf08        ..      IT       EQ
        0x08006f92:    ee311a40    1.@.    VSUBEQ.F32 s2,s2,s0
        0x08006f96:    d003        ..      BEQ      0x8006fa0 ; atan2Rad + 228
        0x08006f98:    2a04        .*      CMP      r2,#4
        0x08006f9a:    bf08        ..      IT       EQ
        0x08006f9c:    eeb11a41    ..A.    VNEGEQ.F32 s2,s2
        0x08006fa0:    ed9f0a0a    ....    VLDR     s0,[pc,#40] ; [0x8006fcc] = 0x40c90fdb
        0x08006fa4:    ee210a00    !...    VMUL.F32 s0,s2,s0
        0x08006fa8:    4770        pG      BX       lr
        0x08006faa:    eef50ac0    ....    VCMPE.F32 s1,#0.0
        0x08006fae:    eef1fa10    ....    VMRS     APSR_nzcv,FPSCR
        0x08006fb2:    bf34        4.      ITE      CC
        0x08006fb4:    2202        ."      MOVCC    r2,#2
        0x08006fb6:    2201        ."      MOVCS    r2,#1
        0x08006fb8:    e799        ..      B        0x8006eee ; atan2Rad + 50
    $d
        0x08006fba:    0000        ..      DCW    0
        0x08006fbc:    00000000    ....    DCD    0
        0x08006fc0:    3b810204    ...;    DCD    998310404
        0x08006fc4:    437e0000    ..~C    DCD    1132331008
        0x08006fc8:    08008a1c    ....    DCD    134253084
        0x08006fcc:    40c90fdb    ...@    DCD    1086918619
    $t
    i.main
    main
        0x08006fd0:    b09c        ..      SUB      sp,sp,#0x70
        0x08006fd2:    f7fafbcd    ....    BL       HAL_Init ; 0x8001770
        0x08006fd6:    f7fef8ab    ....    BL       SystemClock_Config ; 0x8005130
        0x08006fda:    4dfe        .M      LDR      r5,[pc,#1016] ; [0x80073d4] = 0x40021000
        0x08006fdc:    6ca8        .l      LDR      r0,[r5,#0x48]
        0x08006fde:    f0400004    @...    ORR      r0,r0,#4
        0x08006fe2:    64a8        .d      STR      r0,[r5,#0x48]
        0x08006fe4:    6ca8        .l      LDR      r0,[r5,#0x48]
        0x08006fe6:    f0000004    ....    AND      r0,r0,#4
        0x08006fea:    9000        ..      STR      r0,[sp,#0]
        0x08006fec:    6ca8        .l      LDR      r0,[r5,#0x48]
        0x08006fee:    f0400001    @...    ORR      r0,r0,#1
        0x08006ff2:    64a8        .d      STR      r0,[r5,#0x48]
        0x08006ff4:    6ca8        .l      LDR      r0,[r5,#0x48]
        0x08006ff6:    f0000001    ....    AND      r0,r0,#1
        0x08006ffa:    9000        ..      STR      r0,[sp,#0]
        0x08006ffc:    6ca8        .l      LDR      r0,[r5,#0x48]
        0x08006ffe:    f0400002    @...    ORR      r0,r0,#2
        0x08007002:    64a8        .d      STR      r0,[r5,#0x48]
        0x08007004:    6ca8        .l      LDR      r0,[r5,#0x48]
        0x08007006:    4ef4        .N      LDR      r6,[pc,#976] ; [0x80073d8] = 0xe000ed0c
        0x08007008:    f0000002    ....    AND      r0,r0,#2
        0x0800700c:    9000        ..      STR      r0,[sp,#0]
        0x0800700e:    6830        0h      LDR      r0,[r6,#0]
        0x08007010:    f3c02002    ...     UBFX     r0,r0,#8,#3
        0x08007014:    1d01        ..      ADDS     r1,r0,#4
        0x08007016:    2907        .)      CMP      r1,#7
        0x08007018:    bf34        4.      ITE      CC
        0x0800701a:    2000        .       MOVCC    r0,#0
        0x0800701c:    1ec0        ..      SUBCS    r0,r0,#3
        0x0800701e:    2701        .'      MOVS     r7,#1
        0x08007020:    2400        .$      MOVS     r4,#0
        0x08007022:    49ee        .I      LDR      r1,[pc,#952] ; [0x80073dc] = 0xe000e00b
        0x08007024:    fa04f000    ....    LSL      r0,r4,r0
        0x08007028:    0100        ..      LSLS     r0,r0,#4
        0x0800702a:    f8810400    ....    STRB     r0,[r1,#0x400]
        0x0800702e:    f04f2ae0    O..*    MOV      r10,#0xe000e000
        0x08007032:    02f8        ..      LSLS     r0,r7,#11
        0x08007034:    f8ca0100    ....    STR      r0,[r10,#0x100]
        0x08007038:    6830        0h      LDR      r0,[r6,#0]
        0x0800703a:    f3c02002    ...     UBFX     r0,r0,#8,#3
        0x0800703e:    1d01        ..      ADDS     r1,r0,#4
        0x08007040:    2907        .)      CMP      r1,#7
        0x08007042:    bf34        4.      ITE      CC
        0x08007044:    2000        .       MOVCC    r0,#0
        0x08007046:    1ec0        ..      SUBCS    r0,r0,#3
        0x08007048:    fa04f000    ....    LSL      r0,r4,r0
        0x0800704c:    49e4        .I      LDR      r1,[pc,#912] ; [0x80073e0] = 0xe000e00c
        0x0800704e:    0100        ..      LSLS     r0,r0,#4
        0x08007050:    f8810400    ....    STRB     r0,[r1,#0x400]
        0x08007054:    f44f5080    O..P    MOV      r0,#0x1000
        0x08007058:    f8ca0100    ....    STR      r0,[r10,#0x100]
        0x0800705c:    6830        0h      LDR      r0,[r6,#0]
        0x0800705e:    f3c02002    ...     UBFX     r0,r0,#8,#3
        0x08007062:    1d01        ..      ADDS     r1,r0,#4
        0x08007064:    2907        .)      CMP      r1,#7
        0x08007066:    bf34        4.      ITE      CC
        0x08007068:    2000        .       MOVCC    r0,#0
        0x0800706a:    1ec0        ..      SUBCS    r0,r0,#3
        0x0800706c:    fa04f000    ....    LSL      r0,r4,r0
        0x08007070:    49dc        .I      LDR      r1,[pc,#880] ; [0x80073e4] = 0xe000e038
        0x08007072:    0100        ..      LSLS     r0,r0,#4
        0x08007074:    f8810400    ....    STRB     r0,[r1,#0x400]
        0x08007078:    49db        .I      LDR      r1,[pc,#876] ; [0x80073e8] = 0xe000e004
        0x0800707a:    f04f7080    O..p    MOV      r0,#0x1000000
        0x0800707e:    f04f0804    O...    MOV      r8,#4
        0x08007082:    f8c10100    ....    STR      r0,[r1,#0x100]
        0x08007086:    6830        0h      LDR      r0,[r6,#0]
        0x08007088:    f3c02002    ...     UBFX     r0,r0,#8,#3
        0x0800708c:    1d02        ..      ADDS     r2,r0,#4
        0x0800708e:    2a07        .*      CMP      r2,#7
        0x08007090:    bf34        4.      ITE      CC
        0x08007092:    2000        .       MOVCC    r0,#0
        0x08007094:    1ec0        ..      SUBCS    r0,r0,#3
        0x08007096:    fa04f000    ....    LSL      r0,r4,r0
        0x0800709a:    4ad4        .J      LDR      r2,[pc,#848] ; [0x80073ec] = 0xe000e039
        0x0800709c:    0100        ..      LSLS     r0,r0,#4
        0x0800709e:    f8820400    ....    STRB     r0,[r2,#0x400]
        0x080070a2:    f04f7000    O..p    MOV      r0,#0x2000000
        0x080070a6:    f8c10100    ....    STR      r0,[r1,#0x100]
        0x080070aa:    9407        ..      STR      r4,[sp,#0x1c]
        0x080070ac:    9408        ..      STR      r4,[sp,#0x20]
        0x080070ae:    9406        ..      STR      r4,[sp,#0x18]
        0x080070b0:    9402        ..      STR      r4,[sp,#8]
        0x080070b2:    9403        ..      STR      r4,[sp,#0xc]
        0x080070b4:    9404        ..      STR      r4,[sp,#0x10]
        0x080070b6:    9405        ..      STR      r4,[sp,#0x14]
        0x080070b8:    6ce8        .l      LDR      r0,[r5,#0x4c]
        0x080070ba:    49c6        .I      LDR      r1,[pc,#792] ; [0x80073d4] = 0x40021000
        0x080070bc:    f0400004    @...    ORR      r0,r0,#4
        0x080070c0:    64c8        .d      STR      r0,[r1,#0x4c]
        0x080070c2:    6cc8        .l      LDR      r0,[r1,#0x4c]
        0x080070c4:    f0000004    ....    AND      r0,r0,#4
        0x080070c8:    9009        ..      STR      r0,[sp,#0x24]
        0x080070ca:    6cc8        .l      LDR      r0,[r1,#0x4c]
        0x080070cc:    f0400020    @. .    ORR      r0,r0,#0x20
        0x080070d0:    64c8        .d      STR      r0,[r1,#0x4c]
        0x080070d2:    6cc8        .l      LDR      r0,[r1,#0x4c]
        0x080070d4:    f0000020    .. .    AND      r0,r0,#0x20
        0x080070d8:    9009        ..      STR      r0,[sp,#0x24]
        0x080070da:    6cc8        .l      LDR      r0,[r1,#0x4c]
        0x080070dc:    f0400001    @...    ORR      r0,r0,#1
        0x080070e0:    64c8        .d      STR      r0,[r1,#0x4c]
        0x080070e2:    6cc8        .l      LDR      r0,[r1,#0x4c]
        0x080070e4:    f0000001    ....    AND      r0,r0,#1
        0x080070e8:    9009        ..      STR      r0,[sp,#0x24]
        0x080070ea:    4608        .F      MOV      r0,r1
        0x080070ec:    6cc0        .l      LDR      r0,[r0,#0x4c]
        0x080070ee:    f0400002    @...    ORR      r0,r0,#2
        0x080070f2:    64c8        .d      STR      r0,[r1,#0x4c]
        0x080070f4:    6cc8        .l      LDR      r0,[r1,#0x4c]
        0x080070f6:    f0000002    ....    AND      r0,r0,#2
        0x080070fa:    9009        ..      STR      r0,[sp,#0x24]
        0x080070fc:    6cc8        .l      LDR      r0,[r1,#0x4c]
        0x080070fe:    f0400008    @...    ORR      r0,r0,#8
        0x08007102:    64c8        .d      STR      r0,[r1,#0x4c]
        0x08007104:    6cc8        .l      LDR      r0,[r1,#0x4c]
        0x08007106:    f8df92e8    ....    LDR      r9,[pc,#744] ; [0x80073f0] = 0x48000800
        0x0800710a:    f0000008    ....    AND      r0,r0,#8
        0x0800710e:    9009        ..      STR      r0,[sp,#0x24]
        0x08007110:    f44f5000    O..P    MOV      r0,#0x2000
        0x08007114:    f8c90028    ..(.    STR      r0,[r9,#0x28]
        0x08007118:    f8c97028    ..(p    STR      r7,[r9,#0x28]
        0x0800711c:    e9cd0700    ....    STRD     r0,r7,[sp,#0]
        0x08007120:    4669        iF      MOV      r1,sp
        0x08007122:    4648        HF      MOV      r0,r9
        0x08007124:    f7fbfe8a    ....    BL       LL_GPIO_Init ; 0x8002e3c
        0x08007128:    9700        ..      STR      r7,[sp,#0]
        0x0800712a:    e9cd7401    ...t    STRD     r7,r4,[sp,#4]
        0x0800712e:    9403        ..      STR      r4,[sp,#0xc]
        0x08007130:    4669        iF      MOV      r1,sp
        0x08007132:    4648        HF      MOV      r0,r9
        0x08007134:    9404        ..      STR      r4,[sp,#0x10]
        0x08007136:    f7fbfe81    ....    BL       LL_GPIO_Init ; 0x8002e3c
        0x0800713a:    2040        @       MOVS     r0,#0x40
        0x0800713c:    e9cd0400    ....    STRD     r0,r4,[sp,#0]
        0x08007140:    4669        iF      MOV      r1,sp
        0x08007142:    48ac        .H      LDR      r0,[pc,#688] ; [0x80073f4] = 0x48000400
        0x08007144:    9404        ..      STR      r4,[sp,#0x10]
        0x08007146:    f7fbfe79    ..y.    BL       LL_GPIO_Init ; 0x8002e3c
        0x0800714a:    48ab        .H      LDR      r0,[pc,#684] ; [0x80073f8] = 0x40010000
        0x0800714c:    2103        .!      MOVS     r1,#3
        0x0800714e:    6882        .h      LDR      r2,[r0,#8]
        0x08007150:    f44f6370    O.pc    MOV      r3,#0xf00
        0x08007154:    fa93f3a3    ....    RBIT     r3,r3
        0x08007158:    fab3f383    ....    CLZ      r3,r3
        0x0800715c:    f003031f    ....    AND      r3,r3,#0x1f
        0x08007160:    f4226270    ".pb    BIC      r2,r2,#0xf00
        0x08007164:    4099        .@      LSLS     r1,r1,r3
        0x08007166:    4311        .C      ORRS     r1,r1,r2
        0x08007168:    6081        .`      STR      r1,[r0,#8]
        0x0800716a:    f88d7020    .. p    STRB     r7,[sp,#0x20]
        0x0800716e:    f88d4021    ..!@    STRB     r4,[sp,#0x21]
        0x08007172:    f8cd8018    ....    STR      r8,[sp,#0x18]
        0x08007176:    f88d7022    .."p    STRB     r7,[sp,#0x22]
        0x0800717a:    a806        ..      ADD      r0,sp,#0x18
        0x0800717c:    f7fbfd84    ....    BL       LL_EXTI_Init ; 0x8002c88
        0x08007180:    499e        .I      LDR      r1,[pc,#632] ; [0x80073fc] = 0x48000c00
        0x08007182:    2202        ."      MOVS     r2,#2
        0x08007184:    68cb        .h      LDR      r3,[r1,#0xc]
        0x08007186:    fa98f0a8    ....    RBIT     r0,r8
        0x0800718a:    fab0f080    ....    CLZ      r0,r0
        0x0800718e:    ea4f0c40    O.@.    LSL      r12,r0,#1
        0x08007192:    f04f0903    O...    MOV      r9,#3
        0x08007196:    fa09fc0c    ....    LSL      r12,r9,r12
        0x0800719a:    ea23030c    #...    BIC      r3,r3,r12
        0x0800719e:    fa98fca8    ....    RBIT     r12,r8
        0x080071a2:    fabcfc8c    ....    CLZ      r12,r12
        0x080071a6:    ea4f0c4c    O.L.    LSL      r12,r12,#1
        0x080071aa:    fa02f00c    ....    LSL      r0,r2,r12
        0x080071ae:    4318        .C      ORRS     r0,r0,r3
        0x080071b0:    60c8        .`      STR      r0,[r1,#0xc]
        0x080071b2:    6808        .h      LDR      r0,[r1,#0]
        0x080071b4:    fa98f2a8    ....    RBIT     r2,r8
        0x080071b8:    fab2f282    ....    CLZ      r2,r2
        0x080071bc:    0052        R.      LSLS     r2,r2,#1
        0x080071be:    fa09f202    ....    LSL      r2,r9,r2
        0x080071c2:    4390        .C      BICS     r0,r0,r2
        0x080071c4:    fa98f2a8    ....    RBIT     r2,r8
        0x080071c8:    fab2f282    ....    CLZ      r2,r2
        0x080071cc:    0052        R.      LSLS     r2,r2,#1
        0x080071ce:    fa04f202    ....    LSL      r2,r4,r2
        0x080071d2:    4310        .C      ORRS     r0,r0,r2
        0x080071d4:    6008        .`      STR      r0,[r1,#0]
        0x080071d6:    4880        .H      LDR      r0,[pc,#512] ; [0x80073d8] = 0xe000ed0c
        0x080071d8:    6800        .h      LDR      r0,[r0,#0]
        0x080071da:    f3c02002    ...     UBFX     r0,r0,#8,#3
        0x080071de:    f1c00107    ....    RSB      r1,r0,#7
        0x080071e2:    2904        .)      CMP      r1,#4
        0x080071e4:    bf88        ..      IT       HI
        0x080071e6:    2104        .!      MOVHI    r1,#4
        0x080071e8:    1d02        ..      ADDS     r2,r0,#4
        0x080071ea:    2a07        .*      CMP      r2,#7
        0x080071ec:    bf34        4.      ITE      CC
        0x080071ee:    2000        .       MOVCC    r0,#0
        0x080071f0:    1ec0        ..      SUBCS    r0,r0,#3
        0x080071f2:    fa07f101    ....    LSL      r1,r7,r1
        0x080071f6:    1e49        I.      SUBS     r1,r1,#1
        0x080071f8:    f0010104    ....    AND      r1,r1,#4
        0x080071fc:    fa01f000    ....    LSL      r0,r1,r0
        0x08007200:    497f        .I      LDR      r1,[pc,#508] ; [0x8007400] = 0xe000e008
        0x08007202:    0100        ..      LSLS     r0,r0,#4
        0x08007204:    f8810400    ....    STRB     r0,[r1,#0x400]
        0x08007208:    2008        .       MOVS     r0,#8
        0x0800720a:    f04f21e0    O..!    MOV      r1,#0xe000e000
        0x0800720e:    0146        F.      LSLS     r6,r0,#5
        0x08007210:    f8c16100    ...a    STR      r6,[r1,#0x100]
        0x08007214:    940b        ..      STR      r4,[sp,#0x2c]
        0x08007216:    940c        ..      STR      r4,[sp,#0x30]
        0x08007218:    940d        ..      STR      r4,[sp,#0x34]
        0x0800721a:    940a        ..      STR      r4,[sp,#0x28]
        0x0800721c:    940e        ..      STR      r4,[sp,#0x38]
        0x0800721e:    9406        ..      STR      r4,[sp,#0x18]
        0x08007220:    9407        ..      STR      r4,[sp,#0x1c]
        0x08007222:    9408        ..      STR      r4,[sp,#0x20]
        0x08007224:    6ce9        .l      LDR      r1,[r5,#0x4c]
        0x08007226:    4a6b        kJ      LDR      r2,[pc,#428] ; [0x80073d4] = 0x40021000
        0x08007228:    f0410101    A...    ORR      r1,r1,#1
        0x0800722c:    64d1        .d      STR      r1,[r2,#0x4c]
        0x0800722e:    6cd1        .l      LDR      r1,[r2,#0x4c]
        0x08007230:    f0010101    ....    AND      r1,r1,#1
        0x08007234:    9100        ..      STR      r1,[sp,#0]
        0x08007236:    6cd1        .l      LDR      r1,[r2,#0x4c]
        0x08007238:    f0410102    A...    ORR      r1,r1,#2
        0x0800723c:    64d1        .d      STR      r1,[r2,#0x4c]
        0x0800723e:    6cd1        .l      LDR      r1,[r2,#0x4c]
        0x08007240:    9009        ..      STR      r0,[sp,#0x24]
        0x08007242:    f0010102    ....    AND      r1,r1,#2
        0x08007246:    9100        ..      STR      r1,[sp,#0]
        0x08007248:    f04f0a02    O...    MOV      r10,#2
        0x0800724c:    e9cd7a04    ...z    STRD     r7,r10,[sp,#0x10]
        0x08007250:    a904        ..      ADD      r1,sp,#0x10
        0x08007252:    f04f4090    O..@    MOV      r0,#0x48000000
        0x08007256:    f7fbfdf1    ....    BL       LL_GPIO_Init ; 0x8002e3c
        0x0800725a:    e9cda904    ....    STRD     r10,r9,[sp,#0x10]
        0x0800725e:    a904        ..      ADD      r1,sp,#0x10
        0x08007260:    4864        dH      LDR      r0,[pc,#400] ; [0x80073f4] = 0x48000400
        0x08007262:    9408        ..      STR      r4,[sp,#0x20]
        0x08007264:    f7fbfdea    ....    BL       LL_GPIO_Init ; 0x8002e3c
        0x08007268:    2050        P       MOVS     r0,#0x50
        0x0800726a:    e9cd600a    ...`    STRD     r6,r0,[sp,#0x28]
        0x0800726e:    f44f20e0    O..     MOV      r0,#0x70000
        0x08007272:    e9cd040c    ....    STRD     r0,r4,[sp,#0x30]
        0x08007276:    a90a        ..      ADD      r1,sp,#0x28
        0x08007278:    4862        bH      LDR      r0,[pc,#392] ; [0x8007404] = 0x40010200
        0x0800727a:    940e        ..      STR      r4,[sp,#0x38]
        0x0800727c:    f7fbfc78    ..x.    BL       LL_COMP_Init ; 0x8002b70
        0x08007280:    4861        aH      LDR      r0,[pc,#388] ; [0x8007408] = 0x20000004
        0x08007282:    4e62        bN      LDR      r6,[pc,#392] ; [0x800740c] = 0x1e8480
        0x08007284:    6800        .h      LDR      r0,[r0,#0]
        0x08007286:    fbb0f1f6    ....    UDIV     r1,r0,r6
        0x0800728a:    20c8        .       MOVS     r0,#0xc8
        0x0800728c:    4348        HC      MULS     r0,r1,r0
        0x0800728e:    9002        ..      STR      r0,[sp,#8]
        0x08007290:    9001        ..      STR      r0,[sp,#4]
        0x08007292:    d019        ..      BEQ      0x80072c8 ; main + 760
        0x08007294:    f1b04f00    ...O    CMP      r0,#0x80000000
        0x08007298:    f0818141    ..A.    BCS.W    0x800851e ; main + 5454
        0x0800729c:    2800        .(      CMP      r0,#0
        0x0800729e:    bfd8        ..      IT       LE
        0x080072a0:    2000        .       MOVLE    r0,#0
        0x080072a2:    dd05        ..      BLE      0x80072b0 ; main + 736
        0x080072a4:    f0100001    ....    ANDS     r0,r0,#1
        0x080072a8:    d002        ..      BEQ      0x80072b0 ; main + 736
        0x080072aa:    9902        ..      LDR      r1,[sp,#8]
        0x080072ac:    1e49        I.      SUBS     r1,r1,#1
        0x080072ae:    9102        ..      STR      r1,[sp,#8]
        0x080072b0:    9901        ..      LDR      r1,[sp,#4]
        0x080072b2:    1c40        @.      ADDS     r0,r0,#1
        0x080072b4:    1c49        I.      ADDS     r1,r1,#1
        0x080072b6:    4288        .B      CMP      r0,r1
        0x080072b8:    da06        ..      BGE      0x80072c8 ; main + 760
        0x080072ba:    9a02        ..      LDR      r2,[sp,#8]
        0x080072bc:    1c80        ..      ADDS     r0,r0,#2
        0x080072be:    1e52        R.      SUBS     r2,r2,#1
        0x080072c0:    1e52        R.      SUBS     r2,r2,#1
        0x080072c2:    9202        ..      STR      r2,[sp,#8]
        0x080072c4:    4288        .B      CMP      r0,r1
        0x080072c6:    dbf8        ..      BLT      0x80072ba ; main + 746
        0x080072c8:    f8dfa144    ..D.    LDR      r10,[pc,#324] ; [0x8007410] = 0x40010404
        0x080072cc:    f8da0000    ....    LDR      r0,[r10,#0]
        0x080072d0:    f4201000     ...    BIC      r0,r0,#0x200000
        0x080072d4:    f8ca0000    ....    STR      r0,[r10,#0]
        0x080072d8:    f1aa0b04    ....    SUB      r11,r10,#4
        0x080072dc:    f8db0000    ....    LDR      r0,[r11,#0]
        0x080072e0:    f4201000     ...    BIC      r0,r0,#0x200000
        0x080072e4:    f8cb0000    ....    STR      r0,[r11,#0]
        0x080072e8:    940b        ..      STR      r4,[sp,#0x2c]
        0x080072ea:    940c        ..      STR      r4,[sp,#0x30]
        0x080072ec:    940d        ..      STR      r4,[sp,#0x34]
        0x080072ee:    940e        ..      STR      r4,[sp,#0x38]
        0x080072f0:    940a        ..      STR      r4,[sp,#0x28]
        0x080072f2:    9406        ..      STR      r4,[sp,#0x18]
        0x080072f4:    9407        ..      STR      r4,[sp,#0x1c]
        0x080072f6:    9408        ..      STR      r4,[sp,#0x20]
        0x080072f8:    9409        ..      STR      r4,[sp,#0x24]
        0x080072fa:    6ce8        .l      LDR      r0,[r5,#0x4c]
        0x080072fc:    f0400001    @...    ORR      r0,r0,#1
        0x08007300:    64e8        .d      STR      r0,[r5,#0x4c]
        0x08007302:    6ce8        .l      LDR      r0,[r5,#0x4c]
        0x08007304:    a904        ..      ADD      r1,sp,#0x10
        0x08007306:    f0000001    ....    AND      r0,r0,#1
        0x0800730a:    9000        ..      STR      r0,[sp,#0]
        0x0800730c:    2080        .       MOVS     r0,#0x80
        0x0800730e:    e9cd0904    ....    STRD     r0,r9,[sp,#0x10]
        0x08007312:    f04f4090    O..@    MOV      r0,#0x48000000
        0x08007316:    f7fbfd91    ....    BL       LL_GPIO_Init ; 0x8002e3c
        0x0800731a:    2040        @       MOVS     r0,#0x40
        0x0800731c:    e9cd400a    ...@    STRD     r4,r0,[sp,#0x28]
        0x08007320:    f44f20e0    O..     MOV      r0,#0x70000
        0x08007324:    e9cd040c    ....    STRD     r0,r4,[sp,#0x30]
        0x08007328:    a90a        ..      ADD      r1,sp,#0x28
        0x0800732a:    483a        :H      LDR      r0,[pc,#232] ; [0x8007414] = 0x40010204
        0x0800732c:    940e        ..      STR      r4,[sp,#0x38]
        0x0800732e:    f7fbfc1f    ....    BL       LL_COMP_Init ; 0x8002b70
        0x08007332:    4835        5H      LDR      r0,[pc,#212] ; [0x8007408] = 0x20000004
        0x08007334:    6801        .h      LDR      r1,[r0,#0]
        0x08007336:    4835        5H      LDR      r0,[pc,#212] ; [0x800740c] = 0x1e8480
        0x08007338:    fbb1f0f0    ....    UDIV     r0,r1,r0
        0x0800733c:    21c8        .!      MOVS     r1,#0xc8
        0x0800733e:    4348        HC      MULS     r0,r1,r0
        0x08007340:    9002        ..      STR      r0,[sp,#8]
        0x08007342:    9001        ..      STR      r0,[sp,#4]
        0x08007344:    d019        ..      BEQ      0x800737a ; main + 938
        0x08007346:    f1b04f00    ...O    CMP      r0,#0x80000000
        0x0800734a:    f08180ee    ....    BCS.W    0x800852a ; main + 5466
        0x0800734e:    2800        .(      CMP      r0,#0
        0x08007350:    bfd8        ..      IT       LE
        0x08007352:    2000        .       MOVLE    r0,#0
        0x08007354:    dd05        ..      BLE      0x8007362 ; main + 914
        0x08007356:    f0100001    ....    ANDS     r0,r0,#1
        0x0800735a:    d002        ..      BEQ      0x8007362 ; main + 914
        0x0800735c:    9902        ..      LDR      r1,[sp,#8]
        0x0800735e:    1e49        I.      SUBS     r1,r1,#1
        0x08007360:    9102        ..      STR      r1,[sp,#8]
        0x08007362:    9901        ..      LDR      r1,[sp,#4]
        0x08007364:    1c40        @.      ADDS     r0,r0,#1
        0x08007366:    1c49        I.      ADDS     r1,r1,#1
        0x08007368:    4288        .B      CMP      r0,r1
        0x0800736a:    da06        ..      BGE      0x800737a ; main + 938
        0x0800736c:    9a02        ..      LDR      r2,[sp,#8]
        0x0800736e:    1c80        ..      ADDS     r0,r0,#2
        0x08007370:    1e52        R.      SUBS     r2,r2,#1
        0x08007372:    1e52        R.      SUBS     r2,r2,#1
        0x08007374:    9202        ..      STR      r2,[sp,#8]
        0x08007376:    4288        .B      CMP      r0,r1
        0x08007378:    dbf8        ..      BLT      0x800736c ; main + 924
        0x0800737a:    f8da0000    ....    LDR      r0,[r10,#0]
        0x0800737e:    4924        $I      LDR      r1,[pc,#144] ; [0x8007410] = 0x40010404
        0x08007380:    f4200080     ...    BIC      r0,r0,#0x400000
        0x08007384:    6008        .`      STR      r0,[r1,#0]
        0x08007386:    f8db0000    ....    LDR      r0,[r11,#0]
        0x0800738a:    f4200080     ...    BIC      r0,r0,#0x400000
        0x0800738e:    f8cb0000    ....    STR      r0,[r11,#0]
        0x08007392:    9401        ..      STR      r4,[sp,#4]
        0x08007394:    9402        ..      STR      r4,[sp,#8]
        0x08007396:    9403        ..      STR      r4,[sp,#0xc]
        0x08007398:    9405        ..      STR      r4,[sp,#0x14]
        0x0800739a:    9404        ..      STR      r4,[sp,#0x10]
        0x0800739c:    940a        ..      STR      r4,[sp,#0x28]
        0x0800739e:    940b        ..      STR      r4,[sp,#0x2c]
        0x080073a0:    940c        ..      STR      r4,[sp,#0x30]
        0x080073a2:    940d        ..      STR      r4,[sp,#0x34]
        0x080073a4:    6ce8        .l      LDR      r0,[r5,#0x4c]
        0x080073a6:    f0400004    @...    ORR      r0,r0,#4
        0x080073aa:    64e8        .d      STR      r0,[r5,#0x4c]
        0x080073ac:    6ce8        .l      LDR      r0,[r5,#0x4c]
        0x080073ae:    2602        .&      MOVS     r6,#2
        0x080073b0:    f0000004    ....    AND      r0,r0,#4
        0x080073b4:    e9cd6908    ...i    STRD     r6,r9,[sp,#0x20]
        0x080073b8:    9000        ..      STR      r0,[sp,#0]
        0x080073ba:    a908        ..      ADD      r1,sp,#0x20
        0x080073bc:    480c        .H      LDR      r0,[pc,#48] ; [0x80073f0] = 0x48000800
        0x080073be:    f7fbfd3d    ..=.    BL       LL_GPIO_Init ; 0x8002e3c
        0x080073c2:    01f0        ..      LSLS     r0,r6,#7
        0x080073c4:    9001        ..      STR      r0,[sp,#4]
        0x080073c6:    2040        @       MOVS     r0,#0x40
        0x080073c8:    9002        ..      STR      r0,[sp,#8]
        0x080073ca:    f44f20e0    O..     MOV      r0,#0x70000
        0x080073ce:    e9cd0403    ....    STRD     r0,r4,[sp,#0xc]
        0x080073d2:    e021        !.      B        0x8007418 ; main + 1096
    $d
        0x080073d4:    40021000    ...@    DCD    1073876992
        0x080073d8:    e000ed0c    ....    DCD    3758157068
        0x080073dc:    e000e00b    ....    DCD    3758153739
        0x080073e0:    e000e00c    ....    DCD    3758153740
        0x080073e4:    e000e038    8...    DCD    3758153784
        0x080073e8:    e000e004    ....    DCD    3758153732
        0x080073ec:    e000e039    9...    DCD    3758153785
        0x080073f0:    48000800    ...H    DCD    1207961600
        0x080073f4:    48000400    ...H    DCD    1207960576
        0x080073f8:    40010000    ...@    DCD    1073807360
        0x080073fc:    48000c00    ...H    DCD    1207962624
        0x08007400:    e000e008    ....    DCD    3758153736
        0x08007404:    40010200    ...@    DCD    1073807872
        0x08007408:    20000004    ...     DCD    536870916
        0x0800740c:    001e8480    ....    DCD    2000000
        0x08007410:    40010404    ...@    DCD    1073808388
        0x08007414:    40010204    ...@    DCD    1073807876
    $t
        0x08007418:    a901        ..      ADD      r1,sp,#4
        0x0800741a:    48fe        .H      LDR      r0,[pc,#1016] ; [0x8007814] = 0x40010208
        0x0800741c:    9405        ..      STR      r4,[sp,#0x14]
        0x0800741e:    f7fbfba7    ....    BL       LL_COMP_Init ; 0x8002b70
        0x08007422:    48fd        .H      LDR      r0,[pc,#1012] ; [0x8007818] = 0x20000004
        0x08007424:    6801        .h      LDR      r1,[r0,#0]
        0x08007426:    48fd        .H      LDR      r0,[pc,#1012] ; [0x800781c] = 0x1e8480
        0x08007428:    fbb1f0f0    ....    UDIV     r0,r1,r0
        0x0800742c:    21c8        .!      MOVS     r1,#0xc8
        0x0800742e:    4348        HC      MULS     r0,r1,r0
        0x08007430:    9007        ..      STR      r0,[sp,#0x1c]
        0x08007432:    9006        ..      STR      r0,[sp,#0x18]
        0x08007434:    d019        ..      BEQ      0x800746a ; main + 1178
        0x08007436:    f1b04f00    ...O    CMP      r0,#0x80000000
        0x0800743a:    f081807c    ..|.    BCS.W    0x8008536 ; main + 5478
        0x0800743e:    2800        .(      CMP      r0,#0
        0x08007440:    bfd8        ..      IT       LE
        0x08007442:    2000        .       MOVLE    r0,#0
        0x08007444:    dd05        ..      BLE      0x8007452 ; main + 1154
        0x08007446:    f0100001    ....    ANDS     r0,r0,#1
        0x0800744a:    d002        ..      BEQ      0x8007452 ; main + 1154
        0x0800744c:    9907        ..      LDR      r1,[sp,#0x1c]
        0x0800744e:    1e49        I.      SUBS     r1,r1,#1
        0x08007450:    9107        ..      STR      r1,[sp,#0x1c]
        0x08007452:    9906        ..      LDR      r1,[sp,#0x18]
        0x08007454:    1c40        @.      ADDS     r0,r0,#1
        0x08007456:    1c4a        J.      ADDS     r2,r1,#1
        0x08007458:    4290        .B      CMP      r0,r2
        0x0800745a:    da06        ..      BGE      0x800746a ; main + 1178
        0x0800745c:    9907        ..      LDR      r1,[sp,#0x1c]
        0x0800745e:    1c80        ..      ADDS     r0,r0,#2
        0x08007460:    1e49        I.      SUBS     r1,r1,#1
        0x08007462:    1e49        I.      SUBS     r1,r1,#1
        0x08007464:    9107        ..      STR      r1,[sp,#0x1c]
        0x08007466:    4290        .B      CMP      r0,r2
        0x08007468:    dbf8        ..      BLT      0x800745c ; main + 1164
        0x0800746a:    f8da0000    ....    LDR      r0,[r10,#0]
        0x0800746e:    f0205000     ..P    BIC      r0,r0,#0x20000000
        0x08007472:    f8ca0000    ....    STR      r0,[r10,#0]
        0x08007476:    f8db0000    ....    LDR      r0,[r11,#0]
        0x0800747a:    f0205000     ..P    BIC      r0,r0,#0x20000000
        0x0800747e:    f8cb0000    ....    STR      r0,[r11,#0]
        0x08007482:    9409        ..      STR      r4,[sp,#0x24]
        0x08007484:    940a        ..      STR      r4,[sp,#0x28]
        0x08007486:    940b        ..      STR      r4,[sp,#0x2c]
        0x08007488:    940c        ..      STR      r4,[sp,#0x30]
        0x0800748a:    9408        ..      STR      r4,[sp,#0x20]
        0x0800748c:    9404        ..      STR      r4,[sp,#0x10]
        0x0800748e:    9405        ..      STR      r4,[sp,#0x14]
        0x08007490:    9406        ..      STR      r4,[sp,#0x18]
        0x08007492:    9407        ..      STR      r4,[sp,#0x1c]
        0x08007494:    6ce8        .l      LDR      r0,[r5,#0x4c]
        0x08007496:    f0400002    @...    ORR      r0,r0,#2
        0x0800749a:    64e8        .d      STR      r0,[r5,#0x4c]
        0x0800749c:    6ce8        .l      LDR      r0,[r5,#0x4c]
        0x0800749e:    e9cd7902    ...y    STRD     r7,r9,[sp,#8]
        0x080074a2:    f0000002    ....    AND      r0,r0,#2
        0x080074a6:    9000        ..      STR      r0,[sp,#0]
        0x080074a8:    a902        ..      ADD      r1,sp,#8
        0x080074aa:    48dd        .H      LDR      r0,[pc,#884] ; [0x8007820] = 0x48000400
        0x080074ac:    f7fbfcc6    ....    BL       LL_GPIO_Init ; 0x8002e3c
        0x080074b0:    2040        @       MOVS     r0,#0x40
        0x080074b2:    e9cd4008    ...@    STRD     r4,r0,[sp,#0x20]
        0x080074b6:    f44f20e0    O..     MOV      r0,#0x70000
        0x080074ba:    e9cd040a    ....    STRD     r0,r4,[sp,#0x28]
        0x080074be:    a908        ..      ADD      r1,sp,#0x20
        0x080074c0:    48d8        .H      LDR      r0,[pc,#864] ; [0x8007824] = 0x4001020c
        0x080074c2:    940c        ..      STR      r4,[sp,#0x30]
        0x080074c4:    f7fbfb54    ..T.    BL       LL_COMP_Init ; 0x8002b70
        0x080074c8:    48d3        .H      LDR      r0,[pc,#844] ; [0x8007818] = 0x20000004
        0x080074ca:    6801        .h      LDR      r1,[r0,#0]
        0x080074cc:    48d3        .H      LDR      r0,[pc,#844] ; [0x800781c] = 0x1e8480
        0x080074ce:    fbb1f1f0    ....    UDIV     r1,r1,r0
        0x080074d2:    20c8        .       MOVS     r0,#0xc8
        0x080074d4:    4348        HC      MULS     r0,r1,r0
        0x080074d6:    900d        ..      STR      r0,[sp,#0x34]
        0x080074d8:    9001        ..      STR      r0,[sp,#4]
        0x080074da:    d019        ..      BEQ      0x8007510 ; main + 1344
        0x080074dc:    f1b04f00    ...O    CMP      r0,#0x80000000
        0x080074e0:    f081802f    ../.    BCS.W    0x8008542 ; main + 5490
        0x080074e4:    2800        .(      CMP      r0,#0
        0x080074e6:    bfd8        ..      IT       LE
        0x080074e8:    2000        .       MOVLE    r0,#0
        0x080074ea:    dd05        ..      BLE      0x80074f8 ; main + 1320
        0x080074ec:    f0100001    ....    ANDS     r0,r0,#1
        0x080074f0:    d002        ..      BEQ      0x80074f8 ; main + 1320
        0x080074f2:    990d        ..      LDR      r1,[sp,#0x34]
        0x080074f4:    1e49        I.      SUBS     r1,r1,#1
        0x080074f6:    910d        ..      STR      r1,[sp,#0x34]
        0x080074f8:    9901        ..      LDR      r1,[sp,#4]
        0x080074fa:    1c40        @.      ADDS     r0,r0,#1
        0x080074fc:    1c49        I.      ADDS     r1,r1,#1
        0x080074fe:    4288        .B      CMP      r0,r1
        0x08007500:    da06        ..      BGE      0x8007510 ; main + 1344
        0x08007502:    9a0d        ..      LDR      r2,[sp,#0x34]
        0x08007504:    1c80        ..      ADDS     r0,r0,#2
        0x08007506:    1e52        R.      SUBS     r2,r2,#1
        0x08007508:    1e52        R.      SUBS     r2,r2,#1
        0x0800750a:    920d        ..      STR      r2,[sp,#0x34]
        0x0800750c:    4288        .B      CMP      r0,r1
        0x0800750e:    dbf8        ..      BLT      0x8007502 ; main + 1330
        0x08007510:    f8da0000    ....    LDR      r0,[r10,#0]
        0x08007514:    49c4        .I      LDR      r1,[pc,#784] ; [0x8007828] = 0x40010404
        0x08007516:    f0204080     ..@    BIC      r0,r0,#0x40000000
        0x0800751a:    6008        .`      STR      r0,[r1,#0]
        0x0800751c:    f8db0000    ....    LDR      r0,[r11,#0]
        0x08007520:    1f09        ..      SUBS     r1,r1,#4
        0x08007522:    f0204080     ..@    BIC      r0,r0,#0x40000000
        0x08007526:    6008        .`      STR      r0,[r1,#0]
        0x08007528:    9401        ..      STR      r4,[sp,#4]
        0x0800752a:    9400        ..      STR      r4,[sp,#0]
        0x0800752c:    9402        ..      STR      r4,[sp,#8]
        0x0800752e:    9403        ..      STR      r4,[sp,#0xc]
        0x08007530:    9406        ..      STR      r4,[sp,#0x18]
        0x08007532:    6ce8        .l      LDR      r0,[r5,#0x4c]
        0x08007534:    f4403080    @..0    ORR      r0,r0,#0x10000
        0x08007538:    64e8        .d      STR      r0,[r5,#0x4c]
        0x0800753a:    6ce8        .l      LDR      r0,[r5,#0x4c]
        0x0800753c:    f8df92f0    ....    LDR      r9,[pc,#752] ; [0x8007830] = 0x50000800
        0x08007540:    f4003080    ...0    AND      r0,r0,#0x10000
        0x08007544:    9007        ..      STR      r0,[sp,#0x1c]
        0x08007546:    f8dfa2e4    ....    LDR      r10,[pc,#740] ; [0x800782c] = 0x2110001
        0x0800754a:    f8d9003c    ..<.    LDR      r0,[r9,#0x3c]
        0x0800754e:    f4207000     ..p    BIC      r0,r0,#0x200
        0x08007552:    f8c9003c    ..<.    STR      r0,[r9,#0x3c]
        0x08007556:    466a        jF      MOV      r2,sp
        0x08007558:    4651        QF      MOV      r1,r10
        0x0800755a:    4648        HF      MOV      r0,r9
        0x0800755c:    e9cd6704    ...g    STRD     r6,r7,[sp,#0x10]
        0x08007560:    f7fbfb26    ..&.    BL       LL_DAC_Init ; 0x8002bb0
        0x08007564:    f8d90000    ....    LDR      r0,[r9,#0]
        0x08007568:    f0200002     ...    BIC      r0,r0,#2
        0x0800756c:    f8c90000    ....    STR      r0,[r9,#0]
        0x08007570:    f8d9003c    ..<.    LDR      r0,[r9,#0x3c]
        0x08007574:    f4207080     ..p    BIC      r0,r0,#0x100
        0x08007578:    f8c9003c    ..<.    STR      r0,[r9,#0x3c]
        0x0800757c:    9401        ..      STR      r4,[sp,#4]
        0x0800757e:    9400        ..      STR      r4,[sp,#0]
        0x08007580:    9402        ..      STR      r4,[sp,#8]
        0x08007582:    9403        ..      STR      r4,[sp,#0xc]
        0x08007584:    9406        ..      STR      r4,[sp,#0x18]
        0x08007586:    6ce8        .l      LDR      r0,[r5,#0x4c]
        0x08007588:    f4402080    @..     ORR      r0,r0,#0x40000
        0x0800758c:    64e8        .d      STR      r0,[r5,#0x4c]
        0x0800758e:    6ce8        .l      LDR      r0,[r5,#0x4c]
        0x08007590:    f8df92a0    ....    LDR      r9,[pc,#672] ; [0x8007834] = 0x50001000
        0x08007594:    f4002080    ...     AND      r0,r0,#0x40000
        0x08007598:    9007        ..      STR      r0,[sp,#0x1c]
        0x0800759a:    f8d9003c    ..<.    LDR      r0,[r9,#0x3c]
        0x0800759e:    f4207000     ..p    BIC      r0,r0,#0x200
        0x080075a2:    f8c9003c    ..<.    STR      r0,[r9,#0x3c]
        0x080075a6:    466a        jF      MOV      r2,sp
        0x080075a8:    4651        QF      MOV      r1,r10
        0x080075aa:    4648        HF      MOV      r0,r9
        0x080075ac:    e9cd6704    ...g    STRD     r6,r7,[sp,#0x10]
        0x080075b0:    f7fbfafe    ....    BL       LL_DAC_Init ; 0x8002bb0
        0x080075b4:    f8d90000    ....    LDR      r0,[r9,#0]
        0x080075b8:    f0200002     ...    BIC      r0,r0,#2
        0x080075bc:    f8c90000    ....    STR      r0,[r9,#0]
        0x080075c0:    f8d9003c    ..<.    LDR      r0,[r9,#0x3c]
        0x080075c4:    f4207080     ..p    BIC      r0,r0,#0x100
        0x080075c8:    f8c9003c    ..<.    STR      r0,[r9,#0x3c]
        0x080075cc:    499a        .I      LDR      r1,[pc,#616] ; [0x8007838] = 0x354200f2
        0x080075ce:    f8d9003c    ..<.    LDR      r0,[r9,#0x3c]
        0x080075d2:    f0207000     ..p    BIC      r0,r0,#0x2000000
        0x080075d6:    f8c9003c    ..<.    STR      r0,[r9,#0x3c]
        0x080075da:    466a        jF      MOV      r2,sp
        0x080075dc:    4648        HF      MOV      r0,r9
        0x080075de:    f7fbfae7    ....    BL       LL_DAC_Init ; 0x8002bb0
        0x080075e2:    f8d90000    ....    LDR      r0,[r9,#0]
        0x080075e6:    f4203000     ..0    BIC      r0,r0,#0x20000
        0x080075ea:    f8c90000    ....    STR      r0,[r9,#0]
        0x080075ee:    f8d9003c    ..<.    LDR      r0,[r9,#0x3c]
        0x080075f2:    f0207080     ..p    BIC      r0,r0,#0x1000000
        0x080075f6:    f8c9003c    ..<.    STR      r0,[r9,#0x3c]
        0x080075fa:    f7fcfa4b    ..K.    BL       MX_ADC1_Init ; 0x8003a94
        0x080075fe:    9406        ..      STR      r4,[sp,#0x18]
        0x08007600:    9407        ..      STR      r4,[sp,#0x1c]
        0x08007602:    9408        ..      STR      r4,[sp,#0x20]
        0x08007604:    9400        ..      STR      r4,[sp,#0]
        0x08007606:    9401        ..      STR      r4,[sp,#4]
        0x08007608:    9402        ..      STR      r4,[sp,#8]
        0x0800760a:    9403        ..      STR      r4,[sp,#0xc]
        0x0800760c:    9404        ..      STR      r4,[sp,#0x10]
        0x0800760e:    9405        ..      STR      r4,[sp,#0x14]
        0x08007610:    940b        ..      STR      r4,[sp,#0x2c]
        0x08007612:    940c        ..      STR      r4,[sp,#0x30]
        0x08007614:    940d        ..      STR      r4,[sp,#0x34]
        0x08007616:    940a        ..      STR      r4,[sp,#0x28]
        0x08007618:    9410        ..      STR      r4,[sp,#0x40]
        0x0800761a:    9411        ..      STR      r4,[sp,#0x44]
        0x0800761c:    9412        ..      STR      r4,[sp,#0x48]
        0x0800761e:    9413        ..      STR      r4,[sp,#0x4c]
        0x08007620:    f8d50088    ....    LDR      r0,[r5,#0x88]
        0x08007624:    f0205040     .@P    BIC      r0,r0,#0x30000000
        0x08007628:    f0405000    @..P    ORR      r0,r0,#0x20000000
        0x0800762c:    f8c50088    ....    STR      r0,[r5,#0x88]
        0x08007630:    6ce8        .l      LDR      r0,[r5,#0x4c]
        0x08007632:    f4405000    @..P    ORR      r0,r0,#0x2000
        0x08007636:    64e8        .d      STR      r0,[r5,#0x4c]
        0x08007638:    6ce8        .l      LDR      r0,[r5,#0x4c]
        0x0800763a:    f4005000    ...P    AND      r0,r0,#0x2000
        0x0800763e:    9009        ..      STR      r0,[sp,#0x24]
        0x08007640:    6ce8        .l      LDR      r0,[r5,#0x4c]
        0x08007642:    f0400004    @...    ORR      r0,r0,#4
        0x08007646:    64e8        .d      STR      r0,[r5,#0x4c]
        0x08007648:    6ce8        .l      LDR      r0,[r5,#0x4c]
        0x0800764a:    f0000004    ....    AND      r0,r0,#4
        0x0800764e:    9009        ..      STR      r0,[sp,#0x24]
        0x08007650:    6ce8        .l      LDR      r0,[r5,#0x4c]
        0x08007652:    f0400001    @...    ORR      r0,r0,#1
        0x08007656:    64e8        .d      STR      r0,[r5,#0x4c]
        0x08007658:    6ce8        .l      LDR      r0,[r5,#0x4c]
        0x0800765a:    a90e        ..      ADD      r1,sp,#0x38
        0x0800765c:    f0000001    ....    AND      r0,r0,#1
        0x08007660:    9009        ..      STR      r0,[sp,#0x24]
        0x08007662:    2008        .       MOVS     r0,#8
        0x08007664:    900e        ..      STR      r0,[sp,#0x38]
        0x08007666:    2003        .       MOVS     r0,#3
        0x08007668:    900f        ..      STR      r0,[sp,#0x3c]
        0x0800766a:    4874        tH      LDR      r0,[pc,#464] ; [0x800783c] = 0x48000800
        0x0800766c:    f7fbfbe6    ....    BL       LL_GPIO_Init ; 0x8002e3c
        0x08007670:    2003        .       MOVS     r0,#3
        0x08007672:    e9cd600e    ...`    STRD     r6,r0,[sp,#0x38]
        0x08007676:    a90e        ..      ADD      r1,sp,#0x38
        0x08007678:    9412        ..      STR      r4,[sp,#0x48]
        0x0800767a:    f04f4090    O..@    MOV      r0,#0x48000000
        0x0800767e:    f7fbfbdd    ....    BL       LL_GPIO_Init ; 0x8002e3c
        0x08007682:    f04f0980    O...    MOV      r9,#0x80
        0x08007686:    2003        .       MOVS     r0,#3
        0x08007688:    e9cd900e    ....    STRD     r9,r0,[sp,#0x38]
        0x0800768c:    a90e        ..      ADD      r1,sp,#0x38
        0x0800768e:    9412        ..      STR      r4,[sp,#0x48]
        0x08007690:    f04f4090    O..@    MOV      r0,#0x48000000
        0x08007694:    f7fbfbd2    ....    BL       LL_GPIO_Init ; 0x8002e3c
        0x08007698:    4869        iH      LDR      r0,[pc,#420] ; [0x8007840] = 0xe000ed0c
        0x0800769a:    6800        .h      LDR      r0,[r0,#0]
        0x0800769c:    f3c02102    ...!    UBFX     r1,r0,#8,#3
        0x080076a0:    f1c10007    ....    RSB      r0,r1,#7
        0x080076a4:    2804        .(      CMP      r0,#4
        0x080076a6:    bf88        ..      IT       HI
        0x080076a8:    2004        .       MOVHI    r0,#4
        0x080076aa:    1d0a        ..      ADDS     r2,r1,#4
        0x080076ac:    2a07        .*      CMP      r2,#7
        0x080076ae:    bf34        4.      ITE      CC
        0x080076b0:    2200        ."      MOVCC    r2,#0
        0x080076b2:    1eca        ..      SUBCS    r2,r1,#3
        0x080076b4:    2101        .!      MOVS     r1,#1
        0x080076b6:    fa01f000    ....    LSL      r0,r1,r0
        0x080076ba:    1e40        @.      SUBS     r0,r0,#1
        0x080076bc:    f0000005    ....    AND      r0,r0,#5
        0x080076c0:    4960        `I      LDR      r1,[pc,#384] ; [0x8007844] = 0xe000e012
        0x080076c2:    4090        .@      LSLS     r0,r0,r2
        0x080076c4:    0100        ..      LSLS     r0,r0,#4
        0x080076c6:    f8810400    ....    STRB     r0,[r1,#0x400]
        0x080076ca:    f04f21e0    O..!    MOV      r1,#0xe000e000
        0x080076ce:    f44f2080    O..     MOV      r0,#0x40000
        0x080076d2:    f8c10100    ....    STR      r0,[r1,#0x100]
        0x080076d6:    f44f4a00    O..J    MOV      r10,#0x8000
        0x080076da:    e9cd4a06    ...J    STRD     r4,r10,[sp,#0x18]
        0x080076de:    4f5a        ZO      LDR      r7,[pc,#360] ; [0x8007848] = 0x50000100
        0x080076e0:    a906        ..      ADD      r1,sp,#0x18
        0x080076e2:    4638        8F      MOV      r0,r7
        0x080076e4:    9408        ..      STR      r4,[sp,#0x20]
        0x080076e6:    f7fbf9f4    ....    BL       LL_ADC_Init ; 0x8002ad2
        0x080076ea:    9401        ..      STR      r4,[sp,#4]
        0x080076ec:    9402        ..      STR      r4,[sp,#8]
        0x080076ee:    9403        ..      STR      r4,[sp,#0xc]
        0x080076f0:    9404        ..      STR      r4,[sp,#0x10]
        0x080076f2:    4669        iF      MOV      r1,sp
        0x080076f4:    4638        8F      MOV      r0,r7
        0x080076f6:    9405        ..      STR      r4,[sp,#0x14]
        0x080076f8:    f7fbfa04    ....    BL       LL_ADC_REG_Init ; 0x8002b04
        0x080076fc:    f8d700c0    ....    LDR      r0,[r7,#0xc0]
        0x08007700:    f36f000d    o...    BFC      r0,#0,#14
        0x08007704:    f8c700c0    ....    STR      r0,[r7,#0xc0]
        0x08007708:    6938        8i      LDR      r0,[r7,#0x10]
        0x0800770a:    f4203080     ..0    BIC      r0,r0,#0x10000
        0x0800770e:    6138        8a      STR      r0,[r7,#0x10]
        0x08007710:    6938        8i      LDR      r0,[r7,#0x10]
        0x08007712:    f0200003     ...    BIC      r0,r0,#3
        0x08007716:    f4206080     ..`    BIC      r0,r0,#0x400
        0x0800771a:    6138        8a      STR      r0,[r7,#0x10]
        0x0800771c:    f8cd9028    ..(.    STR      r9,[sp,#0x28]
        0x08007720:    e9cd640b    ...d    STRD     r6,r4,[sp,#0x2c]
        0x08007724:    a90a        ..      ADD      r1,sp,#0x28
        0x08007726:    4638        8F      MOV      r0,r7
        0x08007728:    940d        ..      STR      r4,[sp,#0x34]
        0x0800772a:    f7fbf9a9    ....    BL       LL_ADC_INJ_Init ; 0x8002a80
        0x0800772e:    68f8        .h      LDR      r0,[r7,#0xc]
        0x08007730:    f4201000     ...    BIC      r0,r0,#0x200000
        0x08007734:    f0204000     ..@    BIC      r0,r0,#0x80000000
        0x08007738:    f0404000    @..@    ORR      r0,r0,#0x80000000
        0x0800773c:    60f8        .`      STR      r0,[r7,#0xc]
        0x0800773e:    6cf8        .l      LDR      r0,[r7,#0x4c]
        0x08007740:    f42070c0     ..p    BIC      r0,r0,#0x180
        0x08007744:    f0400080    @...    ORR      r0,r0,#0x80
        0x08007748:    64f8        .d      STR      r0,[r7,#0x4c]
        0x0800774a:    68b8        .h      LDR      r0,[r7,#8]
        0x0800774c:    f020003f     .?.    BIC      r0,r0,#0x3f
        0x08007750:    f0204020     . @    BIC      r0,r0,#0xa0000000
        0x08007754:    60b8        .`      STR      r0,[r7,#8]
        0x08007756:    68b8        .h      LDR      r0,[r7,#8]
        0x08007758:    f020003f     .?.    BIC      r0,r0,#0x3f
        0x0800775c:    f0204000     ..@    BIC      r0,r0,#0x80000000
        0x08007760:    f0405080    @..P    ORR      r0,r0,#0x10000000
        0x08007764:    60b8        .`      STR      r0,[r7,#8]
        0x08007766:    482c        ,H      LDR      r0,[pc,#176] ; [0x8007818] = 0x20000004
        0x08007768:    4938        8I      LDR      r1,[pc,#224] ; [0x800784c] = 0x30d40
        0x0800776a:    6800        .h      LDR      r0,[r0,#0]
        0x0800776c:    fbb0f0f1    ....    UDIV     r0,r0,r1
        0x08007770:    eb000080    ....    ADD      r0,r0,r0,LSL #2
        0x08007774:    4936        6I      LDR      r1,[pc,#216] ; [0x8007850] = 0xcccccccd
        0x08007776:    0080        ..      LSLS     r0,r0,#2
        0x08007778:    fba11000    ....    UMULL    r1,r0,r1,r0
        0x0800777c:    08c0        ..      LSRS     r0,r0,#3
        0x0800777e:    d003        ..      BEQ      0x8007788 ; main + 1976
        0x08007780:    f1b04f00    ...O    CMP      r0,#0x80000000
        0x08007784:    f08086e3    ....    BCS.W    0x800854e ; main + 5502
        0x08007788:    482f        /H      LDR      r0,[pc,#188] ; [0x8007848] = 0x50000100
        0x0800778a:    f8501f4c    P.L.    LDR      r1,[r0,#0x4c]!
        0x0800778e:    f4215178    !.xQ    BIC      r1,r1,#0x3e00
        0x08007792:    f4416100    A..a    ORR      r1,r1,#0x800
        0x08007796:    6001        .`      STR      r1,[r0,#0]
        0x08007798:    492e        .I      LDR      r1,[pc,#184] ; [0x8007854] = 0x50000114
        0x0800779a:    680a        .h      LDR      r2,[r1,#0]
        0x0800779c:    f42242e0    "..B    BIC      r2,r2,#0x7000
        0x080077a0:    600a        .`      STR      r2,[r1,#0]
        0x080077a2:    6e42        Bn      LDR      r2,[r0,#0x64]
        0x080077a4:    f0220210    "...    BIC      r2,r2,#0x10
        0x080077a8:    6642        Bf      STR      r2,[r0,#0x64]
        0x080077aa:    6802        .h      LDR      r2,[r0,#0]
        0x080077ac:    f4222278    ".x"    BIC      r2,r2,#0xf8000
        0x080077b0:    f4422290    B.."    ORR      r2,r2,#0x48000
        0x080077b4:    6002        .`      STR      r2,[r0,#0]
        0x080077b6:    680a        .h      LDR      r2,[r1,#0]
        0x080077b8:    f0225260    ".`R    BIC      r2,r2,#0x38000000
        0x080077bc:    600a        .`      STR      r2,[r1,#0]
        0x080077be:    6e42        Bn      LDR      r2,[r0,#0x64]
        0x080077c0:    f4227200    "..r    BIC      r2,r2,#0x200
        0x080077c4:    6642        Bf      STR      r2,[r0,#0x64]
        0x080077c6:    6802        .h      LDR      r2,[r0,#0]
        0x080077c8:    f0227278    ".xr    BIC      r2,r2,#0x3e00000
        0x080077cc:    f4420280    B...    ORR      r2,r2,#0x400000
        0x080077d0:    6002        .`      STR      r2,[r0,#0]
        0x080077d2:    680a        .h      LDR      r2,[r1,#0]
        0x080077d4:    f42272e0    "..r    BIC      r2,r2,#0x1c0
        0x080077d8:    600a        .`      STR      r2,[r1,#0]
        0x080077da:    6e41        An      LDR      r1,[r0,#0x64]
        0x080077dc:    f0210104    !...    BIC      r1,r1,#4
        0x080077e0:    6641        Af      STR      r1,[r0,#0x64]
        0x080077e2:    9400        ..      STR      r4,[sp,#0]
        0x080077e4:    481c        .H      LDR      r0,[pc,#112] ; [0x8007858] = 0x40021088
        0x080077e6:    9401        ..      STR      r4,[sp,#4]
        0x080077e8:    9405        ..      STR      r4,[sp,#0x14]
        0x080077ea:    9402        ..      STR      r4,[sp,#8]
        0x080077ec:    9403        ..      STR      r4,[sp,#0xc]
        0x080077ee:    9404        ..      STR      r4,[sp,#0x10]
        0x080077f0:    9406        ..      STR      r4,[sp,#0x18]
        0x080077f2:    940a        ..      STR      r4,[sp,#0x28]
        0x080077f4:    6800        .h      LDR      r0,[r0,#0]
        0x080077f6:    4918        .I      LDR      r1,[pc,#96] ; [0x8007858] = 0x40021088
        0x080077f8:    f4205040     .@P    BIC      r0,r0,#0x3000
        0x080077fc:    6008        .`      STR      r0,[r1,#0]
        0x080077fe:    6ce8        .l      LDR      r0,[r5,#0x4c]
        0x08007800:    f0400001    @...    ORR      r0,r0,#1
        0x08007804:    64e8        .d      STR      r0,[r5,#0x4c]
        0x08007806:    6ce8        .l      LDR      r0,[r5,#0x4c]
        0x08007808:    f0000001    ....    AND      r0,r0,#1
        0x0800780c:    9007        ..      STR      r0,[sp,#0x1c]
        0x0800780e:    6ce8        .l      LDR      r0,[r5,#0x4c]
        0x08007810:    e024        $.      B        0x800785c ; main + 2188
    $d
        0x08007812:    0000        ..      DCW    0
        0x08007814:    40010208    ...@    DCD    1073807880
        0x08007818:    20000004    ...     DCD    536870916
        0x0800781c:    001e8480    ....    DCD    2000000
        0x08007820:    48000400    ...H    DCD    1207960576
        0x08007824:    4001020c    ...@    DCD    1073807884
        0x08007828:    40010404    ...@    DCD    1073808388
        0x0800782c:    02110001    ....    DCD    34668545
        0x08007830:    50000800    ...P    DCD    1342179328
        0x08007834:    50001000    ...P    DCD    1342181376
        0x08007838:    354200f2    ..B5    DCD    893518066
        0x0800783c:    48000800    ...H    DCD    1207961600
        0x08007840:    e000ed0c    ....    DCD    3758157068
        0x08007844:    e000e012    ....    DCD    3758153746
        0x08007848:    50000100    ...P    DCD    1342177536
        0x0800784c:    00030d40    @...    DCD    200000
        0x08007850:    cccccccd    ....    DCD    3435973837
        0x08007854:    50000114    ...P    DCD    1342177556
        0x08007858:    40021088    ...@    DCD    1073877128
    $t
        0x0800785c:    f0400002    @...    ORR      r0,r0,#2
        0x08007860:    64e8        .d      STR      r0,[r5,#0x4c]
        0x08007862:    6ce8        .l      LDR      r0,[r5,#0x4c]
        0x08007864:    2701        .'      MOVS     r7,#1
        0x08007866:    f0000002    ....    AND      r0,r0,#2
        0x0800786a:    970b        ..      STR      r7,[sp,#0x2c]
        0x0800786c:    9609        ..      STR      r6,[sp,#0x24]
        0x0800786e:    e9cd0a07    ....    STRD     r0,r10,[sp,#0x1c]
        0x08007872:    e9cd780c    ...x    STRD     r7,r8,[sp,#0x30]
        0x08007876:    a908        ..      ADD      r1,sp,#0x20
        0x08007878:    f04f4090    O..@    MOV      r0,#0x48000000
        0x0800787c:    f7fbfade    ....    BL       LL_GPIO_Init ; 0x8002e3c
        0x08007880:    e9cd9608    ....    STRD     r9,r6,[sp,#0x20]
        0x08007884:    e9cd470a    ...G    STRD     r4,r7,[sp,#0x28]
        0x08007888:    e9cd780c    ...x    STRD     r7,r8,[sp,#0x30]
        0x0800788c:    a908        ..      ADD      r1,sp,#0x20
        0x0800788e:    48fc        .H      LDR      r0,[pc,#1008] ; [0x8007c80] = 0x48000400
        0x08007890:    f7fbfad4    ....    BL       LL_GPIO_Init ; 0x8002e3c
        0x08007894:    6da8        .m      LDR      r0,[r5,#0x58]
        0x08007896:    f4401000    @...    ORR      r0,r0,#0x200000
        0x0800789a:    65a8        .e      STR      r0,[r5,#0x58]
        0x0800789c:    6da8        .m      LDR      r0,[r5,#0x58]
        0x0800789e:    49fa        .I      LDR      r1,[pc,#1000] ; [0x8007c88] = 0x40020024
        0x080078a0:    f4001000    ....    AND      r0,r0,#0x200000
        0x080078a4:    9007        ..      STR      r0,[sp,#0x1c]
        0x080078a6:    48f7        .H      LDR      r0,[pc,#988] ; [0x8007c84] = 0x40020400
        0x080078a8:    f8d11800    ....    LDR      r1,[r1,#0x800]
        0x080078ac:    4af6        .J      LDR      r2,[pc,#984] ; [0x8007c88] = 0x40020024
        0x080078ae:    f02101ff    !...    BIC      r1,r1,#0xff
        0x080078b2:    f0410110    A...    ORR      r1,r1,#0x10
        0x080078b6:    f8c21800    ....    STR      r1,[r2,#0x800]
        0x080078ba:    49f4        .I      LDR      r1,[pc,#976] ; [0x8007c8c] = 0x80089d6
        0x080078bc:    784a        Jx      LDRB     r2,[r1,#1]
        0x080078be:    5882        .X      LDR      r2,[r0,r2]
        0x080078c0:    784b        Kx      LDRB     r3,[r1,#1]
        0x080078c2:    f0220210    "...    BIC      r2,r2,#0x10
        0x080078c6:    f4224280    "..B    BIC      r2,r2,#0x4000
        0x080078ca:    50c2        .P      STR      r2,[r0,r3]
        0x080078cc:    784a        Jx      LDRB     r2,[r1,#1]
        0x080078ce:    5882        .X      LDR      r2,[r0,r2]
        0x080078d0:    784b        Kx      LDRB     r3,[r1,#1]
        0x080078d2:    f4225240    ".@R    BIC      r2,r2,#0x3000
        0x080078d6:    50c2        .P      STR      r2,[r0,r3]
        0x080078d8:    784a        Jx      LDRB     r2,[r1,#1]
        0x080078da:    5882        .X      LDR      r2,[r0,r2]
        0x080078dc:    784b        Kx      LDRB     r3,[r1,#1]
        0x080078de:    f0420220    B. .    ORR      r2,r2,#0x20
        0x080078e2:    50c2        .P      STR      r2,[r0,r3]
        0x080078e4:    784a        Jx      LDRB     r2,[r1,#1]
        0x080078e6:    5882        .X      LDR      r2,[r0,r2]
        0x080078e8:    784b        Kx      LDRB     r3,[r1,#1]
        0x080078ea:    f0220240    ".@.    BIC      r2,r2,#0x40
        0x080078ee:    50c2        .P      STR      r2,[r0,r3]
        0x080078f0:    784a        Jx      LDRB     r2,[r1,#1]
        0x080078f2:    5882        .X      LDR      r2,[r0,r2]
        0x080078f4:    784b        Kx      LDRB     r3,[r1,#1]
        0x080078f6:    f0420280    B...    ORR      r2,r2,#0x80
        0x080078fa:    50c2        .P      STR      r2,[r0,r3]
        0x080078fc:    784a        Jx      LDRB     r2,[r1,#1]
        0x080078fe:    5882        .X      LDR      r2,[r0,r2]
        0x08007900:    784b        Kx      LDRB     r3,[r1,#1]
        0x08007902:    f4227240    ".@r    BIC      r2,r2,#0x300
        0x08007906:    50c2        .P      STR      r2,[r0,r3]
        0x08007908:    784a        Jx      LDRB     r2,[r1,#1]
        0x0800790a:    5882        .X      LDR      r2,[r0,r2]
        0x0800790c:    7849        Ix      LDRB     r1,[r1,#1]
        0x0800790e:    f4226240    ".@b    BIC      r2,r2,#0xc00
        0x08007912:    5042        BP      STR      r2,[r0,r1]
        0x08007914:    48de        .H      LDR      r0,[pc,#888] ; [0x8007c90] = 0x30a0a7fb
        0x08007916:    4fdf        .O      LDR      r7,[pc,#892] ; [0x8007c94] = 0x40005400
        0x08007918:    e9cd4000    ...@    STRD     r4,r0,[sp,#0]
        0x0800791c:    9402        ..      STR      r4,[sp,#8]
        0x0800791e:    9403        ..      STR      r4,[sp,#0xc]
        0x08007920:    9404        ..      STR      r4,[sp,#0x10]
        0x08007922:    9405        ..      STR      r4,[sp,#0x14]
        0x08007924:    4669        iF      MOV      r1,sp
        0x08007926:    4638        8F      MOV      r0,r7
        0x08007928:    9406        ..      STR      r4,[sp,#0x18]
        0x0800792a:    f7fbfb30    ..0.    BL       LL_I2C_Init ; 0x8002f8e
        0x0800792e:    6878        xh      LDR      r0,[r7,#4]
        0x08007930:    f0407000    @..p    ORR      r0,r0,#0x2000000
        0x08007934:    6078        x`      STR      r0,[r7,#4]
        0x08007936:    68f8        .h      LDR      r0,[r7,#0xc]
        0x08007938:    f36f004a    o.J.    BFC      r0,#1,#10
        0x0800793c:    60f8        .`      STR      r0,[r7,#0xc]
        0x0800793e:    68f8        .h      LDR      r0,[r7,#0xc]
        0x08007940:    f4204000     ..@    BIC      r0,r0,#0x8000
        0x08007944:    60f8        .`      STR      r0,[r7,#0xc]
        0x08007946:    6838        8h      LDR      r0,[r7,#0]
        0x08007948:    f4202000     ..     BIC      r0,r0,#0x80000
        0x0800794c:    6038        8`      STR      r0,[r7,#0]
        0x0800794e:    6838        8h      LDR      r0,[r7,#0]
        0x08007950:    f4203000     ..0    BIC      r0,r0,#0x20000
        0x08007954:    6038        8`      STR      r0,[r7,#0]
        0x08007956:    f7fcf9f5    ....    BL       MX_TIM1_Init ; 0x8003d44
        0x0800795a:    9403        ..      STR      r4,[sp,#0xc]
        0x0800795c:    9404        ..      STR      r4,[sp,#0x10]
        0x0800795e:    9405        ..      STR      r4,[sp,#0x14]
        0x08007960:    9408        ..      STR      r4,[sp,#0x20]
        0x08007962:    9409        ..      STR      r4,[sp,#0x24]
        0x08007964:    940a        ..      STR      r4,[sp,#0x28]
        0x08007966:    9402        ..      STR      r4,[sp,#8]
        0x08007968:    9406        ..      STR      r4,[sp,#0x18]
        0x0800796a:    940d        ..      STR      r4,[sp,#0x34]
        0x0800796c:    940e        ..      STR      r4,[sp,#0x38]
        0x0800796e:    940f        ..      STR      r4,[sp,#0x3c]
        0x08007970:    940b        ..      STR      r4,[sp,#0x2c]
        0x08007972:    940c        ..      STR      r4,[sp,#0x30]
        0x08007974:    9412        ..      STR      r4,[sp,#0x48]
        0x08007976:    9413        ..      STR      r4,[sp,#0x4c]
        0x08007978:    9414        ..      STR      r4,[sp,#0x50]
        0x0800797a:    6e28        (n      LDR      r0,[r5,#0x60]
        0x0800797c:    f4405000    @..P    ORR      r0,r0,#0x2000
        0x08007980:    6628        (f      STR      r0,[r5,#0x60]
        0x08007982:    6e28        (n      LDR      r0,[r5,#0x60]
        0x08007984:    f4005000    ...P    AND      r0,r0,#0x2000
        0x08007988:    9000        ..      STR      r0,[sp,#0]
        0x0800798a:    6ce8        .l      LDR      r0,[r5,#0x4c]
        0x0800798c:    f0400004    @...    ORR      r0,r0,#4
        0x08007990:    64e8        .d      STR      r0,[r5,#0x4c]
        0x08007992:    6ce8        .l      LDR      r0,[r5,#0x4c]
        0x08007994:    f8cd8054    ..T.    STR      r8,[sp,#0x54]
        0x08007998:    f0000004    ....    AND      r0,r0,#4
        0x0800799c:    9000        ..      STR      r0,[sp,#0]
        0x0800799e:    2040        @       MOVS     r0,#0x40
        0x080079a0:    e9cd0610    ....    STRD     r0,r6,[sp,#0x40]
        0x080079a4:    a910        ..      ADD      r1,sp,#0x40
        0x080079a6:    48bc        .H      LDR      r0,[pc,#752] ; [0x8007c98] = 0x48000800
        0x080079a8:    f7fbfa48    ..H.    BL       LL_GPIO_Init ; 0x8002e3c
        0x080079ac:    2080        .       MOVS     r0,#0x80
        0x080079ae:    9010        ..      STR      r0,[sp,#0x40]
        0x080079b0:    e9cd6411    ...d    STRD     r6,r4,[sp,#0x44]
        0x080079b4:    e9cd4814    ...H    STRD     r4,r8,[sp,#0x50]
        0x080079b8:    a910        ..      ADD      r1,sp,#0x40
        0x080079ba:    48b7        .H      LDR      r0,[pc,#732] ; [0x8007c98] = 0x48000800
        0x080079bc:    9413        ..      STR      r4,[sp,#0x4c]
        0x080079be:    f7fbfa3d    ..=.    BL       LL_GPIO_Init ; 0x8002e3c
        0x080079c2:    15b8        ..      ASRS     r0,r7,#22
        0x080079c4:    9010        ..      STR      r0,[sp,#0x40]
        0x080079c6:    e9cd6411    ...d    STRD     r6,r4,[sp,#0x44]
        0x080079ca:    e9cd4814    ...H    STRD     r4,r8,[sp,#0x50]
        0x080079ce:    a910        ..      ADD      r1,sp,#0x40
        0x080079d0:    48b1        .H      LDR      r0,[pc,#708] ; [0x8007c98] = 0x48000800
        0x080079d2:    9413        ..      STR      r4,[sp,#0x4c]
        0x080079d4:    f7fbfa32    ..2.    BL       LL_GPIO_Init ; 0x8002e3c
        0x080079d8:    f8ad4008    ...@    STRH     r4,[sp,#8]
        0x080079dc:    f64f70ff    O..p    MOV      r0,#0xffff
        0x080079e0:    e9cd4003    ...@    STRD     r4,r0,[sp,#0xc]
        0x080079e4:    f8dfa2b4    ....    LDR      r10,[pc,#692] ; [0x8007c9c] = 0x40013400
        0x080079e8:    9405        ..      STR      r4,[sp,#0x14]
        0x080079ea:    a902        ..      ADD      r1,sp,#8
        0x080079ec:    4650        PF      MOV      r0,r10
        0x080079ee:    9406        ..      STR      r4,[sp,#0x18]
        0x080079f0:    f7fbfc5c    ..\.    BL       LL_TIM_Init ; 0x80032ac
        0x080079f4:    f8da0000    ....    LDR      r0,[r10,#0]
        0x080079f8:    f0200080     ...    BIC      r0,r0,#0x80
        0x080079fc:    f8ca0000    ....    STR      r0,[r10,#0]
        0x08007a00:    f8da0020    .. .    LDR      r0,[r10,#0x20]
        0x08007a04:    f0200011     ...    BIC      r0,r0,#0x11
        0x08007a08:    f8ca0020    .. .    STR      r0,[r10,#0x20]
        0x08007a0c:    48a4        .H      LDR      r0,[pc,#656] ; [0x8007ca0] = 0x80089dc
        0x08007a0e:    49a5        .I      LDR      r1,[pc,#660] ; [0x8007ca4] = 0x40013418
        0x08007a10:    7800        .x      LDRB     r0,[r0,#0]
        0x08007a12:    4408        .D      ADD      r0,r0,r1
        0x08007a14:    6802        .h      LDR      r2,[r0,#0]
        0x08007a16:    49a4        .I      LDR      r1,[pc,#656] ; [0x8007ca8] = 0x80089f0
        0x08007a18:    f04f0c03    O...    MOV      r12,#3
        0x08007a1c:    780b        .x      LDRB     r3,[r1,#0]
        0x08007a1e:    fa0cf903    ....    LSL      r9,r12,r3
        0x08007a22:    ea220209    "...    BIC      r2,r2,r9
        0x08007a26:    ea420209    B...    ORR      r2,r2,r9
        0x08007a2a:    6002        .`      STR      r2,[r0,#0]
        0x08007a2c:    6803        .h      LDR      r3,[r0,#0]
        0x08007a2e:    780a        .x      LDRB     r2,[r1,#0]
        0x08007a30:    f04f0c0c    O...    MOV      r12,#0xc
        0x08007a34:    fa0cf202    ....    LSL      r2,r12,r2
        0x08007a38:    9218        ..      STR      r2,[sp,#0x60]
        0x08007a3a:    ea230202    #...    BIC      r2,r3,r2
        0x08007a3e:    780b        .x      LDRB     r3,[r1,#0]
        0x08007a40:    fa04f703    ....    LSL      r7,r4,r3
        0x08007a44:    433a        :C      ORRS     r2,r2,r7
        0x08007a46:    6002        .`      STR      r2,[r0,#0]
        0x08007a48:    6802        .h      LDR      r2,[r0,#0]
        0x08007a4a:    7809        .x      LDRB     r1,[r1,#0]
        0x08007a4c:    23f0        .#      MOVS     r3,#0xf0
        0x08007a4e:    fa03f101    ....    LSL      r1,r3,r1
        0x08007a52:    911b        ..      STR      r1,[sp,#0x6c]
        0x08007a54:    ea220101    "...    BIC      r1,r2,r1
        0x08007a58:    4339        9C      ORRS     r1,r1,r7
        0x08007a5a:    6001        .`      STR      r1,[r0,#0]
        0x08007a5c:    f8da1020    .. .    LDR      r1,[r10,#0x20]
        0x08007a60:    4892        .H      LDR      r0,[pc,#584] ; [0x8007cac] = 0x80089fa
        0x08007a62:    220a        ."      MOVS     r2,#0xa
        0x08007a64:    7800        .x      LDRB     r0,[r0,#0]
        0x08007a66:    fa02f000    ....    LSL      r0,r2,r0
        0x08007a6a:    901a        ..      STR      r0,[sp,#0x68]
        0x08007a6c:    ea210000    !...    BIC      r0,r1,r0
        0x08007a70:    498e        .I      LDR      r1,[pc,#568] ; [0x8007cac] = 0x80089fa
        0x08007a72:    7809        .x      LDRB     r1,[r1,#0]
        0x08007a74:    fa04fb01    ....    LSL      r11,r4,r1
        0x08007a78:    ea40000b    @...    ORR      r0,r0,r11
        0x08007a7c:    f8ca0020    .. .    STR      r0,[r10,#0x20]
        0x08007a80:    f8da0004    ....    LDR      r0,[r10,#4]
        0x08007a84:    f0400080    @...    ORR      r0,r0,#0x80
        0x08007a88:    f8ca0004    ....    STR      r0,[r10,#4]
        0x08007a8c:    f8da0008    ....    LDR      r0,[r10,#8]
        0x08007a90:    f0200070     .p.    BIC      r0,r0,#0x70
        0x08007a94:    f4201040     .@.    BIC      r0,r0,#0x300000
        0x08007a98:    f0400040    @.@.    ORR      r0,r0,#0x40
        0x08007a9c:    f8ca0008    ....    STR      r0,[r10,#8]
        0x08007aa0:    f8da0008    ....    LDR      r0,[r10,#8]
        0x08007aa4:    f0200007     ...    BIC      r0,r0,#7
        0x08007aa8:    f4203080     ..0    BIC      r0,r0,#0x10000
        0x08007aac:    f0400004    @...    ORR      r0,r0,#4
        0x08007ab0:    f8ca0008    ....    STR      r0,[r10,#8]
        0x08007ab4:    2070        p       MOVS     r0,#0x70
        0x08007ab6:    e9cd0408    ....    STRD     r0,r4,[sp,#0x20]
        0x08007aba:    940a        ..      STR      r4,[sp,#0x28]
        0x08007abc:    940b        ..      STR      r4,[sp,#0x2c]
        0x08007abe:    940c        ..      STR      r4,[sp,#0x30]
        0x08007ac0:    940d        ..      STR      r4,[sp,#0x34]
        0x08007ac2:    940e        ..      STR      r4,[sp,#0x38]
        0x08007ac4:    aa08        ..      ADD      r2,sp,#0x20
        0x08007ac6:    2110        .!      MOVS     r1,#0x10
        0x08007ac8:    4650        PF      MOV      r0,r10
        0x08007aca:    940f        ..      STR      r4,[sp,#0x3c]
        0x08007acc:    f7fbfc46    ..F.    BL       LL_TIM_OC_Init ; 0x800335c
        0x08007ad0:    4973        sI      LDR      r1,[pc,#460] ; [0x8007ca0] = 0x80089dc
        0x08007ad2:    2002        .       MOVS     r0,#2
        0x08007ad4:    4a73        sJ      LDR      r2,[pc,#460] ; [0x8007ca4] = 0x40013418
        0x08007ad6:    5c09        .\      LDRB     r1,[r1,r0]
        0x08007ad8:    4411        .D      ADD      r1,r1,r2
        0x08007ada:    680a        .h      LDR      r2,[r1,#0]
        0x08007adc:    4b74        tK      LDR      r3,[pc,#464] ; [0x8007cb0] = 0x80089e6
        0x08007ade:    5c18        .\      LDRB     r0,[r3,r0]
        0x08007ae0:    fa08f000    ....    LSL      r0,r8,r0
        0x08007ae4:    ea220000    "...    BIC      r0,r2,r0
        0x08007ae8:    6008        .`      STR      r0,[r1,#0]
        0x08007aea:    4650        PF      MOV      r0,r10
        0x08007aec:    6841        Ah      LDR      r1,[r0,#4]
        0x08007aee:    f0210170    !.p.    BIC      r1,r1,#0x70
        0x08007af2:    f0217100    !..q    BIC      r1,r1,#0x2000000
        0x08007af6:    f0410150    A.P.    ORR      r1,r1,#0x50
        0x08007afa:    6041        A`      STR      r1,[r0,#4]
        0x08007afc:    6841        Ah      LDR      r1,[r0,#4]
        0x08007afe:    f4210170    !.p.    BIC      r1,r1,#0xf00000
        0x08007b02:    6041        A`      STR      r1,[r0,#4]
        0x08007b04:    6881        .h      LDR      r1,[r0,#8]
        0x08007b06:    f0210180    !...    BIC      r1,r1,#0x80
        0x08007b0a:    6081        .`      STR      r1,[r0,#8]
        0x08007b0c:    9402        ..      STR      r4,[sp,#8]
        0x08007b0e:    9403        ..      STR      r4,[sp,#0xc]
        0x08007b10:    9404        ..      STR      r4,[sp,#0x10]
        0x08007b12:    9400        ..      STR      r4,[sp,#0]
        0x08007b14:    9401        ..      STR      r4,[sp,#4]
        0x08007b16:    9407        ..      STR      r4,[sp,#0x1c]
        0x08007b18:    9408        ..      STR      r4,[sp,#0x20]
        0x08007b1a:    9409        ..      STR      r4,[sp,#0x24]
        0x08007b1c:    9405        ..      STR      r4,[sp,#0x14]
        0x08007b1e:    9406        ..      STR      r4,[sp,#0x18]
        0x08007b20:    940c        ..      STR      r4,[sp,#0x30]
        0x08007b22:    940d        ..      STR      r4,[sp,#0x34]
        0x08007b24:    940e        ..      STR      r4,[sp,#0x38]
        0x08007b26:    6da8        .m      LDR      r0,[r5,#0x58]
        0x08007b28:    f4404000    @..@    ORR      r0,r0,#0x8000
        0x08007b2c:    65a8        .e      STR      r0,[r5,#0x58]
        0x08007b2e:    6da8        .m      LDR      r0,[r5,#0x58]
        0x08007b30:    f4004000    ...@    AND      r0,r0,#0x8000
        0x08007b34:    9010        ..      STR      r0,[sp,#0x40]
        0x08007b36:    6ce8        .l      LDR      r0,[r5,#0x4c]
        0x08007b38:    f0400001    @...    ORR      r0,r0,#1
        0x08007b3c:    64e8        .d      STR      r0,[r5,#0x4c]
        0x08007b3e:    6ce8        .l      LDR      r0,[r5,#0x4c]
        0x08007b40:    f0000001    ....    AND      r0,r0,#1
        0x08007b44:    9010        ..      STR      r0,[sp,#0x40]
        0x08007b46:    6ce8        .l      LDR      r0,[r5,#0x4c]
        0x08007b48:    f0400004    @...    ORR      r0,r0,#4
        0x08007b4c:    64e8        .d      STR      r0,[r5,#0x4c]
        0x08007b4e:    6ce8        .l      LDR      r0,[r5,#0x4c]
        0x08007b50:    a90a        ..      ADD      r1,sp,#0x28
        0x08007b52:    f0000004    ....    AND      r0,r0,#4
        0x08007b56:    9010        ..      STR      r0,[sp,#0x40]
        0x08007b58:    2010        .       MOVS     r0,#0x10
        0x08007b5a:    e9cd060a    ....    STRD     r0,r6,[sp,#0x28]
        0x08007b5e:    2006        .       MOVS     r0,#6
        0x08007b60:    900f        ..      STR      r0,[sp,#0x3c]
        0x08007b62:    f04f4090    O..@    MOV      r0,#0x48000000
        0x08007b66:    f7fbf969    ..i.    BL       LL_GPIO_Init ; 0x8002e3c
        0x08007b6a:    f44f6a80    O..j    MOV      r10,#0x400
        0x08007b6e:    f8cda028    ..(.    STR      r10,[sp,#0x28]
        0x08007b72:    e9cd640b    ...d    STRD     r6,r4,[sp,#0x2c]
        0x08007b76:    2006        .       MOVS     r0,#6
        0x08007b78:    e9cd400e    ...@    STRD     r4,r0,[sp,#0x38]
        0x08007b7c:    a90a        ..      ADD      r1,sp,#0x28
        0x08007b7e:    940d        ..      STR      r4,[sp,#0x34]
        0x08007b80:    4845        EH      LDR      r0,[pc,#276] ; [0x8007c98] = 0x48000800
        0x08007b82:    f7fbf95b    ..[.    BL       LL_GPIO_Init ; 0x8002e3c
        0x08007b86:    f44f6000    O..`    MOV      r0,#0x800
        0x08007b8a:    900a        ..      STR      r0,[sp,#0x28]
        0x08007b8c:    e9cd640b    ...d    STRD     r6,r4,[sp,#0x2c]
        0x08007b90:    2006        .       MOVS     r0,#6
        0x08007b92:    e9cd400e    ...@    STRD     r4,r0,[sp,#0x38]
        0x08007b96:    a90a        ..      ADD      r1,sp,#0x28
        0x08007b98:    940d        ..      STR      r4,[sp,#0x34]
        0x08007b9a:    483f        ?H      LDR      r0,[pc,#252] ; [0x8007c98] = 0x48000800
        0x08007b9c:    f7fbf94e    ..N.    BL       LL_GPIO_Init ; 0x8002e3c
        0x08007ba0:    4944        DI      LDR      r1,[pc,#272] ; [0x8007cb4] = 0x40020020
        0x08007ba2:    4838        8H      LDR      r0,[pc,#224] ; [0x8007c84] = 0x40020400
        0x08007ba4:    f04f0c08    O...    MOV      r12,#8
        0x08007ba8:    f8d11800    ....    LDR      r1,[r1,#0x800]
        0x08007bac:    4a41        AJ      LDR      r2,[pc,#260] ; [0x8007cb4] = 0x40020020
        0x08007bae:    f02101ff    !...    BIC      r1,r1,#0xff
        0x08007bb2:    f041010e    A...    ORR      r1,r1,#0xe
        0x08007bb6:    f8c21800    ....    STR      r1,[r2,#0x800]
        0x08007bba:    4934        4I      LDR      r1,[pc,#208] ; [0x8007c8c] = 0x80089d6
        0x08007bbc:    780a        .x      LDRB     r2,[r1,#0]
        0x08007bbe:    5882        .X      LDR      r2,[r0,r2]
        0x08007bc0:    780b        .x      LDRB     r3,[r1,#0]
        0x08007bc2:    f0220210    "...    BIC      r2,r2,#0x10
        0x08007bc6:    f4224280    "..B    BIC      r2,r2,#0x4000
        0x08007bca:    50c2        .P      STR      r2,[r0,r3]
        0x08007bcc:    780a        .x      LDRB     r2,[r1,#0]
        0x08007bce:    5882        .X      LDR      r2,[r0,r2]
        0x08007bd0:    780b        .x      LDRB     r3,[r1,#0]
        0x08007bd2:    f4225240    ".@R    BIC      r2,r2,#0x3000
        0x08007bd6:    50c2        .P      STR      r2,[r0,r3]
        0x08007bd8:    780a        .x      LDRB     r2,[r1,#0]
        0x08007bda:    5882        .X      LDR      r2,[r0,r2]
        0x08007bdc:    780b        .x      LDRB     r3,[r1,#0]
        0x08007bde:    f0420220    B. .    ORR      r2,r2,#0x20
        0x08007be2:    50c2        .P      STR      r2,[r0,r3]
        0x08007be4:    780a        .x      LDRB     r2,[r1,#0]
        0x08007be6:    5882        .X      LDR      r2,[r0,r2]
        0x08007be8:    780b        .x      LDRB     r3,[r1,#0]
        0x08007bea:    f0220240    ".@.    BIC      r2,r2,#0x40
        0x08007bee:    50c2        .P      STR      r2,[r0,r3]
        0x08007bf0:    780a        .x      LDRB     r2,[r1,#0]
        0x08007bf2:    5882        .X      LDR      r2,[r0,r2]
        0x08007bf4:    780b        .x      LDRB     r3,[r1,#0]
        0x08007bf6:    f0220280    "...    BIC      r2,r2,#0x80
        0x08007bfa:    50c2        .P      STR      r2,[r0,r3]
        0x08007bfc:    780a        .x      LDRB     r2,[r1,#0]
        0x08007bfe:    5882        .X      LDR      r2,[r0,r2]
        0x08007c00:    780b        .x      LDRB     r3,[r1,#0]
        0x08007c02:    f4227240    ".@r    BIC      r2,r2,#0x300
        0x08007c06:    f4427280    B..r    ORR      r2,r2,#0x100
        0x08007c0a:    50c2        .P      STR      r2,[r0,r3]
        0x08007c0c:    780a        .x      LDRB     r2,[r1,#0]
        0x08007c0e:    5882        .X      LDR      r2,[r0,r2]
        0x08007c10:    7809        .x      LDRB     r1,[r1,#0]
        0x08007c12:    f4226240    ".@b    BIC      r2,r2,#0xc00
        0x08007c16:    f4426280    B..b    ORR      r2,r2,#0x400
        0x08007c1a:    5042        BP      STR      r2,[r0,r1]
        0x08007c1c:    f44f7082    O..p    MOV      r0,#0x104
        0x08007c20:    e9cda000    ....    STRD     r10,r0,[sp,#0]
        0x08007c24:    f44f7040    O.@p    MOV      r0,#0x300
        0x08007c28:    e9cd0402    ....    STRD     r0,r4,[sp,#8]
        0x08007c2c:    f44f2080    O..     MOV      r0,#0x40000
        0x08007c30:    e9cd4004    ...@    STRD     r4,r0,[sp,#0x10]
        0x08007c34:    2007        .       MOVS     r0,#7
        0x08007c36:    e9cd4008    ...@    STRD     r4,r0,[sp,#0x20]
        0x08007c3a:    e9cdc406    ....    STRD     r12,r4,[sp,#0x18]
        0x08007c3e:    f8dfa078    ..x.    LDR      r10,[pc,#120] ; [0x8007cb8] = 0x40003c00
        0x08007c42:    4669        iF      MOV      r1,sp
        0x08007c44:    4650        PF      MOV      r0,r10
        0x08007c46:    f7fbfab1    ....    BL       LL_SPI_Init ; 0x80031ac
        0x08007c4a:    f8da0004    ....    LDR      r0,[r10,#4]
        0x08007c4e:    f0200010     ...    BIC      r0,r0,#0x10
        0x08007c52:    f8ca0004    ....    STR      r0,[r10,#4]
        0x08007c56:    f8da0004    ....    LDR      r0,[r10,#4]
        0x08007c5a:    f0400008    @...    ORR      r0,r0,#8
        0x08007c5e:    f8ca0004    ....    STR      r0,[r10,#4]
        0x08007c62:    9409        ..      STR      r4,[sp,#0x24]
        0x08007c64:    940a        ..      STR      r4,[sp,#0x28]
        0x08007c66:    940b        ..      STR      r4,[sp,#0x2c]
        0x08007c68:    9408        ..      STR      r4,[sp,#0x20]
        0x08007c6a:    940c        ..      STR      r4,[sp,#0x30]
        0x08007c6c:    9404        ..      STR      r4,[sp,#0x10]
        0x08007c6e:    9405        ..      STR      r4,[sp,#0x14]
        0x08007c70:    9406        ..      STR      r4,[sp,#0x18]
        0x08007c72:    6da8        .m      LDR      r0,[r5,#0x58]
        0x08007c74:    f0400002    @...    ORR      r0,r0,#2
        0x08007c78:    65a8        .e      STR      r0,[r5,#0x58]
        0x08007c7a:    6da8        .m      LDR      r0,[r5,#0x58]
        0x08007c7c:    e01e        ..      B        0x8007cbc ; main + 3308
    $d
        0x08007c7e:    0000        ..      DCW    0
        0x08007c80:    48000400    ...H    DCD    1207960576
        0x08007c84:    40020400    ...@    DCD    1073873920
        0x08007c88:    40020024    $..@    DCD    1073872932
        0x08007c8c:    080089d6    ....    DCD    134253014
        0x08007c90:    30a0a7fb    ...0    DCD    815835131
        0x08007c94:    40005400    .T.@    DCD    1073763328
        0x08007c98:    48000800    ...H    DCD    1207961600
        0x08007c9c:    40013400    .4.@    DCD    1073820672
        0x08007ca0:    080089dc    ....    DCD    134253020
        0x08007ca4:    40013418    .4.@    DCD    1073820696
        0x08007ca8:    080089f0    ....    DCD    134253040
        0x08007cac:    080089fa    ....    DCD    134253050
        0x08007cb0:    080089e6    ....    DCD    134253030
        0x08007cb4:    40020020     ..@    DCD    1073872928
        0x08007cb8:    40003c00    .<.@    DCD    1073757184
    $t
        0x08007cbc:    f0000002    ....    AND      r0,r0,#2
        0x08007cc0:    9000        ..      STR      r0,[sp,#0]
        0x08007cc2:    6ce8        .l      LDR      r0,[r5,#0x4c]
        0x08007cc4:    f0400001    @...    ORR      r0,r0,#1
        0x08007cc8:    64e8        .d      STR      r0,[r5,#0x4c]
        0x08007cca:    6ce8        .l      LDR      r0,[r5,#0x4c]
        0x08007ccc:    f0000001    ....    AND      r0,r0,#1
        0x08007cd0:    9000        ..      STR      r0,[sp,#0]
        0x08007cd2:    6ce8        .l      LDR      r0,[r5,#0x4c]
        0x08007cd4:    f0400002    @...    ORR      r0,r0,#2
        0x08007cd8:    64e8        .d      STR      r0,[r5,#0x4c]
        0x08007cda:    6ce8        .l      LDR      r0,[r5,#0x4c]
        0x08007cdc:    a902        ..      ADD      r1,sp,#8
        0x08007cde:    f0000002    ....    AND      r0,r0,#2
        0x08007ce2:    9000        ..      STR      r0,[sp,#0]
        0x08007ce4:    2040        @       MOVS     r0,#0x40
        0x08007ce6:    e9cd0602    ....    STRD     r0,r6,[sp,#8]
        0x08007cea:    f04f4090    O..@    MOV      r0,#0x48000000
        0x08007cee:    9607        ..      STR      r6,[sp,#0x1c]
        0x08007cf0:    f7fbf8a4    ....    BL       LL_GPIO_Init ; 0x8002e3c
        0x08007cf4:    2020                MOVS     r0,#0x20
        0x08007cf6:    9002        ..      STR      r0,[sp,#8]
        0x08007cf8:    e9cd6403    ...d    STRD     r6,r4,[sp,#0xc]
        0x08007cfc:    e9cd4606    ...F    STRD     r4,r6,[sp,#0x18]
        0x08007d00:    a902        ..      ADD      r1,sp,#8
        0x08007d02:    48fd        .H      LDR      r0,[pc,#1012] ; [0x80080f8] = 0x48000400
        0x08007d04:    9405        ..      STR      r4,[sp,#0x14]
        0x08007d06:    f7fbf899    ....    BL       LL_GPIO_Init ; 0x8002e3c
        0x08007d0a:    f8ad4020    .. @    STRH     r4,[sp,#0x20]
        0x08007d0e:    f2427010    B..p    MOV      r0,#0x2710
        0x08007d12:    e9cd4009    ...@    STRD     r4,r0,[sp,#0x24]
        0x08007d16:    f8dfa3e4    ....    LDR      r10,[pc,#996] ; [0x80080fc] = 0x40000400
        0x08007d1a:    a908        ..      ADD      r1,sp,#0x20
        0x08007d1c:    4650        PF      MOV      r0,r10
        0x08007d1e:    940b        ..      STR      r4,[sp,#0x2c]
        0x08007d20:    f7fbfac4    ....    BL       LL_TIM_Init ; 0x80032ac
        0x08007d24:    f8da0000    ....    LDR      r0,[r10,#0]
        0x08007d28:    f0200080     ...    BIC      r0,r0,#0x80
        0x08007d2c:    f8ca0000    ....    STR      r0,[r10,#0]
        0x08007d30:    f8da0008    ....    LDR      r0,[r10,#8]
        0x08007d34:    f0200007     ...    BIC      r0,r0,#7
        0x08007d38:    f4203080     ..0    BIC      r0,r0,#0x10000
        0x08007d3c:    f0400003    @...    ORR      r0,r0,#3
        0x08007d40:    f8ca0008    ....    STR      r0,[r10,#8]
        0x08007d44:    48ee        .H      LDR      r0,[pc,#952] ; [0x8008100] = 0x80089dc
        0x08007d46:    7800        .x      LDRB     r0,[r0,#0]
        0x08007d48:    f1004080    ...@    ADD      r0,r0,#0x40000000
        0x08007d4c:    f5006083    ...`    ADD      r0,r0,#0x418
        0x08007d50:    6802        .h      LDR      r2,[r0,#0]
        0x08007d52:    49ec        .I      LDR      r1,[pc,#944] ; [0x8008104] = 0x80089f0
        0x08007d54:    ea220309    "...    BIC      r3,r2,r9
        0x08007d58:    2201        ."      MOVS     r2,#1
        0x08007d5a:    f891c000    ....    LDRB     r12,[r1,#0]
        0x08007d5e:    fa02f20c    ....    LSL      r2,r2,r12
        0x08007d62:    431a        .C      ORRS     r2,r2,r3
        0x08007d64:    6002        .`      STR      r2,[r0,#0]
        0x08007d66:    6803        .h      LDR      r3,[r0,#0]
        0x08007d68:    9a18        ..      LDR      r2,[sp,#0x60]
        0x08007d6a:    ea230202    #...    BIC      r2,r3,r2
        0x08007d6e:    433a        :C      ORRS     r2,r2,r7
        0x08007d70:    6002        .`      STR      r2,[r0,#0]
        0x08007d72:    6803        .h      LDR      r3,[r0,#0]
        0x08007d74:    9a1b        ..      LDR      r2,[sp,#0x6c]
        0x08007d76:    f891c000    ....    LDRB     r12,[r1,#0]
        0x08007d7a:    ea230202    #...    BIC      r2,r3,r2
        0x08007d7e:    2330        0#      MOVS     r3,#0x30
        0x08007d80:    fa03f30c    ....    LSL      r3,r3,r12
        0x08007d84:    431a        .C      ORRS     r2,r2,r3
        0x08007d86:    6002        .`      STR      r2,[r0,#0]
        0x08007d88:    f8da2020    ..      LDR      r2,[r10,#0x20]
        0x08007d8c:    981a        ..      LDR      r0,[sp,#0x68]
        0x08007d8e:    ea220000    "...    BIC      r0,r2,r0
        0x08007d92:    ea40000b    @...    ORR      r0,r0,r11
        0x08007d96:    f8ca0020    .. .    STR      r0,[r10,#0x20]
        0x08007d9a:    f1a10014    ....    SUB      r0,r1,#0x14
        0x08007d9e:    7880        .x      LDRB     r0,[r0,#2]
        0x08007da0:    f1004080    ...@    ADD      r0,r0,#0x40000000
        0x08007da4:    f5006083    ...`    ADD      r0,r0,#0x418
        0x08007da8:    6802        .h      LDR      r2,[r0,#0]
        0x08007daa:    788b        .x      LDRB     r3,[r1,#2]
        0x08007dac:    f04f0c03    O...    MOV      r12,#3
        0x08007db0:    fa0cf303    ....    LSL      r3,r12,r3
        0x08007db4:    ea220303    "...    BIC      r3,r2,r3
        0x08007db8:    f891c002    ....    LDRB     r12,[r1,#2]
        0x08007dbc:    2201        ."      MOVS     r2,#1
        0x08007dbe:    fa02f20c    ....    LSL      r2,r2,r12
        0x08007dc2:    431a        .C      ORRS     r2,r2,r3
        0x08007dc4:    6002        .`      STR      r2,[r0,#0]
        0x08007dc6:    6802        .h      LDR      r2,[r0,#0]
        0x08007dc8:    788b        .x      LDRB     r3,[r1,#2]
        0x08007dca:    f04f0c0c    O...    MOV      r12,#0xc
        0x08007dce:    fa0cf303    ....    LSL      r3,r12,r3
        0x08007dd2:    439a        .C      BICS     r2,r2,r3
        0x08007dd4:    788b        .x      LDRB     r3,[r1,#2]
        0x08007dd6:    fa04f303    ....    LSL      r3,r4,r3
        0x08007dda:    431a        .C      ORRS     r2,r2,r3
        0x08007ddc:    6002        .`      STR      r2,[r0,#0]
        0x08007dde:    f8d0c000    ....    LDR      r12,[r0,#0]
        0x08007de2:    788a        .x      LDRB     r2,[r1,#2]
        0x08007de4:    23f0        .#      MOVS     r3,#0xf0
        0x08007de6:    fa03f202    ....    LSL      r2,r3,r2
        0x08007dea:    ea2c0302    ,...    BIC      r3,r12,r2
        0x08007dee:    7889        .x      LDRB     r1,[r1,#2]
        0x08007df0:    2230        0"      MOVS     r2,#0x30
        0x08007df2:    fa02f101    ....    LSL      r1,r2,r1
        0x08007df6:    4319        .C      ORRS     r1,r1,r3
        0x08007df8:    6001        .`      STR      r1,[r0,#0]
        0x08007dfa:    4650        PF      MOV      r0,r10
        0x08007dfc:    2200        ."      MOVS     r2,#0
        0x08007dfe:    6a03        .j      LDR      r3,[r0,#0x20]
        0x08007e00:    f8dfc304    ....    LDR      r12,[pc,#772] ; [0x8008108] = 0x80089fa
        0x08007e04:    f89c1002    ....    LDRB     r1,[r12,#2]
        0x08007e08:    f04f0c0a    O...    MOV      r12,#0xa
        0x08007e0c:    fa0cfc01    ....    LSL      r12,r12,r1
        0x08007e10:    ea23030c    #...    BIC      r3,r3,r12
        0x08007e14:    fa02f101    ....    LSL      r1,r2,r1
        0x08007e18:    4319        .C      ORRS     r1,r1,r3
        0x08007e1a:    6201        .b      STR      r1,[r0,#0x20]
        0x08007e1c:    6841        Ah      LDR      r1,[r0,#4]
        0x08007e1e:    f0210170    !.p.    BIC      r1,r1,#0x70
        0x08007e22:    f0217100    !..q    BIC      r1,r1,#0x2000000
        0x08007e26:    6041        A`      STR      r1,[r0,#4]
        0x08007e28:    6881        .h      LDR      r1,[r0,#8]
        0x08007e2a:    f0210180    !...    BIC      r1,r1,#0x80
        0x08007e2e:    6081        .`      STR      r1,[r0,#8]
        0x08007e30:    9409        ..      STR      r4,[sp,#0x24]
        0x08007e32:    940a        ..      STR      r4,[sp,#0x28]
        0x08007e34:    9408        ..      STR      r4,[sp,#0x20]
        0x08007e36:    940b        ..      STR      r4,[sp,#0x2c]
        0x08007e38:    940e        ..      STR      r4,[sp,#0x38]
        0x08007e3a:    940f        ..      STR      r4,[sp,#0x3c]
        0x08007e3c:    940c        ..      STR      r4,[sp,#0x30]
        0x08007e3e:    940d        ..      STR      r4,[sp,#0x34]
        0x08007e40:    9404        ..      STR      r4,[sp,#0x10]
        0x08007e42:    9405        ..      STR      r4,[sp,#0x14]
        0x08007e44:    9406        ..      STR      r4,[sp,#0x18]
        0x08007e46:    f8d50088    ....    LDR      r0,[r5,#0x88]
        0x08007e4a:    f0200003     ...    BIC      r0,r0,#3
        0x08007e4e:    f8c50088    ....    STR      r0,[r5,#0x88]
        0x08007e52:    6e28        (n      LDR      r0,[r5,#0x60]
        0x08007e54:    f4404080    @..@    ORR      r0,r0,#0x4000
        0x08007e58:    6628        (f      STR      r0,[r5,#0x60]
        0x08007e5a:    6e28        (n      LDR      r0,[r5,#0x60]
        0x08007e5c:    f4004080    ...@    AND      r0,r0,#0x4000
        0x08007e60:    9000        ..      STR      r0,[sp,#0]
        0x08007e62:    6ce8        .l      LDR      r0,[r5,#0x4c]
        0x08007e64:    f0400004    @...    ORR      r0,r0,#4
        0x08007e68:    64e8        .d      STR      r0,[r5,#0x4c]
        0x08007e6a:    6ce8        .l      LDR      r0,[r5,#0x4c]
        0x08007e6c:    2707        .'      MOVS     r7,#7
        0x08007e6e:    f0000004    ....    AND      r0,r0,#4
        0x08007e72:    9000        ..      STR      r0,[sp,#0]
        0x08007e74:    2010        .       MOVS     r0,#0x10
        0x08007e76:    9707        ..      STR      r7,[sp,#0x1c]
        0x08007e78:    e9cd0602    ....    STRD     r0,r6,[sp,#8]
        0x08007e7c:    a902        ..      ADD      r1,sp,#8
        0x08007e7e:    48a3        .H      LDR      r0,[pc,#652] ; [0x800810c] = 0x48000800
        0x08007e80:    f7faffdc    ....    BL       LL_GPIO_Init ; 0x8002e3c
        0x08007e84:    2020                MOVS     r0,#0x20
        0x08007e86:    9002        ..      STR      r0,[sp,#8]
        0x08007e88:    2002        .       MOVS     r0,#2
        0x08007e8a:    e9cd0403    ....    STRD     r0,r4,[sp,#0xc]
        0x08007e8e:    2007        .       MOVS     r0,#7
        0x08007e90:    e9cd4006    ...@    STRD     r4,r0,[sp,#0x18]
        0x08007e94:    a902        ..      ADD      r1,sp,#8
        0x08007e96:    9405        ..      STR      r4,[sp,#0x14]
        0x08007e98:    489c        .H      LDR      r0,[pc,#624] ; [0x800810c] = 0x48000800
        0x08007e9a:    f7faffcf    ....    BL       LL_GPIO_Init ; 0x8002e3c
        0x08007e9e:    489c        .H      LDR      r0,[pc,#624] ; [0x8008110] = 0x40020000
        0x08007ea0:    1d01        ..      ADDS     r1,r0,#4
        0x08007ea2:    f8d11800    ....    LDR      r1,[r1,#0x800]
        0x08007ea6:    f02101ff    !...    BIC      r1,r1,#0xff
        0x08007eaa:    f0410218    A...    ORR      r2,r1,#0x18
        0x08007eae:    1d01        ..      ADDS     r1,r0,#4
        0x08007eb0:    f8c12800    ...(    STR      r2,[r1,#0x800]
        0x08007eb4:    f8df825c    ..\.    LDR      r8,[pc,#604] ; [0x8008114] = 0x80089d6
        0x08007eb8:    f8981001    ....    LDRB     r1,[r8,#1]
        0x08007ebc:    5841        AX      LDR      r1,[r0,r1]
        0x08007ebe:    4642        BF      MOV      r2,r8
        0x08007ec0:    f0210110    !...    BIC      r1,r1,#0x10
        0x08007ec4:    7852        Rx      LDRB     r2,[r2,#1]
        0x08007ec6:    f4214180    !..A    BIC      r1,r1,#0x4000
        0x08007eca:    5081        .P      STR      r1,[r0,r2]
        0x08007ecc:    4641        AF      MOV      r1,r8
        0x08007ece:    7849        Ix      LDRB     r1,[r1,#1]
        0x08007ed0:    5841        AX      LDR      r1,[r0,r1]
        0x08007ed2:    4642        BF      MOV      r2,r8
        0x08007ed4:    f4215140    !.@Q    BIC      r1,r1,#0x3000
        0x08007ed8:    7852        Rx      LDRB     r2,[r2,#1]
        0x08007eda:    5081        .P      STR      r1,[r0,r2]
        0x08007edc:    4641        AF      MOV      r1,r8
        0x08007ede:    7849        Ix      LDRB     r1,[r1,#1]
        0x08007ee0:    5841        AX      LDR      r1,[r0,r1]
        0x08007ee2:    f0410220    A. .    ORR      r2,r1,#0x20
        0x08007ee6:    4641        AF      MOV      r1,r8
        0x08007ee8:    7849        Ix      LDRB     r1,[r1,#1]
        0x08007eea:    5042        BP      STR      r2,[r0,r1]
        0x08007eec:    4641        AF      MOV      r1,r8
        0x08007eee:    7849        Ix      LDRB     r1,[r1,#1]
        0x08007ef0:    5841        AX      LDR      r1,[r0,r1]
        0x08007ef2:    4642        BF      MOV      r2,r8
        0x08007ef4:    f0210140    !.@.    BIC      r1,r1,#0x40
        0x08007ef8:    7852        Rx      LDRB     r2,[r2,#1]
        0x08007efa:    5081        .P      STR      r1,[r0,r2]
        0x08007efc:    4641        AF      MOV      r1,r8
        0x08007efe:    7849        Ix      LDRB     r1,[r1,#1]
        0x08007f00:    5841        AX      LDR      r1,[r0,r1]
        0x08007f02:    f0410280    A...    ORR      r2,r1,#0x80
        0x08007f06:    4641        AF      MOV      r1,r8
        0x08007f08:    7849        Ix      LDRB     r1,[r1,#1]
        0x08007f0a:    5042        BP      STR      r2,[r0,r1]
        0x08007f0c:    4641        AF      MOV      r1,r8
        0x08007f0e:    7849        Ix      LDRB     r1,[r1,#1]
        0x08007f10:    5841        AX      LDR      r1,[r0,r1]
        0x08007f12:    4642        BF      MOV      r2,r8
        0x08007f14:    f4217140    !.@q    BIC      r1,r1,#0x300
        0x08007f18:    7852        Rx      LDRB     r2,[r2,#1]
        0x08007f1a:    5081        .P      STR      r1,[r0,r2]
        0x08007f1c:    4641        AF      MOV      r1,r8
        0x08007f1e:    7849        Ix      LDRB     r1,[r1,#1]
        0x08007f20:    5841        AX      LDR      r1,[r0,r1]
        0x08007f22:    4642        BF      MOV      r2,r8
        0x08007f24:    f4216140    !.@a    BIC      r1,r1,#0xc00
        0x08007f28:    7852        Rx      LDRB     r2,[r2,#1]
        0x08007f2a:    5081        .P      STR      r1,[r0,r2]
        0x08007f2c:    f8d01800    ....    LDR      r1,[r0,#0x800]
        0x08007f30:    f02101ff    !...    BIC      r1,r1,#0xff
        0x08007f34:    f0410119    A...    ORR      r1,r1,#0x19
        0x08007f38:    f8c01800    ....    STR      r1,[r0,#0x800]
        0x08007f3c:    4641        AF      MOV      r1,r8
        0x08007f3e:    7809        .x      LDRB     r1,[r1,#0]
        0x08007f40:    5841        AX      LDR      r1,[r0,r1]
        0x08007f42:    4642        BF      MOV      r2,r8
        0x08007f44:    f0210110    !...    BIC      r1,r1,#0x10
        0x08007f48:    7812        .x      LDRB     r2,[r2,#0]
        0x08007f4a:    f4214180    !..A    BIC      r1,r1,#0x4000
        0x08007f4e:    f0410110    A...    ORR      r1,r1,#0x10
        0x08007f52:    5081        .P      STR      r1,[r0,r2]
        0x08007f54:    4641        AF      MOV      r1,r8
        0x08007f56:    7809        .x      LDRB     r1,[r1,#0]
        0x08007f58:    5841        AX      LDR      r1,[r0,r1]
        0x08007f5a:    4642        BF      MOV      r2,r8
        0x08007f5c:    f4215140    !.@Q    BIC      r1,r1,#0x3000
        0x08007f60:    7812        .x      LDRB     r2,[r2,#0]
        0x08007f62:    5081        .P      STR      r1,[r0,r2]
        0x08007f64:    4641        AF      MOV      r1,r8
        0x08007f66:    7809        .x      LDRB     r1,[r1,#0]
        0x08007f68:    5841        AX      LDR      r1,[r0,r1]
        0x08007f6a:    4642        BF      MOV      r2,r8
        0x08007f6c:    f0210120    !. .    BIC      r1,r1,#0x20
        0x08007f70:    7812        .x      LDRB     r2,[r2,#0]
        0x08007f72:    5081        .P      STR      r1,[r0,r2]
        0x08007f74:    4641        AF      MOV      r1,r8
        0x08007f76:    7809        .x      LDRB     r1,[r1,#0]
        0x08007f78:    5841        AX      LDR      r1,[r0,r1]
        0x08007f7a:    4642        BF      MOV      r2,r8
        0x08007f7c:    f0210140    !.@.    BIC      r1,r1,#0x40
        0x08007f80:    7812        .x      LDRB     r2,[r2,#0]
        0x08007f82:    5081        .P      STR      r1,[r0,r2]
        0x08007f84:    4641        AF      MOV      r1,r8
        0x08007f86:    7809        .x      LDRB     r1,[r1,#0]
        0x08007f88:    5841        AX      LDR      r1,[r0,r1]
        0x08007f8a:    4642        BF      MOV      r2,r8
        0x08007f8c:    f0410180    A...    ORR      r1,r1,#0x80
        0x08007f90:    7812        .x      LDRB     r2,[r2,#0]
        0x08007f92:    5081        .P      STR      r1,[r0,r2]
        0x08007f94:    4641        AF      MOV      r1,r8
        0x08007f96:    7809        .x      LDRB     r1,[r1,#0]
        0x08007f98:    5841        AX      LDR      r1,[r0,r1]
        0x08007f9a:    4642        BF      MOV      r2,r8
        0x08007f9c:    f4217140    !.@q    BIC      r1,r1,#0x300
        0x08007fa0:    7812        .x      LDRB     r2,[r2,#0]
        0x08007fa2:    5081        .P      STR      r1,[r0,r2]
        0x08007fa4:    4641        AF      MOV      r1,r8
        0x08007fa6:    7809        .x      LDRB     r1,[r1,#0]
        0x08007fa8:    5841        AX      LDR      r1,[r0,r1]
        0x08007faa:    4642        BF      MOV      r2,r8
        0x08007fac:    f4216140    !.@a    BIC      r1,r1,#0xc00
        0x08007fb0:    7812        .x      LDRB     r2,[r2,#0]
        0x08007fb2:    5081        .P      STR      r1,[r0,r2]
        0x08007fb4:    4858        XH      LDR      r0,[pc,#352] ; [0x8008118] = 0x16e360
        0x08007fb6:    f04f090c    O...    MOV      r9,#0xc
        0x08007fba:    e9cd4008    ...@    STRD     r4,r0,[sp,#0x20]
        0x08007fbe:    e9cd490c    ...I    STRD     r4,r9,[sp,#0x30]
        0x08007fc2:    f8dfa158    ..X.    LDR      r10,[pc,#344] ; [0x800811c] = 0x40013800
        0x08007fc6:    940a        ..      STR      r4,[sp,#0x28]
        0x08007fc8:    940b        ..      STR      r4,[sp,#0x2c]
        0x08007fca:    940e        ..      STR      r4,[sp,#0x38]
        0x08007fcc:    a908        ..      ADD      r1,sp,#0x20
        0x08007fce:    4650        PF      MOV      r0,r10
        0x08007fd0:    940f        ..      STR      r4,[sp,#0x3c]
        0x08007fd2:    f7fbfb6d    ..m.    BL       LL_USART_Init ; 0x80036b0
        0x08007fd6:    2200        ."      MOVS     r2,#0
        0x08007fd8:    f10a0008    ....    ADD      r0,r10,#8
        0x08007fdc:    e8501f00    P...    LDREX    r1,[r0]
        0x08007fe0:    f362715f    b._q    BFI      r1,r2,#29,#3
        0x08007fe4:    e8401300    @...    STREX    r3,r1,[r0]
        0x08007fe8:    2b00        .+      CMP      r3,#0
        0x08007fea:    d1f7        ..      BNE      0x8007fdc ; main + 4108
        0x08007fec:    2000        .       MOVS     r0,#0
        0x08007fee:    f10a0108    ....    ADD      r1,r10,#8
        0x08007ff2:    bf00        ..      NOP      
        0x08007ff4:    e8512f00    Q../    LDREX    r2,[r1]
        0x08007ff8:    f0226260    ".`b    BIC      r2,r2,#0xe000000
        0x08007ffc:    ea426240    B.@b    ORR      r2,r2,r0,LSL #25
        0x08008000:    e8412300    A..#    STREX    r3,r2,[r1]
        0x08008004:    2b00        .+      CMP      r3,#0
        0x08008006:    d1f5        ..      BNE      0x8007ff4 ; main + 4132
        0x08008008:    f8da0000    ....    LDR      r0,[r10,#0]
        0x0800800c:    f0205000     ..P    BIC      r0,r0,#0x20000000
        0x08008010:    f8ca0000    ....    STR      r0,[r10,#0]
        0x08008014:    f8da0004    ....    LDR      r0,[r10,#4]
        0x08008018:    f4204090     ..@    BIC      r0,r0,#0x4800
        0x0800801c:    f8ca0004    ....    STR      r0,[r10,#4]
        0x08008020:    f8da0008    ....    LDR      r0,[r10,#8]
        0x08008024:    f020002a     .*.    BIC      r0,r0,#0x2a
        0x08008028:    f8ca0008    ....    STR      r0,[r10,#8]
        0x0800802c:    f8da0000    ....    LDR      r0,[r10,#0]
        0x08008030:    f0400001    @...    ORR      r0,r0,#1
        0x08008034:    f8ca0000    ....    STR      r0,[r10,#0]
        0x08008038:    f8da001c    ....    LDR      r0,[r10,#0x1c]
        0x0800803c:    f3c05040    ..@P    UBFX     r0,r0,#21,#1
        0x08008040:    2800        .(      CMP      r0,#0
        0x08008042:    d0f9        ..      BEQ      0x8008038 ; main + 4200
        0x08008044:    f8da001c    ....    LDR      r0,[r10,#0x1c]
        0x08008048:    f3c05080    ...P    UBFX     r0,r0,#22,#1
        0x0800804c:    2800        .(      CMP      r0,#0
        0x0800804e:    d0f3        ..      BEQ      0x8008038 ; main + 4200
        0x08008050:    9402        ..      STR      r4,[sp,#8]
        0x08008052:    9403        ..      STR      r4,[sp,#0xc]
        0x08008054:    9404        ..      STR      r4,[sp,#0x10]
        0x08008056:    9407        ..      STR      r4,[sp,#0x1c]
        0x08008058:    9408        ..      STR      r4,[sp,#0x20]
        0x0800805a:    9409        ..      STR      r4,[sp,#0x24]
        0x0800805c:    9405        ..      STR      r4,[sp,#0x14]
        0x0800805e:    9406        ..      STR      r4,[sp,#0x18]
        0x08008060:    940c        ..      STR      r4,[sp,#0x30]
        0x08008062:    940d        ..      STR      r4,[sp,#0x34]
        0x08008064:    940e        ..      STR      r4,[sp,#0x38]
        0x08008066:    f8d50088    ....    LDR      r0,[r5,#0x88]
        0x0800806a:    f0200030     .0.    BIC      r0,r0,#0x30
        0x0800806e:    f8c50088    ....    STR      r0,[r5,#0x88]
        0x08008072:    6da8        .m      LDR      r0,[r5,#0x58]
        0x08008074:    f4402080    @..     ORR      r0,r0,#0x40000
        0x08008078:    65a8        .e      STR      r0,[r5,#0x58]
        0x0800807a:    6da8        .m      LDR      r0,[r5,#0x58]
        0x0800807c:    f4002080    ...     AND      r0,r0,#0x40000
        0x08008080:    9000        ..      STR      r0,[sp,#0]
        0x08008082:    6ce8        .l      LDR      r0,[r5,#0x4c]
        0x08008084:    f0400002    @...    ORR      r0,r0,#2
        0x08008088:    64e8        .d      STR      r0,[r5,#0x4c]
        0x0800808a:    6ce8        .l      LDR      r0,[r5,#0x4c]
        0x0800808c:    f8dfa068    ..h.    LDR      r10,[pc,#104] ; [0x80080f8] = 0x48000400
        0x08008090:    f0000002    ....    AND      r0,r0,#2
        0x08008094:    9000        ..      STR      r0,[sp,#0]
        0x08008096:    f44f6080    O..`    MOV      r0,#0x400
        0x0800809a:    970f        ..      STR      r7,[sp,#0x3c]
        0x0800809c:    e9cd060a    ....    STRD     r0,r6,[sp,#0x28]
        0x080080a0:    a90a        ..      ADD      r1,sp,#0x28
        0x080080a2:    4650        PF      MOV      r0,r10
        0x080080a4:    f7fafeca    ....    BL       LL_GPIO_Init ; 0x8002e3c
        0x080080a8:    f44f6000    O..`    MOV      r0,#0x800
        0x080080ac:    900a        ..      STR      r0,[sp,#0x28]
        0x080080ae:    e9cd640b    ...d    STRD     r6,r4,[sp,#0x2c]
        0x080080b2:    e9cd470e    ...G    STRD     r4,r7,[sp,#0x38]
        0x080080b6:    a90a        ..      ADD      r1,sp,#0x28
        0x080080b8:    4650        PF      MOV      r0,r10
        0x080080ba:    940d        ..      STR      r4,[sp,#0x34]
        0x080080bc:    f7fafebe    ....    BL       LL_GPIO_Init ; 0x8002e3c
        0x080080c0:    f44f3ae1    O..:    MOV      r10,#0x1c200
        0x080080c4:    e9cd4a02    ...J    STRD     r4,r10,[sp,#8]
        0x080080c8:    e9cd4906    ...I    STRD     r4,r9,[sp,#0x18]
        0x080080cc:    f8dfb050    ..P.    LDR      r11,[pc,#80] ; [0x8008120] = 0x40004800
        0x080080d0:    9404        ..      STR      r4,[sp,#0x10]
        0x080080d2:    9405        ..      STR      r4,[sp,#0x14]
        0x080080d4:    9408        ..      STR      r4,[sp,#0x20]
        0x080080d6:    a902        ..      ADD      r1,sp,#8
        0x080080d8:    4658        XF      MOV      r0,r11
        0x080080da:    9409        ..      STR      r4,[sp,#0x24]
        0x080080dc:    f7fbfae8    ....    BL       LL_USART_Init ; 0x80036b0
        0x080080e0:    2200        ."      MOVS     r2,#0
        0x080080e2:    f10b0008    ....    ADD      r0,r11,#8
        0x080080e6:    bf00        ..      NOP      
        0x080080e8:    e8501f00    P...    LDREX    r1,[r0]
        0x080080ec:    f362715f    b._q    BFI      r1,r2,#29,#3
        0x080080f0:    e8401300    @...    STREX    r3,r1,[r0]
        0x080080f4:    2b00        .+      CMP      r3,#0
        0x080080f6:    e015        ..      B        0x8008124 ; main + 4436
    $d
        0x080080f8:    48000400    ...H    DCD    1207960576
        0x080080fc:    40000400    ...@    DCD    1073742848
        0x08008100:    080089dc    ....    DCD    134253020
        0x08008104:    080089f0    ....    DCD    134253040
        0x08008108:    080089fa    ....    DCD    134253050
        0x0800810c:    48000800    ...H    DCD    1207961600
        0x08008110:    40020000    ...@    DCD    1073872896
        0x08008114:    080089d6    ....    DCD    134253014
        0x08008118:    0016e360    `...    DCD    1500000
        0x0800811c:    40013800    .8.@    DCD    1073821696
        0x08008120:    40004800    .H.@    DCD    1073760256
    $t
        0x08008124:    d1e0        ..      BNE      0x80080e8 ; main + 4376
        0x08008126:    2100        .!      MOVS     r1,#0
        0x08008128:    f10b0008    ....    ADD      r0,r11,#8
        0x0800812c:    e8502f00    P../    LDREX    r2,[r0]
        0x08008130:    f0226260    ".`b    BIC      r2,r2,#0xe000000
        0x08008134:    ea426241    B.Ab    ORR      r2,r2,r1,LSL #25
        0x08008138:    e8402300    @..#    STREX    r3,r2,[r0]
        0x0800813c:    2b00        .+      CMP      r3,#0
        0x0800813e:    d1f5        ..      BNE      0x800812c ; main + 4444
        0x08008140:    f8db0000    ....    LDR      r0,[r11,#0]
        0x08008144:    f0205000     ..P    BIC      r0,r0,#0x20000000
        0x08008148:    f8cb0000    ....    STR      r0,[r11,#0]
        0x0800814c:    f8db0004    ....    LDR      r0,[r11,#4]
        0x08008150:    f4204090     ..@    BIC      r0,r0,#0x4800
        0x08008154:    f8cb0004    ....    STR      r0,[r11,#4]
        0x08008158:    f8db0008    ....    LDR      r0,[r11,#8]
        0x0800815c:    f020002a     .*.    BIC      r0,r0,#0x2a
        0x08008160:    f8cb0008    ....    STR      r0,[r11,#8]
        0x08008164:    f8db0000    ....    LDR      r0,[r11,#0]
        0x08008168:    f0400001    @...    ORR      r0,r0,#1
        0x0800816c:    f8cb0000    ....    STR      r0,[r11,#0]
        0x08008170:    f8db001c    ....    LDR      r0,[r11,#0x1c]
        0x08008174:    f3c05040    ..@P    UBFX     r0,r0,#21,#1
        0x08008178:    2800        .(      CMP      r0,#0
        0x0800817a:    d0f9        ..      BEQ      0x8008170 ; main + 4512
        0x0800817c:    f8db001c    ....    LDR      r0,[r11,#0x1c]
        0x08008180:    f3c05080    ...P    UBFX     r0,r0,#22,#1
        0x08008184:    2800        .(      CMP      r0,#0
        0x08008186:    d0f3        ..      BEQ      0x8008170 ; main + 4512
        0x08008188:    9409        ..      STR      r4,[sp,#0x24]
        0x0800818a:    940a        ..      STR      r4,[sp,#0x28]
        0x0800818c:    9408        ..      STR      r4,[sp,#0x20]
        0x0800818e:    940b        ..      STR      r4,[sp,#0x2c]
        0x08008190:    940e        ..      STR      r4,[sp,#0x38]
        0x08008192:    940f        ..      STR      r4,[sp,#0x3c]
        0x08008194:    940c        ..      STR      r4,[sp,#0x30]
        0x08008196:    940d        ..      STR      r4,[sp,#0x34]
        0x08008198:    9404        ..      STR      r4,[sp,#0x10]
        0x0800819a:    9405        ..      STR      r4,[sp,#0x14]
        0x0800819c:    9406        ..      STR      r4,[sp,#0x18]
        0x0800819e:    f8d50088    ....    LDR      r0,[r5,#0x88]
        0x080081a2:    f020000c     ...    BIC      r0,r0,#0xc
        0x080081a6:    f8c50088    ....    STR      r0,[r5,#0x88]
        0x080081aa:    6da8        .m      LDR      r0,[r5,#0x58]
        0x080081ac:    f4403000    @..0    ORR      r0,r0,#0x20000
        0x080081b0:    65a8        .e      STR      r0,[r5,#0x58]
        0x080081b2:    6da8        .m      LDR      r0,[r5,#0x58]
        0x080081b4:    f4003000    ...0    AND      r0,r0,#0x20000
        0x080081b8:    9000        ..      STR      r0,[sp,#0]
        0x080081ba:    6ce8        .l      LDR      r0,[r5,#0x4c]
        0x080081bc:    f0400001    @...    ORR      r0,r0,#1
        0x080081c0:    64e8        .d      STR      r0,[r5,#0x4c]
        0x080081c2:    6ce8        .l      LDR      r0,[r5,#0x4c]
        0x080081c4:    9707        ..      STR      r7,[sp,#0x1c]
        0x080081c6:    f0000001    ....    AND      r0,r0,#1
        0x080081ca:    9000        ..      STR      r0,[sp,#0]
        0x080081cc:    2004        .       MOVS     r0,#4
        0x080081ce:    e9cd0602    ....    STRD     r0,r6,[sp,#8]
        0x080081d2:    a902        ..      ADD      r1,sp,#8
        0x080081d4:    f04f4090    O..@    MOV      r0,#0x48000000
        0x080081d8:    f7fafe30    ..0.    BL       LL_GPIO_Init ; 0x8002e3c
        0x080081dc:    2008        .       MOVS     r0,#8
        0x080081de:    9002        ..      STR      r0,[sp,#8]
        0x080081e0:    e9cd6403    ...d    STRD     r6,r4,[sp,#0xc]
        0x080081e4:    e9cd4706    ...G    STRD     r4,r7,[sp,#0x18]
        0x080081e8:    a902        ..      ADD      r1,sp,#8
        0x080081ea:    f04f4090    O..@    MOV      r0,#0x48000000
        0x080081ee:    9405        ..      STR      r4,[sp,#0x14]
        0x080081f0:    f7fafe24    ..$.    BL       LL_GPIO_Init ; 0x8002e3c
        0x080081f4:    e9cd4a08    ...J    STRD     r4,r10,[sp,#0x20]
        0x080081f8:    e9cd490c    ...I    STRD     r4,r9,[sp,#0x30]
        0x080081fc:    4ed6        .N      LDR      r6,[pc,#856] ; [0x8008558] = 0x40004400
        0x080081fe:    940a        ..      STR      r4,[sp,#0x28]
        0x08008200:    940b        ..      STR      r4,[sp,#0x2c]
        0x08008202:    940e        ..      STR      r4,[sp,#0x38]
        0x08008204:    a908        ..      ADD      r1,sp,#0x20
        0x08008206:    4630        0F      MOV      r0,r6
        0x08008208:    940f        ..      STR      r4,[sp,#0x3c]
        0x0800820a:    f7fbfa51    ..Q.    BL       LL_USART_Init ; 0x80036b0
        0x0800820e:    2200        ."      MOVS     r2,#0
        0x08008210:    f1060108    ....    ADD      r1,r6,#8
        0x08008214:    e8510f00    Q...    LDREX    r0,[r1]
        0x08008218:    f362705f    b._p    BFI      r0,r2,#29,#3
        0x0800821c:    e8410300    A...    STREX    r3,r0,[r1]
        0x08008220:    2b00        .+      CMP      r3,#0
        0x08008222:    d1f7        ..      BNE      0x8008214 ; main + 4676
        0x08008224:    2100        .!      MOVS     r1,#0
        0x08008226:    f1060008    ....    ADD      r0,r6,#8
        0x0800822a:    bf00        ..      NOP      
        0x0800822c:    e8502f00    P../    LDREX    r2,[r0]
        0x08008230:    f0226260    ".`b    BIC      r2,r2,#0xe000000
        0x08008234:    ea426241    B.Ab    ORR      r2,r2,r1,LSL #25
        0x08008238:    e8402300    @..#    STREX    r3,r2,[r0]
        0x0800823c:    2b00        .+      CMP      r3,#0
        0x0800823e:    d1f5        ..      BNE      0x800822c ; main + 4700
        0x08008240:    6830        0h      LDR      r0,[r6,#0]
        0x08008242:    f0205000     ..P    BIC      r0,r0,#0x20000000
        0x08008246:    6030        0`      STR      r0,[r6,#0]
        0x08008248:    6870        ph      LDR      r0,[r6,#4]
        0x0800824a:    f4204090     ..@    BIC      r0,r0,#0x4800
        0x0800824e:    6070        p`      STR      r0,[r6,#4]
        0x08008250:    68b0        .h      LDR      r0,[r6,#8]
        0x08008252:    f020002a     .*.    BIC      r0,r0,#0x2a
        0x08008256:    60b0        .`      STR      r0,[r6,#8]
        0x08008258:    6830        0h      LDR      r0,[r6,#0]
        0x0800825a:    f0400001    @...    ORR      r0,r0,#1
        0x0800825e:    6030        0`      STR      r0,[r6,#0]
        0x08008260:    69f0        .i      LDR      r0,[r6,#0x1c]
        0x08008262:    f3c05040    ..@P    UBFX     r0,r0,#21,#1
        0x08008266:    2800        .(      CMP      r0,#0
        0x08008268:    d0fa        ..      BEQ      0x8008260 ; main + 4752
        0x0800826a:    69f0        .i      LDR      r0,[r6,#0x1c]
        0x0800826c:    f3c05080    ...P    UBFX     r0,r0,#22,#1
        0x08008270:    2800        .(      CMP      r0,#0
        0x08008272:    d0f5        ..      BEQ      0x8008260 ; main + 4752
        0x08008274:    6ca8        .l      LDR      r0,[r5,#0x48]
        0x08008276:    f0400008    @...    ORR      r0,r0,#8
        0x0800827a:    64a8        .d      STR      r0,[r5,#0x48]
        0x0800827c:    6ca8        .l      LDR      r0,[r5,#0x48]
        0x0800827e:    9400        ..      STR      r4,[sp,#0]
        0x08008280:    f0000008    ....    AND      r0,r0,#8
        0x08008284:    9401        ..      STR      r4,[sp,#4]
        0x08008286:    9403        ..      STR      r4,[sp,#0xc]
        0x08008288:    9404        ..      STR      r4,[sp,#0x10]
        0x0800828a:    6e28        (n      LDR      r0,[r5,#0x60]
        0x0800828c:    f4403000    @..0    ORR      r0,r0,#0x20000
        0x08008290:    6628        (f      STR      r0,[r5,#0x60]
        0x08008292:    6e28        (n      LDR      r0,[r5,#0x60]
        0x08008294:    4669        iF      MOV      r1,sp
        0x08008296:    f4003000    ...0    AND      r0,r0,#0x20000
        0x0800829a:    9005        ..      STR      r0,[sp,#0x14]
        0x0800829c:    f8ad4000    ...@    STRH     r4,[sp,#0]
        0x080082a0:    f64f70ff    O..p    MOV      r0,#0xffff
        0x080082a4:    4cad        .L      LDR      r4,[pc,#692] ; [0x800855c] = 0x40014400
        0x080082a6:    9002        ..      STR      r0,[sp,#8]
        0x080082a8:    4620         F      MOV      r0,r4
        0x080082aa:    f7faffff    ....    BL       LL_TIM_Init ; 0x80032ac
        0x080082ae:    6820         h      LDR      r0,[r4,#0]
        0x080082b0:    f0200080     ...    BIC      r0,r0,#0x80
        0x080082b4:    6020         `      STR      r0,[r4,#0]
        0x080082b6:    f7fbfebb    ....    BL       MX_USB_Device_Init ; 0x8004030
        0x080082ba:    49a9        .I      LDR      r1,[pc,#676] ; [0x8008560] = 0x40022000
        0x080082bc:    6f08        .o      LDR      r0,[r1,#0x70]
        0x080082be:    f4103f80    ...?    TST      r0,#0x10000
        0x080082c2:    d11b        ..      BNE      0x80082fc ; main + 4908
        0x080082c4:    48a7        .H      LDR      r0,[pc,#668] ; [0x8008564] = 0x45670123
        0x080082c6:    6088        .`      STR      r0,[r1,#8]
        0x080082c8:    48a7        .H      LDR      r0,[pc,#668] ; [0x8008568] = 0xcdef89ab
        0x080082ca:    6088        .`      STR      r0,[r1,#8]
        0x080082cc:    48a7        .H      LDR      r0,[pc,#668] ; [0x800856c] = 0x8192a3b
        0x080082ce:    60c8        .`      STR      r0,[r1,#0xc]
        0x080082d0:    48a7        .H      LDR      r0,[pc,#668] ; [0x8008570] = 0x4c5d6e7f
        0x080082d2:    60c8        .`      STR      r0,[r1,#0xc]
        0x080082d4:    6908        .i      LDR      r0,[r1,#0x10]
        0x080082d6:    f4103f80    ...?    TST      r0,#0x10000
        0x080082da:    d1fb        ..      BNE      0x80082d4 ; main + 4868
        0x080082dc:    6948        Hi      LDR      r0,[r1,#0x14]
        0x080082de:    f0204080     ..@    BIC      r0,r0,#0x40000000
        0x080082e2:    6148        Ha      STR      r0,[r1,#0x14]
        0x080082e4:    6f08        .o      LDR      r0,[r1,#0x70]
        0x080082e6:    f4403080    @..0    ORR      r0,r0,#0x10000
        0x080082ea:    6708        .g      STR      r0,[r1,#0x70]
        0x080082ec:    6948        Hi      LDR      r0,[r1,#0x14]
        0x080082ee:    f4403000    @..0    ORR      r0,r0,#0x20000
        0x080082f2:    6148        Ha      STR      r0,[r1,#0x14]
        0x080082f4:    6908        .i      LDR      r0,[r1,#0x10]
        0x080082f6:    f4103f80    ...?    TST      r0,#0x10000
        0x080082fa:    d1fb        ..      BNE      0x80082f4 ; main + 4900
        0x080082fc:    f7fcfcb4    ....    BL       SEGGER_RTT_Init ; 0x8004c68
        0x08008300:    489c        .H      LDR      r0,[pc,#624] ; [0x8008574] = 0x40020c00
        0x08008302:    6801        .h      LDR      r1,[r0,#0]
        0x08008304:    4a9c        .J      LDR      r2,[pc,#624] ; [0x8008578] = 0xff87f800
        0x08008306:    4011        .@      ANDS     r1,r1,r2
        0x08008308:    ea4121e0    A..!    ORR      r1,r1,r0,ASR #11
        0x0800830c:    6001        .`      STR      r1,[r0,#0]
        0x0800830e:    489b        .H      LDR      r0,[pc,#620] ; [0x800857c] = 0x20000140
        0x08008310:    6800        .h      LDR      r0,[r0,#0]
        0x08008312:    4780        .G      BLX      r0
        0x08008314:    499a        .I      LDR      r1,[pc,#616] ; [0x8008580] = 0x50001000
        0x08008316:    6808        .h      LDR      r0,[r1,#0]
        0x08008318:    f0400001    @...    ORR      r0,r0,#1
        0x0800831c:    6008        .`      STR      r0,[r1,#0]
        0x0800831e:    6808        .h      LDR      r0,[r1,#0]
        0x08008320:    f4403080    @..0    ORR      r0,r0,#0x10000
        0x08008324:    6008        .`      STR      r0,[r1,#0]
        0x08008326:    4897        .H      LDR      r0,[pc,#604] ; [0x8008584] = 0x50001008
        0x08008328:    6802        .h      LDR      r2,[r0,#0]
        0x0800832a:    f36f020b    o...    BFC      r2,#0,#12
        0x0800832e:    f442627a    B.zb    ORR      r2,r2,#0xfa0
        0x08008332:    6002        .`      STR      r2,[r0,#0]
        0x08008334:    4894        .H      LDR      r0,[pc,#592] ; [0x8008588] = 0x50001014
        0x08008336:    6802        .h      LDR      r2,[r0,#0]
        0x08008338:    f36f020b    o...    BFC      r2,#0,#12
        0x0800833c:    f442627a    B.zb    ORR      r2,r2,#0xfa0
        0x08008340:    6002        .`      STR      r2,[r0,#0]
        0x08008342:    6848        Hh      LDR      r0,[r1,#4]
        0x08008344:    f0400001    @...    ORR      r0,r0,#1
        0x08008348:    6048        H`      STR      r0,[r1,#4]
        0x0800834a:    6848        Hh      LDR      r0,[r1,#4]
        0x0800834c:    f0100f01    ....    TST      r0,#1
        0x08008350:    d1fb        ..      BNE      0x800834a ; main + 4986
        0x08008352:    6848        Hh      LDR      r0,[r1,#4]
        0x08008354:    f0400002    @...    ORR      r0,r0,#2
        0x08008358:    6048        H`      STR      r0,[r1,#4]
        0x0800835a:    6848        Hh      LDR      r0,[r1,#4]
        0x0800835c:    f0100f02    ....    TST      r0,#2
        0x08008360:    d1fb        ..      BNE      0x800835a ; main + 5002
        0x08008362:    488a        .H      LDR      r0,[pc,#552] ; [0x800858c] = 0x40010204
        0x08008364:    6801        .h      LDR      r1,[r0,#0]
        0x08008366:    f0410101    A...    ORR      r1,r1,#1
        0x0800836a:    6001        .`      STR      r1,[r0,#0]
        0x0800836c:    1d00        ..      ADDS     r0,r0,#4
        0x0800836e:    6801        .h      LDR      r1,[r0,#0]
        0x08008370:    f0410101    A...    ORR      r1,r1,#1
        0x08008374:    6001        .`      STR      r1,[r0,#0]
        0x08008376:    1d00        ..      ADDS     r0,r0,#4
        0x08008378:    6801        .h      LDR      r1,[r0,#0]
        0x0800837a:    f0410101    A...    ORR      r1,r1,#1
        0x0800837e:    6001        .`      STR      r1,[r0,#0]
        0x08008380:    4983        .I      LDR      r1,[pc,#524] ; [0x8008590] = 0x50000800
        0x08008382:    6808        .h      LDR      r0,[r1,#0]
        0x08008384:    f0400001    @...    ORR      r0,r0,#1
        0x08008388:    6008        .`      STR      r0,[r1,#0]
        0x0800838a:    4882        .H      LDR      r0,[pc,#520] ; [0x8008594] = 0x50000808
        0x0800838c:    f64012c4    @...    MOV      r2,#0x9c4
        0x08008390:    6803        .h      LDR      r3,[r0,#0]
        0x08008392:    f36f030b    o...    BFC      r3,#0,#12
        0x08008396:    431a        .C      ORRS     r2,r2,r3
        0x08008398:    6002        .`      STR      r2,[r0,#0]
        0x0800839a:    6848        Hh      LDR      r0,[r1,#4]
        0x0800839c:    f0400001    @...    ORR      r0,r0,#1
        0x080083a0:    6048        H`      STR      r0,[r1,#4]
        0x080083a2:    1d09        ..      ADDS     r1,r1,#4
        0x080083a4:    6808        .h      LDR      r0,[r1,#0]
        0x080083a6:    f0100f01    ....    TST      r0,#1
        0x080083aa:    d1fb        ..      BNE      0x80083a4 ; main + 5076
        0x080083ac:    487a        zH      LDR      r0,[pc,#488] ; [0x8008598] = 0x40010200
        0x080083ae:    6801        .h      LDR      r1,[r0,#0]
        0x080083b0:    f0410101    A...    ORR      r1,r1,#1
        0x080083b4:    6001        .`      STR      r1,[r0,#0]
        0x080083b6:    f04f42a0    O..B    MOV      r2,#0x50000000
        0x080083ba:    6890        .h      LDR      r0,[r2,#8]
        0x080083bc:    f020003f     .?.    BIC      r0,r0,#0x3f
        0x080083c0:    f0204040     .@@    BIC      r0,r0,#0xc0000000
        0x080083c4:    f0404000    @..@    ORR      r0,r0,#0x80000000
        0x080083c8:    6090        .`      STR      r0,[r2,#8]
        0x080083ca:    6890        .h      LDR      r0,[r2,#8]
        0x080083cc:    0fc0        ..      LSRS     r0,r0,#31
        0x080083ce:    d1fc        ..      BNE      0x80083ca ; main + 5114
        0x080083d0:    4972        rI      LDR      r1,[pc,#456] ; [0x800859c] = 0x50000100
        0x080083d2:    6888        .h      LDR      r0,[r1,#8]
        0x080083d4:    f020003f     .?.    BIC      r0,r0,#0x3f
        0x080083d8:    f0204040     .@@    BIC      r0,r0,#0xc0000000
        0x080083dc:    f0404000    @..@    ORR      r0,r0,#0x80000000
        0x080083e0:    6088        .`      STR      r0,[r1,#8]
        0x080083e2:    6888        .h      LDR      r0,[r1,#8]
        0x080083e4:    0fc0        ..      LSRS     r0,r0,#31
        0x080083e6:    d1fc        ..      BNE      0x80083e2 ; main + 5138
        0x080083e8:    6890        .h      LDR      r0,[r2,#8]
        0x080083ea:    f020003f     .?.    BIC      r0,r0,#0x3f
        0x080083ee:    f0204000     ..@    BIC      r0,r0,#0x80000000
        0x080083f2:    f0400008    @...    ORR      r0,r0,#8
        0x080083f6:    6090        .`      STR      r0,[r2,#8]
        0x080083f8:    6850        Ph      LDR      r0,[r2,#4]
        0x080083fa:    f0400040    @.@.    ORR      r0,r0,#0x40
        0x080083fe:    6050        P`      STR      r0,[r2,#4]
        0x08008400:    6890        .h      LDR      r0,[r2,#8]
        0x08008402:    f020003f     .?.    BIC      r0,r0,#0x3f
        0x08008406:    f0204000     ..@    BIC      r0,r0,#0x80000000
        0x0800840a:    f0400001    @...    ORR      r0,r0,#1
        0x0800840e:    6090        .`      STR      r0,[r2,#8]
        0x08008410:    6888        .h      LDR      r0,[r1,#8]
        0x08008412:    f020003f     .?.    BIC      r0,r0,#0x3f
        0x08008416:    f0204000     ..@    BIC      r0,r0,#0x80000000
        0x0800841a:    f0400008    @...    ORR      r0,r0,#8
        0x0800841e:    6088        .`      STR      r0,[r1,#8]
        0x08008420:    6848        Hh      LDR      r0,[r1,#4]
        0x08008422:    f0400040    @.@.    ORR      r0,r0,#0x40
        0x08008426:    6048        H`      STR      r0,[r1,#4]
        0x08008428:    6888        .h      LDR      r0,[r1,#8]
        0x0800842a:    f020003f     .?.    BIC      r0,r0,#0x3f
        0x0800842e:    f0204000     ..@    BIC      r0,r0,#0x80000000
        0x08008432:    f0400001    @...    ORR      r0,r0,#1
        0x08008436:    6088        .`      STR      r0,[r1,#8]
        0x08008438:    4959        YI      LDR      r1,[pc,#356] ; [0x80085a0] = 0x40012c00
        0x0800843a:    2000        .       MOVS     r0,#0
        0x0800843c:    6348        Hc      STR      r0,[r1,#0x34]
        0x0800843e:    6388        .c      STR      r0,[r1,#0x38]
        0x08008440:    63c8        .c      STR      r0,[r1,#0x3c]
        0x08008442:    6c48        Hl      LDR      r0,[r1,#0x44]
        0x08008444:    f4405080    @..P    ORR      r0,r0,#0x1000
        0x08008448:    6448        Hd      STR      r0,[r1,#0x44]
        0x0800844a:    6c48        Hl      LDR      r0,[r1,#0x44]
        0x0800844c:    f4204000     ..@    BIC      r0,r0,#0x8000
        0x08008450:    6448        Hd      STR      r0,[r1,#0x44]
        0x08008452:    6a08        .j      LDR      r0,[r1,#0x20]
        0x08008454:    f0200001     ...    BIC      r0,r0,#1
        0x08008458:    6208        .b      STR      r0,[r1,#0x20]
        0x0800845a:    6a08        .j      LDR      r0,[r1,#0x20]
        0x0800845c:    f0200004     ...    BIC      r0,r0,#4
        0x08008460:    6208        .b      STR      r0,[r1,#0x20]
        0x08008462:    6a08        .j      LDR      r0,[r1,#0x20]
        0x08008464:    f0200010     ...    BIC      r0,r0,#0x10
        0x08008468:    6208        .b      STR      r0,[r1,#0x20]
        0x0800846a:    6a08        .j      LDR      r0,[r1,#0x20]
        0x0800846c:    f0200040     .@.    BIC      r0,r0,#0x40
        0x08008470:    6208        .b      STR      r0,[r1,#0x20]
        0x08008472:    6a08        .j      LDR      r0,[r1,#0x20]
        0x08008474:    f4207080     ..p    BIC      r0,r0,#0x100
        0x08008478:    6208        .b      STR      r0,[r1,#0x20]
        0x0800847a:    6a08        .j      LDR      r0,[r1,#0x20]
        0x0800847c:    f4206080     ..`    BIC      r0,r0,#0x400
        0x08008480:    6208        .b      STR      r0,[r1,#0x20]
        0x08008482:    6808        .h      LDR      r0,[r1,#0]
        0x08008484:    f0400001    @...    ORR      r0,r0,#1
        0x08008488:    6008        .`      STR      r0,[r1,#0]
        0x0800848a:    4846        FH      LDR      r0,[pc,#280] ; [0x80085a4] = 0x40000400
        0x0800848c:    6801        .h      LDR      r1,[r0,#0]
        0x0800848e:    f0410101    A...    ORR      r1,r1,#1
        0x08008492:    6001        .`      STR      r1,[r0,#0]
        0x08008494:    4844        DH      LDR      r0,[pc,#272] ; [0x80085a8] = 0x40005400
        0x08008496:    6841        Ah      LDR      r1,[r0,#4]
        0x08008498:    f4416180    A..a    ORR      r1,r1,#0x400
        0x0800849c:    6041        A`      STR      r1,[r0,#4]
        0x0800849e:    6841        Ah      LDR      r1,[r0,#4]
        0x080084a0:    f36f0109    o...    BFC      r1,#0,#10
        0x080084a4:    f0410190    A...    ORR      r1,r1,#0x90
        0x080084a8:    6041        A`      STR      r1,[r0,#4]
        0x080084aa:    6841        Ah      LDR      r1,[r0,#4]
        0x080084ac:    f421017f    !...    BIC      r1,r1,#0xff0000
        0x080084b0:    f4413100    A..1    ORR      r1,r1,#0x20000
        0x080084b4:    6041        A`      STR      r1,[r0,#4]
        0x080084b6:    6801        .h      LDR      r1,[r0,#0]
        0x080084b8:    f4414100    A..A    ORR      r1,r1,#0x8000
        0x080084bc:    6001        .`      STR      r1,[r0,#0]
        0x080084be:    6801        .h      LDR      r1,[r0,#0]
        0x080084c0:    f0410101    A...    ORR      r1,r1,#1
        0x080084c4:    6001        .`      STR      r1,[r0,#0]
        0x080084c6:    f8983001    ...0    LDRB     r3,[r8,#1]
        0x080084ca:    f8dfc0ec    ....    LDR      r12,[pc,#236] ; [0x80085b8] = 0x40020408
        0x080084ce:    4937        7I      LDR      r1,[pc,#220] ; [0x80085ac] = 0x40020400
        0x080084d0:    4a37        7J      LDR      r2,[pc,#220] ; [0x80085b0] = 0x40005424
        0x080084d2:    4838        8H      LDR      r0,[pc,#224] ; [0x80085b4] = 0x20000000
        0x080084d4:    f843200c    C..     STR      r2,[r3,r12]
        0x080084d8:    f8982001    ...     LDRB     r2,[r8,#1]
        0x080084dc:    f10c0304    ....    ADD      r3,r12,#4
        0x080084e0:    50d0        .P      STR      r0,[r2,r3]
        0x080084e2:    f8982001    ...     LDRB     r2,[r8,#1]
        0x080084e6:    1d08        ..      ADDS     r0,r1,#4
        0x080084e8:    5812        .X      LDR      r2,[r2,r0]
        0x080084ea:    f8983001    ...0    LDRB     r3,[r8,#1]
        0x080084ee:    f36f020f    o...    BFC      r2,#0,#16
        0x080084f2:    f0420202    B...    ORR      r2,r2,#2
        0x080084f6:    501a        .P      STR      r2,[r3,r0]
        0x080084f8:    f8980001    ....    LDRB     r0,[r8,#1]
        0x080084fc:    5808        .X      LDR      r0,[r1,r0]
        0x080084fe:    f8982001    ...     LDRB     r2,[r8,#1]
        0x08008502:    f0400001    @...    ORR      r0,r0,#1
        0x08008506:    5088        .P      STR      r0,[r1,r2]
        0x08008508:    6820         h      LDR      r0,[r4,#0]
        0x0800850a:    f0400001    @...    ORR      r0,r0,#1
        0x0800850e:    6020         `      STR      r0,[r4,#0]
        0x08008510:    f04f20e0    O..     MOV      r0,#0xe000e000
        0x08008514:    6901        .i      LDR      r1,[r0,#0x10]
        0x08008516:    f0410102    A...    ORR      r1,r1,#2
        0x0800851a:    6101        .a      STR      r1,[r0,#0x10]
        0x0800851c:    e7fe        ..      B        0x800851c ; main + 5452
        0x0800851e:    9802        ..      LDR      r0,[sp,#8]
        0x08008520:    1e40        @.      SUBS     r0,r0,#1
        0x08008522:    9002        ..      STR      r0,[sp,#8]
        0x08008524:    d1fc        ..      BNE      0x8008520 ; main + 5456
        0x08008526:    f7febecf    ....    B        0x80072c8 ; main + 760
        0x0800852a:    9802        ..      LDR      r0,[sp,#8]
        0x0800852c:    1e40        @.      SUBS     r0,r0,#1
        0x0800852e:    9002        ..      STR      r0,[sp,#8]
        0x08008530:    d1fc        ..      BNE      0x800852c ; main + 5468
        0x08008532:    f7febf22    ..".    B        0x800737a ; main + 938
        0x08008536:    9807        ..      LDR      r0,[sp,#0x1c]
        0x08008538:    1e40        @.      SUBS     r0,r0,#1
        0x0800853a:    9007        ..      STR      r0,[sp,#0x1c]
        0x0800853c:    d1fc        ..      BNE      0x8008538 ; main + 5480
        0x0800853e:    f7febf94    ....    B        0x800746a ; main + 1178
        0x08008542:    980d        ..      LDR      r0,[sp,#0x34]
        0x08008544:    1e40        @.      SUBS     r0,r0,#1
        0x08008546:    900d        ..      STR      r0,[sp,#0x34]
        0x08008548:    d1fc        ..      BNE      0x8008544 ; main + 5492
        0x0800854a:    f7febfe1    ....    B        0x8007510 ; main + 1344
        0x0800854e:    1e40        @.      SUBS     r0,r0,#1
        0x08008550:    d1fd        ..      BNE      0x800854e ; main + 5502
        0x08008552:    f7ffb919    ....    B        0x8007788 ; main + 1976
    $d
        0x08008556:    0000        ..      DCW    0
        0x08008558:    40004400    .D.@    DCD    1073759232
        0x0800855c:    40014400    .D.@    DCD    1073824768
        0x08008560:    40022000    . .@    DCD    1073881088
        0x08008564:    45670123    #.gE    DCD    1164378403
        0x08008568:    cdef89ab    ....    DCD    3455027627
        0x0800856c:    08192a3b    ;*..    DCD    135866939
        0x08008570:    4c5d6e7f    .n]L    DCD    1281191551
        0x08008574:    40020c00    ...@    DCD    1073875968
        0x08008578:    ff87f800    ....    DCD    4287100928
        0x0800857c:    20000140    @..     DCD    536871232
        0x08008580:    50001000    ...P    DCD    1342181376
        0x08008584:    50001008    ...P    DCD    1342181384
        0x08008588:    50001014    ...P    DCD    1342181396
        0x0800858c:    40010204    ...@    DCD    1073807876
        0x08008590:    50000800    ...P    DCD    1342179328
        0x08008594:    50000808    ...P    DCD    1342179336
        0x08008598:    40010200    ...@    DCD    1073807872
        0x0800859c:    50000100    ...P    DCD    1342177536
        0x080085a0:    40012c00    .,.@    DCD    1073818624
        0x080085a4:    40000400    ...@    DCD    1073742848
        0x080085a8:    40005400    .T.@    DCD    1073763328
        0x080085ac:    40020400    ...@    DCD    1073873920
        0x080085b0:    40005424    $T.@    DCD    1073763364
        0x080085b4:    20000000    ...     DCD    536870912
        0x080085b8:    40020408    ...@    DCD    1073873928
    $t
    i.reset_All
    reset_All
        0x080085bc:    48ba        .H      LDR      r0,[pc,#744] ; [0x80088a8] = 0x20000068
        0x080085be:    b500        ..      PUSH     {lr}
        0x080085c0:    2200        ."      MOVS     r2,#0
        0x080085c2:    f8802020    ..      STRB     r2,[r0,#0x20]
        0x080085c6:    7242        Br      STRB     r2,[r0,#9]
        0x080085c8:    21ff        .!      MOVS     r1,#0xff
        0x080085ca:    7201        .r      STRB     r1,[r0,#8]
        0x080085cc:    60c2        .`      STR      r2,[r0,#0xc]
        0x080085ce:    6002        .`      STR      r2,[r0,#0]
        0x080085d0:    6042        B`      STR      r2,[r0,#4]
        0x080085d2:    7402        .t      STRB     r2,[r0,#0x10]
        0x080085d4:    7442        Bt      STRB     r2,[r0,#0x11]
        0x080085d6:    ed9f0ab5    ....    VLDR     s0,[pc,#724] ; [0x80088ac] = 0x3a83126f
        0x080085da:    ed800a05    ....    VSTR     s0,[r0,#0x14]
        0x080085de:    eddf0ab4    ....    VLDR     s1,[pc,#720] ; [0x80088b0] = 0x38d1b717
        0x080085e2:    edc00a06    ....    VSTR     s1,[r0,#0x18]
        0x080085e6:    eddf0ab3    ....    VLDR     s1,[pc,#716] ; [0x80088b4] = 0x31ca1db9
        0x080085ea:    edc00a07    ....    VSTR     s1,[r0,#0x1c]
        0x080085ee:    eddf0ab2    ....    VLDR     s1,[pc,#712] ; [0x80088b8] = 0x4d221fe8
        0x080085f2:    48b2        .H      LDR      r0,[pc,#712] ; [0x80088bc] = 0x2000063c
        0x080085f4:    f2421133    B.3.    MOV      r1,#0x2133
        0x080085f8:    edc00a06    ....    VSTR     s1,[r0,#0x18]
        0x080085fc:    eddf0ab0    ....    VLDR     s1,[pc,#704] ; [0x80088c0] = 0x42100000
        0x08008600:    61c1        .a      STR      r1,[r0,#0x1c]
        0x08008602:    edc00a00    ....    VSTR     s1,[r0,#0]
        0x08008606:    eddf0aaf    ....    VLDR     s1,[pc,#700] ; [0x80088c4] = 0x41a646e2
        0x0800860a:    edc00a01    ....    VSTR     s1,[r0,#4]
        0x0800860e:    eddf1aae    ....    VLDR     s3,[pc,#696] ; [0x80088c8] = 0
        0x08008612:    edc01a04    ....    VSTR     s3,[r0,#0x10]
        0x08008616:    edc01a05    ....    VSTR     s3,[r0,#0x14]
        0x0800861a:    edc01a02    ....    VSTR     s3,[r0,#8]
        0x0800861e:    edc01a03    ....    VSTR     s3,[r0,#0xc]
        0x08008622:    8402        ..      STRH     r2,[r0,#0x20]
        0x08008624:    8442        B.      STRH     r2,[r0,#0x22]
        0x08008626:    8482        ..      STRH     r2,[r0,#0x24]
        0x08008628:    f8802026    ..&     STRB     r2,[r0,#0x26]
        0x0800862c:    eddf0aa7    ....    VLDR     s1,[pc,#668] ; [0x80088cc] = 0x3c426c69
        0x08008630:    3028        (0      ADDS     r0,r0,#0x28
        0x08008632:    edc00a06    ....    VSTR     s1,[r0,#0x18]
        0x08008636:    eddf0aa6    ....    VLDR     s1,[pc,#664] ; [0x80088d0] = 0x358637bd
        0x0800863a:    2104        .!      MOVS     r1,#4
        0x0800863c:    edc00a05    ....    VSTR     s1,[r0,#0x14]
        0x08008640:    ed800a01    ....    VSTR     s0,[r0,#4]
        0x08008644:    ed800a02    ....    VSTR     s0,[r0,#8]
        0x08008648:    ed800a04    ....    VSTR     s0,[r0,#0x10]
        0x0800864c:    7001        .p      STRB     r1,[r0,#0]
        0x0800864e:    eeb50a08    ....    VMOV.F32 s0,#0.37500000
        0x08008652:    ed800a03    ....    VSTR     s0,[r0,#0xc]
        0x08008656:    3048        H0      ADDS     r0,r0,#0x48
        0x08008658:    edc01a08    ....    VSTR     s3,[r0,#0x20]
        0x0800865c:    edc01a07    ....    VSTR     s3,[r0,#0x1c]
        0x08008660:    edc01a03    ....    VSTR     s3,[r0,#0xc]
        0x08008664:    edc01a02    ....    VSTR     s3,[r0,#8]
        0x08008668:    edc01a01    ....    VSTR     s3,[r0,#4]
        0x0800866c:    edc01a06    ....    VSTR     s3,[r0,#0x18]
        0x08008670:    edc01a05    ....    VSTR     s3,[r0,#0x14]
        0x08008674:    edc01a04    ....    VSTR     s3,[r0,#0x10]
        0x08008678:    edc01a09    ....    VSTR     s3,[r0,#0x24]
        0x0800867c:    edc01a0a    ....    VSTR     s3,[r0,#0x28]
        0x08008680:    edc01a0b    ....    VSTR     s3,[r0,#0x2c]
        0x08008684:    edc01a0c    ....    VSTR     s3,[r0,#0x30]
        0x08008688:    edc01a0d    ....    VSTR     s3,[r0,#0x34]
        0x0800868c:    edc01a0e    ....    VSTR     s3,[r0,#0x38]
        0x08008690:    edc01a0f    ....    VSTR     s3,[r0,#0x3c]
        0x08008694:    edc01a10    ....    VSTR     s3,[r0,#0x40]
        0x08008698:    edc01a12    ....    VSTR     s3,[r0,#0x48]
        0x0800869c:    edc01a11    ....    VSTR     s3,[r0,#0x44]
        0x080086a0:    edc01a14    ....    VSTR     s3,[r0,#0x50]
        0x080086a4:    edc01a13    ....    VSTR     s3,[r0,#0x4c]
        0x080086a8:    ed9f0a8a    ....    VLDR     s0,[pc,#552] ; [0x80088d4] = 0x3e4ccccd
        0x080086ac:    3054        T0      ADDS     r0,r0,#0x54
        0x080086ae:    ed800a00    ....    VSTR     s0,[r0,#0]
        0x080086b2:    edc01a0c    ....    VSTR     s3,[r0,#0x30]
        0x080086b6:    edc01a0d    ....    VSTR     s3,[r0,#0x34]
        0x080086ba:    edc01a0b    ....    VSTR     s3,[r0,#0x2c]
        0x080086be:    edc01a01    ....    VSTR     s3,[r0,#4]
        0x080086c2:    eeb70a00    ....    VMOV.F32 s0,#1.00000000
        0x080086c6:    ed800a02    ....    VSTR     s0,[r0,#8]
        0x080086ca:    edc01a08    ....    VSTR     s3,[r0,#0x20]
        0x080086ce:    edc01a07    ....    VSTR     s3,[r0,#0x1c]
        0x080086d2:    edc01a03    ....    VSTR     s3,[r0,#0xc]
        0x080086d6:    edc01a04    ....    VSTR     s3,[r0,#0x10]
        0x080086da:    edc01a05    ....    VSTR     s3,[r0,#0x14]
        0x080086de:    edc01a06    ....    VSTR     s3,[r0,#0x18]
        0x080086e2:    edc01a0e    ....    VSTR     s3,[r0,#0x38]
        0x080086e6:    eddf0a7c    ..|.    VLDR     s1,[pc,#496] ; [0x80088d8] = 0x447a0000
        0x080086ea:    edc00a0f    ....    VSTR     s1,[r0,#0x3c]
        0x080086ee:    edc01a11    ....    VSTR     s3,[r0,#0x44]
        0x080086f2:    edc01a10    ....    VSTR     s3,[r0,#0x40]
        0x080086f6:    edc01a0a    ....    VSTR     s3,[r0,#0x28]
        0x080086fa:    edc01a09    ....    VSTR     s3,[r0,#0x24]
        0x080086fe:    eddf0a77    ..w.    VLDR     s1,[pc,#476] ; [0x80088dc] = 0x43c80000
        0x08008702:    edc00a12    ....    VSTR     s1,[r0,#0x48]
        0x08008706:    eddf0a76    ..v.    VLDR     s1,[pc,#472] ; [0x80088e0] = 0x3dcccccd
        0x0800870a:    edc00a13    ....    VSTR     s1,[r0,#0x4c]
        0x0800870e:    ed800a14    ....    VSTR     s0,[r0,#0x50]
        0x08008712:    3054        T0      ADDS     r0,r0,#0x54
        0x08008714:    edc01a13    ....    VSTR     s3,[r0,#0x4c]
        0x08008718:    edc01a14    ....    VSTR     s3,[r0,#0x50]
        0x0800871c:    eddf0a70    ..p.    VLDR     s1,[pc,#448] ; [0x80088e0] = 0x3dcccccd
        0x08008720:    4970        pI      LDR      r1,[pc,#448] ; [0x80088e4] = 0x20000754
        0x08008722:    edc00a0e    ....    VSTR     s1,[r0,#0x38]
        0x08008726:    2001        .       MOVS     r0,#1
        0x08008728:    f8810058    ..X.    STRB     r0,[r1,#0x58]
        0x0800872c:    4608        .F      MOV      r0,r1
        0x0800872e:    edc01a0a    ....    VSTR     s3,[r0,#0x28]
        0x08008732:    edc01a0b    ....    VSTR     s3,[r0,#0x2c]
        0x08008736:    edc01a08    ....    VSTR     s3,[r0,#0x20]
        0x0800873a:    edc01a09    ....    VSTR     s3,[r0,#0x24]
        0x0800873e:    edc01a04    ....    VSTR     s3,[r0,#0x10]
        0x08008742:    edc01a05    ....    VSTR     s3,[r0,#0x14]
        0x08008746:    edc01a0c    ....    VSTR     s3,[r0,#0x30]
        0x0800874a:    edc01a0d    ....    VSTR     s3,[r0,#0x34]
        0x0800874e:    edc01a15    ....    VSTR     s3,[r0,#0x54]
        0x08008752:    edc01a0f    ....    VSTR     s3,[r0,#0x3c]
        0x08008756:    edc01a10    ....    VSTR     s3,[r0,#0x40]
        0x0800875a:    edc01a07    ....    VSTR     s3,[r0,#0x1c]
        0x0800875e:    edc01a06    ....    VSTR     s3,[r0,#0x18]
        0x08008762:    eddf0a5f    .._.    VLDR     s1,[pc,#380] ; [0x80088e0] = 0x3dcccccd
        0x08008766:    eeb12a00    ...*    VMOV.F32 s4,#4.00000000
        0x0800876a:    edc00a11    ....    VSTR     s1,[r0,#0x44]
        0x0800876e:    ed800a12    ....    VSTR     s0,[r0,#0x48]
        0x08008772:    edc01a01    ....    VSTR     s3,[r0,#4]
        0x08008776:    edc01a00    ....    VSTR     s3,[r0,#0]
        0x0800877a:    edc01a03    ....    VSTR     s3,[r0,#0xc]
        0x0800877e:    edc01a02    ....    VSTR     s3,[r0,#8]
        0x08008782:    305c        \0      ADDS     r0,r0,#0x5c
        0x08008784:    edc01a03    ....    VSTR     s3,[r0,#0xc]
        0x08008788:    3014        .0      ADDS     r0,r0,#0x14
        0x0800878a:    edc01a03    ....    VSTR     s3,[r0,#0xc]
        0x0800878e:    3014        .0      ADDS     r0,r0,#0x14
        0x08008790:    edc01a03    ....    VSTR     s3,[r0,#0xc]
        0x08008794:    edc01a00    ....    VSTR     s3,[r0,#0]
        0x08008798:    3014        .0      ADDS     r0,r0,#0x14
        0x0800879a:    ed802a00    ...*    VSTR     s4,[r0,#0]
        0x0800879e:    ed802a01    ...*    VSTR     s4,[r0,#4]
        0x080087a2:    eddf0a51    ..Q.    VLDR     s1,[pc,#324] ; [0x80088e8] = 0x3cf5c28f
        0x080087a6:    edc00a03    ....    VSTR     s1,[r0,#0xc]
        0x080087aa:    eddf0a50    ..P.    VLDR     s1,[pc,#320] ; [0x80088ec] = 0xbcf5c28f
        0x080087ae:    2105        .!      MOVS     r1,#5
        0x080087b0:    edc00a04    ....    VSTR     s1,[r0,#0x10]
        0x080087b4:    6281        .b      STR      r1,[r0,#0x28]
        0x080087b6:    f8802030    ..0     STRB     r2,[r0,#0x30]
        0x080087ba:    edc01a05    ....    VSTR     s3,[r0,#0x14]
        0x080087be:    edc01a06    ....    VSTR     s3,[r0,#0x18]
        0x080087c2:    edc01a0b    ....    VSTR     s3,[r0,#0x2c]
        0x080087c6:    6242        Bb      STR      r2,[r0,#0x24]
        0x080087c8:    edc01a02    ....    VSTR     s3,[r0,#8]
        0x080087cc:    2114        .!      MOVS     r1,#0x14
        0x080087ce:    e9c02107    ...!    STRD     r2,r1,[r0,#0x1c]
        0x080087d2:    eddf0a47    ..G.    VLDR     s1,[pc,#284] ; [0x80088f0] = 0x3e99999a
        0x080087d6:    3034        40      ADDS     r0,r0,#0x34
        0x080087d8:    edc00a01    ....    VSTR     s1,[r0,#4]
        0x080087dc:    eddf0a45    ..E.    VLDR     s1,[pc,#276] ; [0x80088f4] = 0x43480000
        0x080087e0:    edc00a00    ....    VSTR     s1,[r0,#0]
        0x080087e4:    edc01a10    ....    VSTR     s3,[r0,#0x40]
        0x080087e8:    edc01a0f    ....    VSTR     s3,[r0,#0x3c]
        0x080087ec:    eddf0a42    ..B.    VLDR     s1,[pc,#264] ; [0x80088f8] = 0xbed0ecfa
        0x080087f0:    edc00a04    ....    VSTR     s1,[r0,#0x10]
        0x080087f4:    ed800a03    ....    VSTR     s0,[r0,#0xc]
        0x080087f8:    3044        D0      ADDS     r0,r0,#0x44
        0x080087fa:    edc01a07    ....    VSTR     s3,[r0,#0x1c]
        0x080087fe:    edc01a0c    ....    VSTR     s3,[r0,#0x30]
        0x08008802:    edc01a0b    ....    VSTR     s3,[r0,#0x2c]
        0x08008806:    ed9f0a3d    ..=.    VLDR     s0,[pc,#244] ; [0x80088fc] = 0x40666666
        0x0800880a:    ed800a03    ....    VSTR     s0,[r0,#0xc]
        0x0800880e:    ed9f0a3c    ..<.    VLDR     s0,[pc,#240] ; [0x8008900] = 0xc0666666
        0x08008812:    ed800a04    ....    VSTR     s0,[r0,#0x10]
        0x08008816:    edc01a05    ....    VSTR     s3,[r0,#0x14]
        0x0800881a:    edc01a06    ....    VSTR     s3,[r0,#0x18]
        0x0800881e:    f8802034    ..4     STRB     r2,[r0,#0x34]
        0x08008822:    edc01a02    ....    VSTR     s3,[r0,#8]
        0x08008826:    edc01a01    ....    VSTR     s3,[r0,#4]
        0x0800882a:    e9c01208    ....    STRD     r1,r2,[r0,#0x20]
        0x0800882e:    7002        .p      STRB     r2,[r0,#0]
        0x08008830:    6282        .b      STR      r2,[r0,#0x28]
        0x08008832:    3038        80      ADDS     r0,r0,#0x38
        0x08008834:    ed9f0a33    ..3.    VLDR     s0,[pc,#204] ; [0x8008904] = 0x481c4000
        0x08008838:    edc01a02    ....    VSTR     s3,[r0,#8]
        0x0800883c:    edc01a01    ....    VSTR     s3,[r0,#4]
        0x08008840:    edc01a04    ....    VSTR     s3,[r0,#0x10]
        0x08008844:    edc01a03    ....    VSTR     s3,[r0,#0xc]
        0x08008848:    ed800a00    ....    VSTR     s0,[r0,#0]
        0x0800884c:    ed9f0a2e    ....    VLDR     s0,[pc,#184] ; [0x8008908] = 0x44fa0000
        0x08008850:    ed800a08    ....    VSTR     s0,[r0,#0x20]
        0x08008854:    ed9f0a2d    ..-.    VLDR     s0,[pc,#180] ; [0x800890c] = 0x459c4000
        0x08008858:    ed800a09    ....    VSTR     s0,[r0,#0x24]
        0x0800885c:    edc01a0b    ....    VSTR     s3,[r0,#0x2c]
        0x08008860:    edc01a0a    ....    VSTR     s3,[r0,#0x28]
        0x08008864:    edc01a0c    ....    VSTR     s3,[r0,#0x30]
        0x08008868:    edc01a0d    ....    VSTR     s3,[r0,#0x34]
        0x0800886c:    edc01a05    ....    VSTR     s3,[r0,#0x14]
        0x08008870:    edc01a06    ....    VSTR     s3,[r0,#0x18]
        0x08008874:    f000f862    ..b.    BL       reset_IncABZHandler ; 0x800893c
        0x08008878:    4826        &H      LDR      r0,[pc,#152] ; [0x8008914] = 0x200008d4
        0x0800887a:    ed9f0a25    ..%.    VLDR     s0,[pc,#148] ; [0x8008910] = 0x451d1463
        0x0800887e:    f44f717a    O.zq    MOV      r1,#0x3e8
        0x08008882:    ed800a00    ....    VSTR     s0,[r0,#0]
        0x08008886:    6101        .a      STR      r1,[r0,#0x10]
        0x08008888:    edc01a02    ....    VSTR     s3,[r0,#8]
        0x0800888c:    edc01a01    ....    VSTR     s3,[r0,#4]
        0x08008890:    ed802a03    ...*    VSTR     s4,[r0,#0xc]
        0x08008894:    4821        !H      LDR      r0,[pc,#132] ; [0x800891c] = 0x20000060
        0x08008896:    ed9f0a20    .. .    VLDR     s0,[pc,#128] ; [0x8008918] = 0xc04f4c78
        0x0800889a:    6840        @h      LDR      r0,[r0,#4]
        0x0800889c:    ed800a01    ....    VSTR     s0,[r0,#4]
        0x080088a0:    8002        ..      STRH     r2,[r0,#0]
        0x080088a2:    edc01a02    ....    VSTR     s3,[r0,#8]
        0x080088a6:    bd00        ..      POP      {pc}
    $d
        0x080088a8:    20000068    h..     DCD    536871016
        0x080088ac:    3a83126f    o..:    DCD    981668463
        0x080088b0:    38d1b717    ...8    DCD    953267991
        0x080088b4:    31ca1db9    ...1    DCD    835329465
        0x080088b8:    4d221fe8    .."M    DCD    1294082024
        0x080088bc:    2000063c    <..     DCD    536872508
        0x080088c0:    42100000    ...B    DCD    1108344832
        0x080088c4:    41a646e2    .F.A    DCD    1101416162
        0x080088c8:    00000000    ....    DCD    0
        0x080088cc:    3c426c69    ilB<    DCD    1010986089
        0x080088d0:    358637bd    .7.5    DCD    897988541
        0x080088d4:    3e4ccccd    ..L>    DCD    1045220557
        0x080088d8:    447a0000    ..zD    DCD    1148846080
        0x080088dc:    43c80000    ...C    DCD    1137180672
        0x080088e0:    3dcccccd    ...=    DCD    1036831949
        0x080088e4:    20000754    T..     DCD    536872788
        0x080088e8:    3cf5c28f    ...<    DCD    1022739087
        0x080088ec:    bcf5c28f    ....    DCD    3170222735
        0x080088f0:    3e99999a    ...>    DCD    1050253722
        0x080088f4:    43480000    ..HC    DCD    1128792064
        0x080088f8:    bed0ecfa    ....    DCD    3201363194
        0x080088fc:    40666666    fff@    DCD    1080452710
        0x08008900:    c0666666    fff.    DCD    3227936358
        0x08008904:    481c4000    .@.H    DCD    1209810944
        0x08008908:    44fa0000    ...D    DCD    1157234688
        0x0800890c:    459c4000    .@.E    DCD    1167867904
        0x08008910:    451d1463    c..E    DCD    1159533667
        0x08008914:    200008d4    ...     DCD    536873172
        0x08008918:    c04f4c78    xLO.    DCD    3226422392
        0x0800891c:    20000060    `..     DCD    536871008
    $t
    i.reset_CurrentPICHandler
    reset_CurrentPICHandler
        0x08008920:    4805        .H      LDR      r0,[pc,#20] ; [0x8008938] = 0x200007b0
        0x08008922:    ed9f0a04    ....    VLDR     s0,[pc,#16] ; [0x8008934] = 0
        0x08008926:    ed800a03    ....    VSTR     s0,[r0,#0xc]
        0x0800892a:    3014        .0      ADDS     r0,r0,#0x14
        0x0800892c:    ed800a03    ....    VSTR     s0,[r0,#0xc]
        0x08008930:    4770        pG      BX       lr
    $d
        0x08008932:    0000        ..      DCW    0
        0x08008934:    00000000    ....    DCD    0
        0x08008938:    200007b0    ...     DCD    536872880
    $t
    i.reset_IncABZHandler
    reset_IncABZHandler
        0x0800893c:    481a        .H      LDR      r0,[pc,#104] ; [0x80089a8] = 0x20000680
        0x0800893e:    2100        .!      MOVS     r1,#0
        0x08008940:    ed9f0a1a    ....    VLDR     s0,[pc,#104] ; [0x80089ac] = 0x461c4000
        0x08008944:    7001        .p      STRB     r1,[r0,#0]
        0x08008946:    7041        Ap      STRB     r1,[r0,#1]
        0x08008948:    7081        .p      STRB     r1,[r0,#2]
        0x0800894a:    6141        Aa      STR      r1,[r0,#0x14]
        0x0800894c:    6181        .a      STR      r1,[r0,#0x18]
        0x0800894e:    2104        .!      MOVS     r1,#4
        0x08008950:    70c1        .p      STRB     r1,[r0,#3]
        0x08008952:    f64011c4    @...    MOV      r1,#0x9c4
        0x08008956:    6081        .`      STR      r1,[r0,#8]
        0x08008958:    0089        ..      LSLS     r1,r1,#2
        0x0800895a:    6041        A`      STR      r1,[r0,#4]
        0x0800895c:    4914        .I      LDR      r1,[pc,#80] ; [0x80089b0] = 0x20000060
        0x0800895e:    6809        .h      LDR      r1,[r1,#0]
        0x08008960:    edd10a05    ....    VLDR     s1,[r1,#0x14]
        0x08008964:    ee200a20     . .    VMUL.F32 s0,s0,s1
        0x08008968:    eddf0a12    ....    VLDR     s1,[pc,#72] ; [0x80089b4] = 0x41c90fdb
        0x0800896c:    ee801a80    ....    VDIV.F32 s2,s1,s0
        0x08008970:    ed9f0a11    ....    VLDR     s0,[pc,#68] ; [0x80089b8] = 0x449c4000
        0x08008974:    eddf0a13    ....    VLDR     s1,[pc,#76] ; [0x80089c4] = 0x433c7edd
        0x08008978:    ed801a03    ....    VSTR     s2,[r0,#0xc]
        0x0800897c:    ed800a04    ....    VSTR     s0,[r0,#0x10]
        0x08008980:    ed9f0a0e    ....    VLDR     s0,[pc,#56] ; [0x80089bc] = 0
        0x08008984:    ed800a07    ....    VSTR     s0,[r0,#0x1c]
        0x08008988:    ed9f0a0d    ....    VLDR     s0,[pc,#52] ; [0x80089c0] = 0x42fb53d2
        0x0800898c:    ed800a09    ....    VSTR     s0,[r0,#0x24]
        0x08008990:    eeb50ac0    ....    VCMPE.F32 s0,#0.0
        0x08008994:    edc00a0a    ....    VSTR     s1,[r0,#0x28]
        0x08008998:    eef1fa10    ....    VMRS     APSR_nzcv,FPSCR
        0x0800899c:    bf3c        <.      ITT      CC
        0x0800899e:    ed9f0a0a    ....    VLDRCC   s0,[pc,#40] ; [0x80089c8] = 0xc2fb53d2
        0x080089a2:    ed800a09    ....    VSTRCC   s0,[r0,#0x24]
        0x080089a6:    4770        pG      BX       lr
    $d
        0x080089a8:    20000680    ...     DCD    536872576
        0x080089ac:    461c4000    .@.F    DCD    1176256512
        0x080089b0:    20000060    `..     DCD    536871008
        0x080089b4:    41c90fdb    ...A    DCD    1103695835
        0x080089b8:    449c4000    .@.D    DCD    1151090688
        0x080089bc:    00000000    ....    DCD    0
        0x080089c0:    42fb53d2    .S.B    DCD    1123767250
        0x080089c4:    433c7edd    .~<C    DCD    1128038109
        0x080089c8:    c2fb53d2    .S..    DCD    3271250898
    $t
    x$fpl$fpinit
    $v0
    _fp_init
        0x080089cc:    f04f7040    O.@p    MOV      r0,#0x3000000
        0x080089d0:    eee10a10    ....    VMSR     FPSCR,r0
    __fplib_config_fpu_vfp
    __fplib_config_pureend_doubles
        0x080089d4:    4770        pG      BX       lr
    $d.realdata
    .constdata
    CHANNEL_OFFSET_TAB
        0x080089d6:    1c08        ..      DCW    7176
        0x080089d8:    6c584430    0DXl    DCD    1817723952
    OFFSET_TAB_CCMRx
        0x080089dc:    00000000    ....    DCD    0
        0x080089e0:    04040404    ....    DCD    67372036
        0x080089e4:    3838        88      DCW    14392
    SHIFT_TAB_OCxx
        0x080089e6:    0000        ..      DCW    0
        0x080089e8:    00000008    ....    DCD    8
        0x080089ec:    08000008    ....    DCD    134217736
    SHIFT_TAB_ICxx
        0x080089f0:    00080000    ....    DCD    524288
        0x080089f4:    00080000    ....    DCD    524288
        0x080089f8:    0000        ..      DCW    0
    SHIFT_TAB_CCxP
        0x080089fa:    0200        ..      DCW    512
        0x080089fc:    0a080604    ....    DCD    168297988
        0x08008a00:    14100e0c    ....    DCD    336596492
    .constdata
    AHBPrescTable
        0x08008a04:    00000000    ....    DCD    0
        0x08008a08:    00000000    ....    DCD    0
        0x08008a0c:    04030201    ....    DCD    67305985
        0x08008a10:    09080706    ....    DCD    151521030
    .constdata
    APBPrescTable
        0x08008a14:    00000000    ....    DCD    0
        0x08008a18:    04030201    ....    DCD    67305985
    .constdata
    tableData_c
        0x08008a1c:    00000000    ....    DCD    0
        0x08008a20:    3a2441d0    .A$:    DCD    975454672
        0x08008a24:    3aa44129    )A.:    DCD    983843113
        0x08008a28:    3af6601c    .`.:    DCD    989224988
        0x08008a2c:    3b243e8e    .>$;    DCD    992231054
        0x08008a30:    3b4d4bc0    .KM;    DCD    994921408
        0x08008a34:    3b765751    QWv;    DCD    997611345
        0x08008a38:    3b8fb077    w..;    DCD    999272567
        0x08008a3c:    3ba43422    "4.;    DCD    1000616994
        0x08008a40:    3bb8b680    ...;    DCD    1001961088
        0x08008a44:    3bcd3768    h7.;    DCD    1003304808
        0x08008a48:    3be1b6af    ...;    DCD    1004648111
        0x08008a4c:    3bf6342e    .4.;    DCD    1005990958
        0x08008a50:    3c0557dd    .W.<    DCD    1006983133
        0x08008a54:    3c0f9495    ...<    DCD    1007654037
        0x08008a58:    3c19d02c    ,..<    DCD    1008324652
        0x08008a5c:    3c240a8b    ..$<    DCD    1008994955
        0x08008a60:    3c2e439f    .C.<    DCD    1009664927
        0x08008a64:    3c387b54    T{8<    DCD    1010334548
        0x08008a68:    3c42b196    ..B<    DCD    1011003798
        0x08008a6c:    3c4ce64f    O.L<    DCD    1011672655
        0x08008a70:    3c57196d    m.W<    DCD    1012341101
        0x08008a74:    3c614ada    .Ja<    DCD    1013009114
        0x08008a78:    3c6b7a83    .zk<    DCD    1013676675
        0x08008a7c:    3c75a855    U.u<    DCD    1014343765
        0x08008a80:    3c7fd43b    ;..<    DCD    1015010363
        0x08008a84:    3c84ff10    ...<    DCD    1015349008
        0x08008a88:    3c8a12fa    ...<    DCD    1015681786
        0x08008a8c:    3c8f25d0    .%.<    DCD    1016014288
        0x08008a90:    3c943789    .7.<    DCD    1016346505
        0x08008a94:    3c99481c    .H.<    DCD    1016678428
        0x08008a98:    3c9e577e    ~W.<    DCD    1017010046
        0x08008a9c:    3ca365a7    .e.<    DCD    1017341351
        0x08008aa0:    3ca8728c    .r.<    DCD    1017672332
        0x08008aa4:    3cad7e24    $~.<    DCD    1018002980
        0x08008aa8:    3cb28866    f..<    DCD    1018333286
        0x08008aac:    3cb79149    I..<    DCD    1018663241
        0x08008ab0:    3cbc98c2    ...<    DCD    1018992834
        0x08008ab4:    3cc19eca    ...<    DCD    1019322058
        0x08008ab8:    3cc6a357    W..<    DCD    1019650903
        0x08008abc:    3ccba65f    _..<    DCD    1019979359
        0x08008ac0:    3cd0a7db    ...<    DCD    1020307419
        0x08008ac4:    3cd5a7c0    ...<    DCD    1020635072
        0x08008ac8:    3cdaa606    ...<    DCD    1020962310
        0x08008acc:    3cdfa2a4    ...<    DCD    1021289124
        0x08008ad0:    3ce49d92    ...<    DCD    1021615506
        0x08008ad4:    3ce996c7    ...<    DCD    1021941447
        0x08008ad8:    3cee8e3a    :..<    DCD    1022266938
        0x08008adc:    3cf383e3    ...<    DCD    1022591971
        0x08008ae0:    3cf877b9    .w.<    DCD    1022916537
        0x08008ae4:    3cfd69b4    .i.<    DCD    1023240628
        0x08008ae8:    3d012ce6    .,.=    DCD    1023487206
        0x08008aec:    3d03a3fc    ...=    DCD    1023648764
        0x08008af0:    3d061a19    ...=    DCD    1023810073
        0x08008af4:    3d088f38    8..=    DCD    1023971128
        0x08008af8:    3d0b0355    U..=    DCD    1024131925
        0x08008afc:    3d0d766c    lv.=    DCD    1024292460
        0x08008b00:    3d0fe87a    z..=    DCD    1024452730
        0x08008b04:    3d12597a    zY.=    DCD    1024612730
        0x08008b08:    3d14c96a    j..=    DCD    1024772458
        0x08008b0c:    3d173844    D8.=    DCD    1024931908
        0x08008b10:    3d19a605    ...=    DCD    1025091077
        0x08008b14:    3d1c12ab    ...=    DCD    1025249963
        0x08008b18:    3d1e7e30    0~.=    DCD    1025408560
        0x08008b1c:    3d20e892    .. =    DCD    1025566866
        0x08008b20:    3d2351cd    .Q#=    DCD    1025724877
        0x08008b24:    3d25b9dd    ..%=    DCD    1025882589
        0x08008b28:    3d2820bf    . (=    DCD    1026039999
        0x08008b2c:    3d2a8670    p.*=    DCD    1026197104
        0x08008b30:    3d2ceaec    ..,=    DCD    1026353900
        0x08008b34:    3d2f4e31    1N/=    DCD    1026510385
        0x08008b38:    3d31b039    9.1=    DCD    1026666553
        0x08008b3c:    3d341104    ..4=    DCD    1026822404
        0x08008b40:    3d36708d    .p6=    DCD    1026977933
        0x08008b44:    3d38ced0    ..8=    DCD    1027133136
        0x08008b48:    3d3b2bcd    .+;=    DCD    1027288013
        0x08008b4c:    3d3d877e    ~.==    DCD    1027442558
        0x08008b50:    3d3fe1e1    ..?=    DCD    1027596769
        0x08008b54:    3d423af4    .:B=    DCD    1027750644
        0x08008b58:    3d4492b3    ..D=    DCD    1027904179
        0x08008b5c:    3d46e91c    ..F=    DCD    1028057372
        0x08008b60:    3d493e2b    +>I=    DCD    1028210219
        0x08008b64:    3d4b91df    ..K=    DCD    1028362719
        0x08008b68:    3d4de433    3.M=    DCD    1028514867
        0x08008b6c:    3d503527    '5P=    DCD    1028666663
        0x08008b70:    3d5284b6    ..R=    DCD    1028818102
        0x08008b74:    3d54d2df    ..T=    DCD    1028969183
        0x08008b78:    3d571fa0    ..W=    DCD    1029119904
        0x08008b7c:    3d596af4    .jY=    DCD    1029270260
        0x08008b80:    3d5bb4dc    ..[=    DCD    1029420252
        0x08008b84:    3d5dfd53    S.]=    DCD    1029569875
        0x08008b88:    3d604457    WD`=    DCD    1029719127
        0x08008b8c:    3d6289e7    ..b=    DCD    1029868007
        0x08008b90:    3d64ce00    ..d=    DCD    1030016512
        0x08008b94:    3d6710a0    ..g=    DCD    1030164640
        0x08008b98:    3d6951c5    .Qi=    DCD    1030312389
        0x08008b9c:    3d6b916c    l.k=    DCD    1030459756
        0x08008ba0:    3d6dcf94    ..m=    DCD    1030606740
        0x08008ba4:    3d700c3b    ;.p=    DCD    1030753339
        0x08008ba8:    3d72475f    _Gr=    DCD    1030899551
        0x08008bac:    3d7480fe    ..t=    DCD    1031045374
        0x08008bb0:    3d76b916    ..v=    DCD    1031190806
        0x08008bb4:    3d78efa6    ..x=    DCD    1031335846
        0x08008bb8:    3d7b24ab    .${=    DCD    1031480491
        0x08008bbc:    3d7d5824    $X}=    DCD    1031624740
        0x08008bc0:    3d7f8a0f    ...=    DCD    1031768591
        0x08008bc4:    3d80dd35    5..=    DCD    1031855413
        0x08008bc8:    3d81f49b    ...=    DCD    1031926939
        0x08008bcc:    3d830b37    7..=    DCD    1031998263
        0x08008bd0:    3d842109    .!.=    DCD    1032069385
        0x08008bd4:    3d853611    .6.=    DCD    1032140305
        0x08008bd8:    3d864a4d    MJ.=    DCD    1032211021
        0x08008bdc:    3d875dbe    .].=    DCD    1032281534
        0x08008be0:    3d887061    ap.=    DCD    1032351841
        0x08008be4:    3d898238    8..=    DCD    1032421944
        0x08008be8:    3d8a9340    @..=    DCD    1032491840
        0x08008bec:    3d8ba37a    z..=    DCD    1032561530
        0x08008bf0:    3d8cb2e5    ...=    DCD    1032631013
        0x08008bf4:    3d8dc180    ...=    DCD    1032700288
        0x08008bf8:    3d8ecf4b    K..=    DCD    1032769355
        0x08008bfc:    3d8fdc46    F..=    DCD    1032838214
        0x08008c00:    3d90e86f    o..=    DCD    1032906863
        0x08008c04:    3d91f3c7    ...=    DCD    1032975303
        0x08008c08:    3d92fe4d    M..=    DCD    1033043533
        0x08008c0c:    3d940801    ...=    DCD    1033111553
        0x08008c10:    3d9510e1    ...=    DCD    1033179361
        0x08008c14:    3d9618ef    ...=    DCD    1033246959
        0x08008c18:    3d972029    ) .=    DCD    1033314345
        0x08008c1c:    3d98268f    .&.=    DCD    1033381519
        0x08008c20:    3d992c21    !,.=    DCD    1033448481
        0x08008c24:    3d9a30de    .0.=    DCD    1033515230
        0x08008c28:    3d9b34c7    .4.=    DCD    1033581767
        0x08008c2c:    3d9c37da    .7.=    DCD    1033648090
        0x08008c30:    3d9d3a18    .:.=    DCD    1033714200
        0x08008c34:    3d9e3b80    .;.=    DCD    1033780096
        0x08008c38:    3d9f3c13    .<.=    DCD    1033845779
        0x08008c3c:    3da03bd0    .;.=    DCD    1033911248
        0x08008c40:    3da13ab6    .:.=    DCD    1033976502
        0x08008c44:    3da238c6    .8.=    DCD    1034041542
        0x08008c48:    3da33600    .6.=    DCD    1034106368
        0x08008c4c:    3da43263    c2.=    DCD    1034170979
        0x08008c50:    3da52df0    .-.=    DCD    1034235376
        0x08008c54:    3da628a5    .(.=    DCD    1034299557
        0x08008c58:    3da72284    .".=    DCD    1034363524
        0x08008c5c:    3da81b8c    ...=    DCD    1034427276
        0x08008c60:    3da913bc    ...=    DCD    1034490812
        0x08008c64:    3daa0b16    ...=    DCD    1034554134
        0x08008c68:    3dab0199    ...=    DCD    1034617241
        0x08008c6c:    3dabf744    D..=    DCD    1034680132
        0x08008c70:    3dacec19    ...=    DCD    1034742809
        0x08008c74:    3dade016    ...=    DCD    1034805270
        0x08008c78:    3daed33d    =..=    DCD    1034867517
        0x08008c7c:    3dafc58d    ...=    DCD    1034929549
        0x08008c80:    3db0b705    ...=    DCD    1034991365
        0x08008c84:    3db1a7a7    ...=    DCD    1035052967
        0x08008c88:    3db29773    s..=    DCD    1035114355
        0x08008c8c:    3db38668    h..=    DCD    1035175528
        0x08008c90:    3db47486    .t.=    DCD    1035236486
        0x08008c94:    3db561ce    .a.=    DCD    1035297230
        0x08008c98:    3db64e40    @N.=    DCD    1035357760
        0x08008c9c:    3db739dc    .9.=    DCD    1035418076
        0x08008ca0:    3db824a2    .$.=    DCD    1035478178
        0x08008ca4:    3db90e93    ...=    DCD    1035538067
        0x08008ca8:    3db9f7ae    ...=    DCD    1035597742
        0x08008cac:    3dbadff4    ...=    DCD    1035657204
        0x08008cb0:    3dbbc765    e..=    DCD    1035716453
        0x08008cb4:    3dbcae01    ...=    DCD    1035775489
        0x08008cb8:    3dbd93c9    ...=    DCD    1035834313
        0x08008cbc:    3dbe78bd    .x.=    DCD    1035892925
        0x08008cc0:    3dbf5cdc    .\.=    DCD    1035951324
        0x08008cc4:    3dc04028    (@.=    DCD    1036009512
        0x08008cc8:    3dc122a0    .".=    DCD    1036067488
        0x08008ccc:    3dc20446    F..=    DCD    1036125254
        0x08008cd0:    3dc2e518    ...=    DCD    1036182808
        0x08008cd4:    3dc3c519    ...=    DCD    1036240153
        0x08008cd8:    3dc4a447    G..=    DCD    1036297287
        0x08008cdc:    3dc582a3    ...=    DCD    1036354211
        0x08008ce0:    3dc6602d    -`.=    DCD    1036410925
        0x08008ce4:    3dc73ce7    .<.=    DCD    1036467431
        0x08008ce8:    3dc818d0    ...=    DCD    1036523728
        0x08008cec:    3dc8f3e9    ...=    DCD    1036579817
        0x08008cf0:    3dc9ce31    1..=    DCD    1036635697
        0x08008cf4:    3dcaa7aa    ...=    DCD    1036691370
        0x08008cf8:    3dcb8054    T..=    DCD    1036746836
        0x08008cfc:    3dcc582f    /X.=    DCD    1036802095
        0x08008d00:    3dcd2f3c    </.=    DCD    1036857148
        0x08008d04:    3dce057b    {..=    DCD    1036911995
        0x08008d08:    3dcedaed    ...=    DCD    1036966637
        0x08008d0c:    3dcfaf91    ...=    DCD    1037021073
        0x08008d10:    3dd08369    i..=    DCD    1037075305
        0x08008d14:    3dd15675    uV.=    DCD    1037129333
        0x08008d18:    3dd228b5    .(.=    DCD    1037183157
        0x08008d1c:    3dd2fa2a    *..=    DCD    1037236778
        0x08008d20:    3dd3cad4    ...=    DCD    1037290196
        0x08008d24:    3dd49ab4    ...=    DCD    1037343412
        0x08008d28:    3dd569ca    .i.=    DCD    1037396426
        0x08008d2c:    3dd63817    .8.=    DCD    1037449239
        0x08008d30:    3dd7059b    ...=    DCD    1037501851
        0x08008d34:    3dd7d257    W..=    DCD    1037554263
        0x08008d38:    3dd89e4b    K..=    DCD    1037606475
        0x08008d3c:    3dd96978    xi.=    DCD    1037658488
        0x08008d40:    3dda33de    .3.=    DCD    1037710302
        0x08008d44:    3ddafd7f    ...=    DCD    1037761919
        0x08008d48:    3ddbc659    Y..=    DCD    1037813337
        0x08008d4c:    3ddc8e6f    o..=    DCD    1037864559
        0x08008d50:    3ddd55c0    .U.=    DCD    1037915584
        0x08008d54:    3dde1c4d    M..=    DCD    1037966413
        0x08008d58:    3ddee216    ...=    DCD    1038017046
        0x08008d5c:    3ddfa71d    ...=    DCD    1038067485
        0x08008d60:    3de06b61    ak.=    DCD    1038117729
        0x08008d64:    3de12ee4    ...=    DCD    1038167780
        0x08008d68:    3de1f1a5    ...=    DCD    1038217637
        0x08008d6c:    3de2b3a6    ...=    DCD    1038267302
        0x08008d70:    3de374e7    .t.=    DCD    1038316775
        0x08008d74:    3de43568    h5.=    DCD    1038366056
        0x08008d78:    3de4f52b    +..=    DCD    1038415147
        0x08008d7c:    3de5b42f    /..=    DCD    1038464047
        0x08008d80:    3de67276    vr.=    DCD    1038512758
        0x08008d84:    3de73000    .0.=    DCD    1038561280
        0x08008d88:    3de7eccd    ...=    DCD    1038609613
        0x08008d8c:    3de8a8de    ...=    DCD    1038657758
        0x08008d90:    3de96435    5d.=    DCD    1038705717
        0x08008d94:    3dea1ed0    ...=    DCD    1038753488
        0x08008d98:    3dead8b2    ...=    DCD    1038801074
        0x08008d9c:    3deb91da    ...=    DCD    1038848474
        0x08008da0:    3dec4a49    IJ.=    DCD    1038895689
        0x08008da4:    3ded0200    ...=    DCD    1038942720
        0x08008da8:    3dedb900    ...=    DCD    1038989568
        0x08008dac:    3dee6f48    Ho.=    DCD    1039036232
        0x08008db0:    3def24db    .$.=    DCD    1039082715
        0x08008db4:    3defd9b7    ...=    DCD    1039129015
        0x08008db8:    3df08ddf    ...=    DCD    1039175135
        0x08008dbc:    3df14152    RA.=    DCD    1039221074
        0x08008dc0:    3df1f412    ...=    DCD    1039266834
        0x08008dc4:    3df2a61e    ...=    DCD    1039312414
        0x08008dc8:    3df35778    xW.=    DCD    1039357816
        0x08008dcc:    3df40820     ..=    DCD    1039403040
        0x08008dd0:    3df4b816    ...=    DCD    1039448086
        0x08008dd4:    3df5675d    ]g.=    DCD    1039492957
        0x08008dd8:    3df615f3    ...=    DCD    1039537651
        0x08008ddc:    3df6c3da    ...=    DCD    1039582170
        0x08008de0:    3df77112    .q.=    DCD    1039626514
        0x08008de4:    3df81d9c    ...=    DCD    1039670684
        0x08008de8:    3df8c979    y..=    DCD    1039714681
        0x08008dec:    3df974aa    .t.=    DCD    1039758506
        0x08008df0:    3dfa1f2e    ...=    DCD    1039802158
        0x08008df4:    3dfac907    ...=    DCD    1039845639
        0x08008df8:    3dfb7235    5r.=    DCD    1039888949
        0x08008dfc:    3dfc1ab8    ...=    DCD    1039932088
        0x08008e00:    3dfcc293    ...=    DCD    1039975059
        0x08008e04:    3dfd69c5    .i.=    DCD    1040017861
        0x08008e08:    3dfe104e    N..=    DCD    1040060494
        0x08008e0c:    3dfeb630    0..=    DCD    1040102960
        0x08008e10:    3dff5b6b    k[.=    DCD    1040145259
        0x08008e14:    3e000000    ...>    DCD    1040187392
    .constdata
    _aInitStr
        0x08008e18:    00000000    ....    DCD    0
        0x08008e1c:    54540000    ..TT    DCD    1414791168
        0x08008e20:    45522052    R RE    DCD    1163010130
        0x08008e24:    53454747    GGES    DCD    1397049159
        0x08008e28:    00000000    ....    DCD    0
    .constdata
    USART_PRESCALER_TAB
        0x08008e2c:    00000001    ....    DCD    1
        0x08008e30:    00000002    ....    DCD    2
        0x08008e34:    00000004    ....    DCD    4
        0x08008e38:    00000006    ....    DCD    6
        0x08008e3c:    00000008    ....    DCD    8
        0x08008e40:    0000000a    ....    DCD    10
        0x08008e44:    0000000c    ....    DCD    12
        0x08008e48:    00000010    ....    DCD    16
        0x08008e4c:    00000020     ...    DCD    32
        0x08008e50:    00000040    @...    DCD    64
        0x08008e54:    00000080    ....    DCD    128
        0x08008e58:    00000100    ....    DCD    256
    Region$$Table$$Base
        0x08008e5c:    08008e7c    |...    DCD    134254204
        0x08008e60:    20000000    ...     DCD    536870912
        0x08008e64:    00000268    h...    DCD    616
        0x08008e68:    08000214    ....    DCD    134218260
        0x08008e6c:    08008f80    ....    DCD    134254464
        0x08008e70:    20000268    h..     DCD    536871528
        0x08008e74:    00001f68    h...    DCD    8040
        0x08008e78:    08000270    p...    DCD    134218352
    Region$$Table$$Limit

** Section #2 'RW_IRAM1' (SHT_PROGBITS) [SHF_ALLOC + SHF_WRITE]
    Size   : 260 bytes (alignment 8)
    Address: 0x20000000


** Section #3 'RW_IRAM1' (SHT_NOBITS) [SHF_ALLOC + SHF_WRITE]
    Size   : 8040 bytes (alignment 8)
    Address: 0x20000268


** Section #4 '.debug_abbrev' (SHT_PROGBITS)
    Size   : 1476 bytes


** Section #5 '.debug_frame' (SHT_PROGBITS)
    Size   : 8172 bytes


** Section #6 '.debug_info' (SHT_PROGBITS)
    Size   : 403436 bytes


** Section #7 '.debug_line' (SHT_PROGBITS)
    Size   : 61816 bytes


** Section #8 '.debug_loc' (SHT_PROGBITS)
    Size   : 23784 bytes


** Section #9 '.debug_macinfo' (SHT_PROGBITS)
    Size   : 1379884 bytes


** Section #10 '.debug_pubnames' (SHT_PROGBITS)
    Size   : 10422 bytes


** Section #11 '.symtab' (SHT_SYMTAB)
    Size   : 18528 bytes (alignment 4)
    String table #12 '.strtab'
    Last local symbol no. 769


** Section #12 '.strtab' (SHT_STRTAB)
    Size   : 19920 bytes


** Section #13 '.note' (SHT_NOTE)
    Size   : 28 bytes (alignment 4)


** Section #14 '.comment' (SHT_PROGBITS)
    Size   : 86552 bytes


** Section #15 '.shstrtab' (SHT_STRTAB)
    Size   : 156 bytes


